	.text
	.syntax unified
	.eabi_attribute	67, "2.09"	@ Tag_conformance
	.cpu	cortex-a8
	.eabi_attribute	6, 10	@ Tag_CPU_arch
	.eabi_attribute	7, 65	@ Tag_CPU_arch_profile
	.eabi_attribute	8, 1	@ Tag_ARM_ISA_use
	.eabi_attribute	9, 2	@ Tag_THUMB_ISA_use
	.fpu	neon
	.eabi_attribute	17, 1	@ Tag_ABI_PCS_GOT_use
	.eabi_attribute	20, 2	@ Tag_ABI_FP_denormal
	.eabi_attribute	23, 1	@ Tag_ABI_FP_number_model
	.eabi_attribute	34, 1	@ Tag_CPU_unaligned_access
	.eabi_attribute	24, 1	@ Tag_ABI_align_needed
	.eabi_attribute	25, 1	@ Tag_ABI_align_preserved
	.eabi_attribute	28, 1	@ Tag_ABI_VFP_args
	.eabi_attribute	38, 1	@ Tag_ABI_FP_16bit_format
	.eabi_attribute	18, 4	@ Tag_ABI_PCS_wchar_t
	.eabi_attribute	26, 2	@ Tag_ABI_enum_size
	.eabi_attribute	14, 0	@ Tag_ABI_PCS_R9_use
	.eabi_attribute	68, 1	@ Tag_Virtualization_use
	.file	"/root/Bela/projects/SOFAlizer-for-Bela/build/bela_sofa.bc"
	.file	1 "/usr/bin/../lib/gcc/arm-linux-gnueabihf/6.3.0/../../../../include/arm-linux-gnueabihf/c++/6.3.0/bits" "c++config.h"
	.file	2 "/usr/bin/../lib/gcc/arm-linux-gnueabihf/6.3.0/../../../../include/c++/6.3.0/ext" "concurrence.h"
	.file	3 "/root/Bela/projects/SOFAlizer-for-Bela" "mysofa.h"
	.file	4 "/root/Bela/projects/SOFAlizer-for-Bela" "bela_sofa.h"
	.file	5 "/usr/bin/../lib/gcc/arm-linux-gnueabihf/6.3.0/../../../../include/c++/6.3.0/bits" "basic_string.h"
	.file	6 "/usr/include/ne10" "NE10_types.h"
	.file	7 "/root/Bela/projects/SOFAlizer-for-Bela" "fft.h"
	.file	8 "/usr/bin/../lib/gcc/arm-linux-gnueabihf/6.3.0/../../../../include/c++/6.3.0/bits" "alloc_traits.h"
	.file	9 "/usr/bin/../lib/gcc/arm-linux-gnueabihf/6.3.0/../../../../include/c++/6.3.0/ext" "new_allocator.h"
	.file	10 "/usr/bin/../lib/gcc/arm-linux-gnueabihf/6.3.0/../../../../include/arm-linux-gnueabihf/c++/6.3.0/bits" "c++allocator.h"
	.file	11 "/usr/bin/../lib/gcc/arm-linux-gnueabihf/6.3.0/../../../../include/c++/6.3.0/bits" "allocator.h"
	.file	12 "/usr/bin/../lib/gcc/arm-linux-gnueabihf/6.3.0/../../../../include/c++/6.3.0/ext" "alloc_traits.h"
	.file	13 "/usr/bin/../lib/gcc/arm-linux-gnueabihf/6.3.0/../../../../include/c++/6.3.0/bits" "stl_vector.h"
	.file	14 "/usr/bin/../lib/gcc/arm-linux-gnueabihf/6.3.0/../../../../include/c++/6.3.0" "type_traits"
	.file	15 "/usr/bin/../lib/gcc/arm-linux-gnueabihf/6.3.0/../../../../include/c++/6.3.0/bits" "cpp_type_traits.h"
	.file	16 "/usr/bin/../lib/gcc/arm-linux-gnueabihf/6.3.0/../../../../include/c++/6.3.0/bits" "char_traits.h"
	.file	17 "/usr/bin/../lib/gcc/arm-linux-gnueabihf/6.3.0/../../../../include/c++/6.3.0/bits" "stl_iterator.h"
	.file	18 "/usr/bin/../lib/gcc/arm-linux-gnueabihf/6.3.0/../../../../include/c++/6.3.0/bits" "stl_iterator_base_types.h"
	.file	19 "/usr/lib/llvm-3.9/bin/../lib/clang/3.9.1/include" "arm_neon.h"
	.file	20 "/usr/bin/../lib/gcc/arm-linux-gnueabihf/6.3.0/../../../../include/c++/6.3.0/debug" "debug.h"
	.file	21 "/usr/include" "wchar.h"
	.file	22 "/usr/lib/llvm-3.9/bin/../lib/clang/3.9.1/include" "stddef.h"
	.file	23 "/usr/include" "libio.h"
	.file	24 "/usr/include/arm-linux-gnueabihf/bits" "types.h"
	.file	25 "/usr/include" "stdio.h"
	.file	26 "/usr/lib/llvm-3.9/bin/../lib/clang/3.9.1/include" "stdarg.h"
	.file	27 "/usr/include" "stdint.h"
	.file	28 "/usr/bin/../lib/gcc/arm-linux-gnueabihf/6.3.0/../../../../include/c++/6.3.0/bits" "exception_ptr.h"
	.file	29 "/usr/include" "locale.h"
	.file	30 "/usr/include" "ctype.h"
	.file	31 "/usr/include" "stdlib.h"
	.file	32 "/usr/include/arm-linux-gnueabihf/bits" "stdlib-float.h"
	.file	33 "/usr/include/arm-linux-gnueabihf/bits" "stdlib-bsearch.h"
	.file	34 "/usr/bin/../lib/gcc/arm-linux-gnueabihf/6.3.0/../../../../include/c++/6.3.0" "cstdlib"
	.file	35 "/usr/include" "_G_config.h"
	.file	36 "/usr/include/arm-linux-gnueabihf/bits" "stdio.h"
	.file	37 "/root/Bela/projects/SOFAlizer-for-Bela/build" "bela_sofa.cpp"
	.file	38 "/usr/include/arm-linux-gnueabihf/bits" "math-finite.h"
	.file	39 "/usr/include/arm-linux-gnueabihf/bits" "mathcalls.h"
	.file	40 "/usr/include/arm-linux-gnueabihf/bits" "mathdef.h"
	.file	41 "/usr/include" "time.h"
	.file	42 "/usr/include" "string.h"
	.globl	_Z9check_extRKNSt7__cxx1112basic_stringIcSt11char_traitsIcESaIcEEE
	.p2align	2
	.type	_Z9check_extRKNSt7__cxx1112basic_stringIcSt11char_traitsIcESaIcEEE,%function
_Z9check_extRKNSt7__cxx1112basic_stringIcSt11char_traitsIcESaIcEEE: @ @_Z9check_extRKNSt7__cxx1112basic_stringIcSt11char_traitsIcESaIcEEE
.Lfunc_begin0:
	.file	43 "/root/Bela/projects/SOFAlizer-for-Bela" "bela_sofa.cpp"
	.loc	43 22 0                 @ /root/Bela/projects/SOFAlizer-for-Bela/bela_sofa.cpp:22:0
	.fnstart
	.cfi_startproc
@ BB#0:
	.save	{r4, r5, r6, r10, r11, lr}
	push	{r4, r5, r6, r10, r11, lr}
.Ltmp3:
	.cfi_def_cfa_offset 24
.Ltmp4:
	.cfi_offset lr, -4
.Ltmp5:
	.cfi_offset r11, -8
.Ltmp6:
	.cfi_offset r10, -12
.Ltmp7:
	.cfi_offset r6, -16
.Ltmp8:
	.cfi_offset r5, -20
.Ltmp9:
	.cfi_offset r4, -24
	.setfp	r11, sp, #16
	add	r11, sp, #16
.Ltmp10:
	.cfi_def_cfa r11, 8
	.pad	#32
	sub	sp, sp, #32
	@DEBUG_VALUE: check_ext:filename <- %R0
.Ltmp11:
	.loc	43 24 27 prologue_end discriminator 1 @ /root/Bela/projects/SOFAlizer-for-Bela/bela_sofa.cpp:24:27
	mov	r1, #46
	mvn	r2, #0
	mov	r5, r0
.Ltmp12:
	@DEBUG_VALUE: check_ext:filename <- %R5
	bl	_ZNKSt7__cxx1112basic_stringIcSt11char_traitsIcESaIcEE5rfindEcj
.Ltmp13:
	@DEBUG_VALUE: check_ext:pos <- %R0
	mov	r4, #0
	.loc	43 25 9                 @ /root/Bela/projects/SOFAlizer-for-Bela/bela_sofa.cpp:25:9
	cmn	r0, #1
	beq	.LBB0_14
.Ltmp14:
@ BB#1:
	@DEBUG_VALUE: check_ext:pos <- %R0
	@DEBUG_VALUE: check_ext:filename <- %R5
	@DEBUG_VALUE: substr:__n <- -1
	@DEBUG_VALUE: size:this <- %R5
	.loc	5 805 16                @ /usr/bin/../lib/gcc/arm-linux-gnueabihf/6.3.0/../../../../include/c++/6.3.0/bits/basic_string.h:805:16
	ldr	r3, [r5, #4]
.Ltmp15:
	.loc	43 29 42                @ /root/Bela/projects/SOFAlizer-for-Bela/bela_sofa.cpp:29:42
	add	r2, r0, #1
.Ltmp16:
	@DEBUG_VALUE: substr:__pos <- %R2
	@DEBUG_VALUE: _M_check:__pos <- %R2
	@DEBUG_VALUE: basic_string:__pos <- %R2
	@DEBUG_VALUE: _M_check:__pos <- %R2
	@DEBUG_VALUE: _M_limit:__pos <- %R2
	.loc	5 261 6                 @ /usr/bin/../lib/gcc/arm-linux-gnueabihf/6.3.0/../../../../include/c++/6.3.0/bits/basic_string.h:261:6
	cmp	r3, r2
	blo	.LBB0_15
.Ltmp17:
@ BB#2:                                 @ %_ZNKSt7__cxx1112basic_stringIcSt11char_traitsIcESaIcEE8_M_checkEjPKc.exit.i.i
	@DEBUG_VALUE: _M_limit:__pos <- %R2
	@DEBUG_VALUE: _M_check:__pos <- %R2
	@DEBUG_VALUE: basic_string:__pos <- %R2
	@DEBUG_VALUE: _M_check:__pos <- %R2
	@DEBUG_VALUE: substr:__pos <- %R2
	@DEBUG_VALUE: size:this <- %R5
	@DEBUG_VALUE: check_ext:pos <- %R0
	@DEBUG_VALUE: check_ext:filename <- %R5
	@DEBUG_VALUE: basic_string:__n <- -1
	add	r0, sp, #4
.Ltmp18:
	@DEBUG_VALUE: _M_construct<const char *>:this <- %R0
	@DEBUG_VALUE: _M_construct_aux<const char *>:this <- %R0
	@DEBUG_VALUE: _M_construct<const char *>:this <- %R0
	@DEBUG_VALUE: _M_local_data:this <- %R0
	.loc	5 280 46                @ /usr/bin/../lib/gcc/arm-linux-gnueabihf/6.3.0/../../../../include/c++/6.3.0/bits/basic_string.h:280:46
	subs	r4, r3, r2
.Ltmp19:
	@DEBUG_VALUE: _M_construct<const char *>:__dnew <- %R4
	@DEBUG_VALUE: _S_copy:__n <- %R4
	.loc	5 142 51                @ /usr/bin/../lib/gcc/arm-linux-gnueabihf/6.3.0/../../../../include/c++/6.3.0/bits/basic_string.h:142:51
	add	r6, r0, #8
.Ltmp20:
	@DEBUG_VALUE: size:this <- %R5
	.loc	5 110 25                @ /usr/bin/../lib/gcc/arm-linux-gnueabihf/6.3.0/../../../../include/c++/6.3.0/bits/basic_string.h:110:25
	str	r6, [sp, #4]
.Ltmp21:
	@DEBUG_VALUE: _M_limit:__off <- -1
	.loc	5 136 28                @ /usr/bin/../lib/gcc/arm-linux-gnueabihf/6.3.0/../../../../include/c++/6.3.0/bits/basic_string.h:136:28
	ldr	r0, [r5]
.Ltmp22:
	.loc	5 415 4 discriminator 1 @ /usr/bin/../lib/gcc/arm-linux-gnueabihf/6.3.0/../../../../include/c++/6.3.0/bits/basic_string.h:415:4
	add	r5, r0, r2
.Ltmp23:
	@DEBUG_VALUE: __start <- %R5
	@DEBUG_VALUE: _M_construct<const char *>:__beg <- %R5
	@DEBUG_VALUE: _M_construct_aux<const char *>:__beg <- %R5
	@DEBUG_VALUE: _M_construct<const char *>:__beg <- %R5
	@DEBUG_VALUE: _S_copy_chars:__k1 <- %R5
	@DEBUG_VALUE: _S_copy:__s <- %R5
	@DEBUG_VALUE: assign:__c2 <- %R5
	beq	.LBB0_4
.Ltmp24:
@ BB#3:                                 @ %_ZNKSt7__cxx1112basic_stringIcSt11char_traitsIcESaIcEE8_M_checkEjPKc.exit.i.i
	@DEBUG_VALUE: assign:__c2 <- %R5
	@DEBUG_VALUE: _S_copy:__s <- %R5
	@DEBUG_VALUE: _S_copy_chars:__k1 <- %R5
	@DEBUG_VALUE: _M_construct<const char *>:__beg <- %R5
	@DEBUG_VALUE: _M_construct_aux<const char *>:__beg <- %R5
	@DEBUG_VALUE: _M_construct<const char *>:__beg <- %R5
	@DEBUG_VALUE: __start <- %R5
	@DEBUG_VALUE: _S_copy:__n <- %R4
	@DEBUG_VALUE: _M_construct<const char *>:__dnew <- %R4
	@DEBUG_VALUE: _M_limit:__pos <- %R2
	@DEBUG_VALUE: _M_check:__pos <- %R2
	@DEBUG_VALUE: basic_string:__pos <- %R2
	@DEBUG_VALUE: _M_check:__pos <- %R2
	@DEBUG_VALUE: substr:__pos <- %R2
	cmp	r5, #0
	beq	.LBB0_16
.Ltmp25:
.LBB0_4:
	@DEBUG_VALUE: assign:__c2 <- %R5
	@DEBUG_VALUE: _S_copy:__s <- %R5
	@DEBUG_VALUE: _S_copy_chars:__k1 <- %R5
	@DEBUG_VALUE: _M_construct<const char *>:__beg <- %R5
	@DEBUG_VALUE: _M_construct_aux<const char *>:__beg <- %R5
	@DEBUG_VALUE: _M_construct<const char *>:__beg <- %R5
	@DEBUG_VALUE: __start <- %R5
	@DEBUG_VALUE: _S_copy:__n <- %R4
	@DEBUG_VALUE: _M_construct<const char *>:__dnew <- %R4
	@DEBUG_VALUE: _M_limit:__pos <- %R2
	@DEBUG_VALUE: _M_check:__pos <- %R2
	@DEBUG_VALUE: basic_string:__pos <- %R2
	@DEBUG_VALUE: _M_check:__pos <- %R2
	@DEBUG_VALUE: substr:__pos <- %R2
	.file	44 "/usr/bin/../lib/gcc/arm-linux-gnueabihf/6.3.0/../../../../include/c++/6.3.0/bits" "basic_string.tcc"
	.loc	44 215 12               @ /usr/bin/../lib/gcc/arm-linux-gnueabihf/6.3.0/../../../../include/c++/6.3.0/bits/basic_string.tcc:215:12
	str	r4, [r11, #-20]
	.loc	44 217 6                @ /usr/bin/../lib/gcc/arm-linux-gnueabihf/6.3.0/../../../../include/c++/6.3.0/bits/basic_string.tcc:217:6
	cmp	r4, #15
	bls	.LBB0_6
.Ltmp26:
@ BB#5:                                 @ %.noexc13.i.i
	@DEBUG_VALUE: assign:__c2 <- %R5
	@DEBUG_VALUE: _S_copy:__s <- %R5
	@DEBUG_VALUE: _S_copy_chars:__k1 <- %R5
	@DEBUG_VALUE: _M_construct<const char *>:__beg <- %R5
	@DEBUG_VALUE: _M_construct_aux<const char *>:__beg <- %R5
	@DEBUG_VALUE: _M_construct<const char *>:__beg <- %R5
	@DEBUG_VALUE: __start <- %R5
	@DEBUG_VALUE: _S_copy:__n <- %R4
	@DEBUG_VALUE: _M_construct<const char *>:__dnew <- %R4
	@DEBUG_VALUE: _M_limit:__pos <- %R2
	@DEBUG_VALUE: _M_check:__pos <- %R2
	@DEBUG_VALUE: basic_string:__pos <- %R2
	@DEBUG_VALUE: _M_check:__pos <- %R2
	@DEBUG_VALUE: substr:__pos <- %R2
	add	r0, sp, #4
.Ltmp27:
	@DEBUG_VALUE: _M_capacity:this <- %R0
	@DEBUG_VALUE: _M_data:this <- %R0
	sub	r1, r11, #20
.Ltmp28:
	@DEBUG_VALUE: _M_construct<const char *>:__dnew <- [%R1+0]
	.loc	44 219 14               @ /usr/bin/../lib/gcc/arm-linux-gnueabihf/6.3.0/../../../../include/c++/6.3.0/bits/basic_string.tcc:219:14
	mov	r2, #0
.Ltmp29:
	bl	_ZNSt7__cxx1112basic_stringIcSt11char_traitsIcESaIcEE9_M_createERjj
.Ltmp30:
	@DEBUG_VALUE: _M_data:__p <- %R0
	.loc	44 220 18               @ /usr/bin/../lib/gcc/arm-linux-gnueabihf/6.3.0/../../../../include/c++/6.3.0/bits/basic_string.tcc:220:18
	ldr	r1, [r11, #-20]
.Ltmp31:
	@DEBUG_VALUE: _M_capacity:__capacity <- %R1
	@DEBUG_VALUE: _M_construct<const char *>:__dnew <- %R1
	.loc	5 128 26                @ /usr/bin/../lib/gcc/arm-linux-gnueabihf/6.3.0/../../../../include/c++/6.3.0/bits/basic_string.h:128:26
	str	r0, [sp, #4]
.Ltmp32:
	.loc	5 160 31                @ /usr/bin/../lib/gcc/arm-linux-gnueabihf/6.3.0/../../../../include/c++/6.3.0/bits/basic_string.h:160:31
	str	r1, [sp, #12]
	b	.LBB0_7
.Ltmp33:
.LBB0_6:                                @ %._crit_edge.i.i.i.i.i
	@DEBUG_VALUE: assign:__c2 <- %R5
	@DEBUG_VALUE: _S_copy:__s <- %R5
	@DEBUG_VALUE: _S_copy_chars:__k1 <- %R5
	@DEBUG_VALUE: _M_construct<const char *>:__beg <- %R5
	@DEBUG_VALUE: _M_construct_aux<const char *>:__beg <- %R5
	@DEBUG_VALUE: _M_construct<const char *>:__beg <- %R5
	@DEBUG_VALUE: __start <- %R5
	@DEBUG_VALUE: _S_copy:__n <- %R4
	@DEBUG_VALUE: _M_construct<const char *>:__dnew <- %R4
	@DEBUG_VALUE: _M_limit:__pos <- %R2
	@DEBUG_VALUE: _M_check:__pos <- %R2
	@DEBUG_VALUE: basic_string:__pos <- %R2
	@DEBUG_VALUE: _M_check:__pos <- %R2
	@DEBUG_VALUE: substr:__pos <- %R2
	.loc	5 136 28                @ /usr/bin/../lib/gcc/arm-linux-gnueabihf/6.3.0/../../../../include/c++/6.3.0/bits/basic_string.h:136:28
	mov	r0, r6
.Ltmp34:
.LBB0_7:
	@DEBUG_VALUE: assign:__c2 <- %R5
	@DEBUG_VALUE: _S_copy:__s <- %R5
	@DEBUG_VALUE: _S_copy_chars:__k1 <- %R5
	@DEBUG_VALUE: _M_construct<const char *>:__beg <- %R5
	@DEBUG_VALUE: _M_construct_aux<const char *>:__beg <- %R5
	@DEBUG_VALUE: _M_construct<const char *>:__beg <- %R5
	@DEBUG_VALUE: __start <- %R5
	@DEBUG_VALUE: _S_copy:__n <- %R4
	.loc	5 297 6                 @ /usr/bin/../lib/gcc/arm-linux-gnueabihf/6.3.0/../../../../include/c++/6.3.0/bits/basic_string.h:297:6
	cmp	r4, #0
	beq	.LBB0_11
.Ltmp35:
@ BB#8:
	@DEBUG_VALUE: assign:__c2 <- %R5
	@DEBUG_VALUE: _S_copy:__s <- %R5
	@DEBUG_VALUE: _S_copy_chars:__k1 <- %R5
	@DEBUG_VALUE: _M_construct<const char *>:__beg <- %R5
	@DEBUG_VALUE: _M_construct_aux<const char *>:__beg <- %R5
	@DEBUG_VALUE: _M_construct<const char *>:__beg <- %R5
	@DEBUG_VALUE: __start <- %R5
	@DEBUG_VALUE: _S_copy:__n <- %R4
	cmp	r4, #1
	bne	.LBB0_10
.Ltmp36:
@ BB#9:
	@DEBUG_VALUE: assign:__c2 <- %R5
	@DEBUG_VALUE: _S_copy:__s <- %R5
	@DEBUG_VALUE: _S_copy_chars:__k1 <- %R5
	@DEBUG_VALUE: _M_construct<const char *>:__beg <- %R5
	@DEBUG_VALUE: _M_construct_aux<const char *>:__beg <- %R5
	@DEBUG_VALUE: _M_construct<const char *>:__beg <- %R5
	@DEBUG_VALUE: __start <- %R5
	@DEBUG_VALUE: _S_copy:__n <- %R4
	.loc	16 243 16               @ /usr/bin/../lib/gcc/arm-linux-gnueabihf/6.3.0/../../../../include/c++/6.3.0/bits/char_traits.h:243:16
	ldrb	r1, [r5]
.Ltmp37:
	@DEBUG_VALUE: _S_copy_chars:__p <- %R0
	.loc	16 243 14 is_stmt 0     @ /usr/bin/../lib/gcc/arm-linux-gnueabihf/6.3.0/../../../../include/c++/6.3.0/bits/char_traits.h:243:14
	strb	r1, [r0]
	b	.LBB0_11
.Ltmp38:
.LBB0_10:
	@DEBUG_VALUE: assign:__c2 <- %R5
	@DEBUG_VALUE: _S_copy:__s <- %R5
	@DEBUG_VALUE: _S_copy_chars:__k1 <- %R5
	@DEBUG_VALUE: _M_construct<const char *>:__beg <- %R5
	@DEBUG_VALUE: _M_construct_aux<const char *>:__beg <- %R5
	@DEBUG_VALUE: _M_construct<const char *>:__beg <- %R5
	@DEBUG_VALUE: __start <- %R5
	@DEBUG_VALUE: _S_copy:__n <- %R4
	.loc	16 290 33 is_stmt 1     @ /usr/bin/../lib/gcc/arm-linux-gnueabihf/6.3.0/../../../../include/c++/6.3.0/bits/char_traits.h:290:33
	mov	r1, r5
	mov	r2, r4
	bl	memcpy
.Ltmp39:
.LBB0_11:                               @ %_ZNKSt7__cxx1112basic_stringIcSt11char_traitsIcESaIcEE6substrEjj.exit
	@DEBUG_VALUE: assign:__c2 <- %R5
	@DEBUG_VALUE: _S_copy:__s <- %R5
	@DEBUG_VALUE: _S_copy_chars:__k1 <- %R5
	@DEBUG_VALUE: _M_construct<const char *>:__beg <- %R5
	@DEBUG_VALUE: _M_construct_aux<const char *>:__beg <- %R5
	@DEBUG_VALUE: _M_construct<const char *>:__beg <- %R5
	@DEBUG_VALUE: __start <- %R5
	@DEBUG_VALUE: _S_copy:__n <- %R4
	.loc	44 232 16               @ /usr/bin/../lib/gcc/arm-linux-gnueabihf/6.3.0/../../../../include/c++/6.3.0/bits/basic_string.tcc:232:16
	ldr	r0, [r11, #-20]
.Ltmp40:
	@DEBUG_VALUE: _M_set_length:__n <- %R0
	@DEBUG_VALUE: _M_length:__length <- %R0
	@DEBUG_VALUE: _M_construct<const char *>:__dnew <- %R0
	.loc	16 243 14               @ /usr/bin/../lib/gcc/arm-linux-gnueabihf/6.3.0/../../../../include/c++/6.3.0/bits/char_traits.h:243:14
	mov	r4, #0
.Ltmp41:
	.loc	5 132 26                @ /usr/bin/../lib/gcc/arm-linux-gnueabihf/6.3.0/../../../../include/c++/6.3.0/bits/basic_string.h:132:26
	str	r0, [sp, #8]
.Ltmp42:
	.loc	5 136 28                @ /usr/bin/../lib/gcc/arm-linux-gnueabihf/6.3.0/../../../../include/c++/6.3.0/bits/basic_string.h:136:28
	ldr	r1, [sp, #4]
.Ltmp43:
	.loc	16 243 14               @ /usr/bin/../lib/gcc/arm-linux-gnueabihf/6.3.0/../../../../include/c++/6.3.0/bits/char_traits.h:243:14
	strb	r4, [r1, r0]
.Ltmp44:
	.loc	5 5101 20               @ /usr/bin/../lib/gcc/arm-linux-gnueabihf/6.3.0/../../../../include/c++/6.3.0/bits/basic_string.h:5101:20
.Ltmp0:
	movw	r1, :lower16:.L.str
	add	r0, sp, #4
.Ltmp45:
	@DEBUG_VALUE: operator==<char, std::char_traits<char>, std::allocator<char> >:__lhs <- %R0
	@DEBUG_VALUE: _M_data:this <- %R0
	@DEBUG_VALUE: _M_length:this <- %R0
	movt	r1, :upper16:.L.str
.Ltmp46:
	@DEBUG_VALUE: operator==<char, std::char_traits<char>, std::allocator<char> >:__rhs <- %R1
	bl	_ZNKSt7__cxx1112basic_stringIcSt11char_traitsIcESaIcEE7compareEPKc
.Ltmp47:
	mov	r1, r0
.Ltmp1:
.Ltmp48:
@ BB#12:
	@DEBUG_VALUE: assign:__c2 <- %R5
	@DEBUG_VALUE: _S_copy:__s <- %R5
	@DEBUG_VALUE: _S_copy_chars:__k1 <- %R5
	@DEBUG_VALUE: _M_construct<const char *>:__beg <- %R5
	@DEBUG_VALUE: _M_construct_aux<const char *>:__beg <- %R5
	@DEBUG_VALUE: _M_construct<const char *>:__beg <- %R5
	@DEBUG_VALUE: __start <- %R5
	.loc	5 136 28                @ /usr/bin/../lib/gcc/arm-linux-gnueabihf/6.3.0/../../../../include/c++/6.3.0/bits/basic_string.h:136:28
	ldr	r0, [sp, #4]
.Ltmp49:
	@DEBUG_VALUE: deallocate:__p <- %R0
	@DEBUG_VALUE: deallocate:__p <- %R0
	.loc	5 5101 35               @ /usr/bin/../lib/gcc/arm-linux-gnueabihf/6.3.0/../../../../include/c++/6.3.0/bits/basic_string.h:5101:35
	cmp	r1, #0
	movweq	r4, #1
.Ltmp50:
	.loc	5 180 6                 @ /usr/bin/../lib/gcc/arm-linux-gnueabihf/6.3.0/../../../../include/c++/6.3.0/bits/basic_string.h:180:6
	cmp	r0, r6
	beq	.LBB0_14
.Ltmp51:
@ BB#13:
	@DEBUG_VALUE: deallocate:__p <- %R0
	@DEBUG_VALUE: deallocate:__p <- %R0
	@DEBUG_VALUE: assign:__c2 <- %R5
	@DEBUG_VALUE: _S_copy:__s <- %R5
	@DEBUG_VALUE: _S_copy_chars:__k1 <- %R5
	@DEBUG_VALUE: _M_construct<const char *>:__beg <- %R5
	@DEBUG_VALUE: _M_construct_aux<const char *>:__beg <- %R5
	@DEBUG_VALUE: _M_construct<const char *>:__beg <- %R5
	@DEBUG_VALUE: __start <- %R5
	.loc	9 110 9                 @ /usr/bin/../lib/gcc/arm-linux-gnueabihf/6.3.0/../../../../include/c++/6.3.0/ext/new_allocator.h:110:9
	bl	_ZdlPv
.Ltmp52:
.LBB0_14:
	.loc	43 36 1 discriminator 2 @ /root/Bela/projects/SOFAlizer-for-Bela/bela_sofa.cpp:36:1
	mov	r0, r4
	sub	sp, r11, #16
	pop	{r4, r5, r6, r10, r11, pc}
.LBB0_15:
.Ltmp53:
	@DEBUG_VALUE: _M_limit:__pos <- %R2
	@DEBUG_VALUE: _M_check:__pos <- %R2
	@DEBUG_VALUE: basic_string:__pos <- %R2
	@DEBUG_VALUE: _M_check:__pos <- %R2
	@DEBUG_VALUE: substr:__pos <- %R2
	@DEBUG_VALUE: size:this <- %R5
	@DEBUG_VALUE: check_ext:pos <- %R0
	@DEBUG_VALUE: check_ext:filename <- %R5
	.loc	5 262 4                 @ /usr/bin/../lib/gcc/arm-linux-gnueabihf/6.3.0/../../../../include/c++/6.3.0/bits/basic_string.h:262:4
	movw	r0, :lower16:.L.str.7
.Ltmp54:
	movw	r1, :lower16:.L.str.6
	movt	r0, :upper16:.L.str.7
	movt	r1, :upper16:.L.str.6
.Ltmp55:
	@DEBUG_VALUE: _M_check:__s <- %R1
	mov	lr, pc
	b	_ZSt24__throw_out_of_range_fmtPKcz
.Ltmp56:
.LBB0_16:                               @ %.noexc.i.i
	@DEBUG_VALUE: assign:__c2 <- %R5
	@DEBUG_VALUE: _S_copy:__s <- %R5
	@DEBUG_VALUE: _S_copy_chars:__k1 <- %R5
	@DEBUG_VALUE: _M_construct<const char *>:__beg <- %R5
	@DEBUG_VALUE: _M_construct_aux<const char *>:__beg <- %R5
	@DEBUG_VALUE: _M_construct<const char *>:__beg <- %R5
	@DEBUG_VALUE: __start <- %R5
	@DEBUG_VALUE: _S_copy:__n <- %R4
	@DEBUG_VALUE: _M_construct<const char *>:__dnew <- %R4
	@DEBUG_VALUE: _M_limit:__pos <- %R2
	@DEBUG_VALUE: _M_check:__pos <- %R2
	@DEBUG_VALUE: basic_string:__pos <- %R2
	@DEBUG_VALUE: _M_check:__pos <- %R2
	@DEBUG_VALUE: substr:__pos <- %R2
	.loc	44 212 4                @ /usr/bin/../lib/gcc/arm-linux-gnueabihf/6.3.0/../../../../include/c++/6.3.0/bits/basic_string.tcc:212:4
	movw	r0, :lower16:.L.str.5
	movt	r0, :upper16:.L.str.5
	mov	lr, pc
	b	_ZSt19__throw_logic_errorPKc
.Ltmp57:
.LBB0_17:
	@DEBUG_VALUE: assign:__c2 <- %R5
	@DEBUG_VALUE: _S_copy:__s <- %R5
	@DEBUG_VALUE: _S_copy_chars:__k1 <- %R5
	@DEBUG_VALUE: _M_construct<const char *>:__beg <- %R5
	@DEBUG_VALUE: _M_construct_aux<const char *>:__beg <- %R5
	@DEBUG_VALUE: _M_construct<const char *>:__beg <- %R5
	@DEBUG_VALUE: __start <- %R5
.Ltmp2:
	mov	r4, r0
.Ltmp58:
	.loc	5 136 28                @ /usr/bin/../lib/gcc/arm-linux-gnueabihf/6.3.0/../../../../include/c++/6.3.0/bits/basic_string.h:136:28
	ldr	r0, [sp, #4]
.Ltmp59:
	@DEBUG_VALUE: deallocate:__p <- %R0
	@DEBUG_VALUE: deallocate:__p <- %R0
	.loc	5 180 6                 @ /usr/bin/../lib/gcc/arm-linux-gnueabihf/6.3.0/../../../../include/c++/6.3.0/bits/basic_string.h:180:6
	cmp	r0, r6
	beq	.LBB0_19
.Ltmp60:
@ BB#18:
	@DEBUG_VALUE: deallocate:__p <- %R0
	@DEBUG_VALUE: deallocate:__p <- %R0
	@DEBUG_VALUE: assign:__c2 <- %R5
	@DEBUG_VALUE: _S_copy:__s <- %R5
	@DEBUG_VALUE: _S_copy_chars:__k1 <- %R5
	@DEBUG_VALUE: _M_construct<const char *>:__beg <- %R5
	@DEBUG_VALUE: _M_construct_aux<const char *>:__beg <- %R5
	@DEBUG_VALUE: _M_construct<const char *>:__beg <- %R5
	@DEBUG_VALUE: __start <- %R5
	.loc	9 110 9                 @ /usr/bin/../lib/gcc/arm-linux-gnueabihf/6.3.0/../../../../include/c++/6.3.0/ext/new_allocator.h:110:9
	bl	_ZdlPv
.Ltmp61:
.LBB0_19:                               @ %_ZNSt7__cxx1112basic_stringIcSt11char_traitsIcESaIcEED2Ev.exit8
	@DEBUG_VALUE: assign:__c2 <- %R5
	@DEBUG_VALUE: _S_copy:__s <- %R5
	@DEBUG_VALUE: _S_copy_chars:__k1 <- %R5
	@DEBUG_VALUE: _M_construct<const char *>:__beg <- %R5
	@DEBUG_VALUE: _M_construct_aux<const char *>:__beg <- %R5
	@DEBUG_VALUE: _M_construct<const char *>:__beg <- %R5
	@DEBUG_VALUE: __start <- %R5
	mov	r0, r4
	mov	lr, pc
	b	_Unwind_Resume
.Lfunc_end0:
	.size	_Z9check_extRKNSt7__cxx1112basic_stringIcSt11char_traitsIcESaIcEEE, .Lfunc_end0-_Z9check_extRKNSt7__cxx1112basic_stringIcSt11char_traitsIcESaIcEEE
	.cfi_endproc
	.globl	__gxx_personality_v0
	.personality __gxx_personality_v0
	.handlerdata
	.p2align	2
GCC_except_table0:
.Lexception0:
	.byte	255                     @ @LPStart Encoding = omit
	.byte	0                       @ @TType Encoding = absptr
	.byte	41                      @ @TType base offset
	.byte	3                       @ Call site Encoding = udata4
	.byte	39                      @ Call site table length
	.long	.Lfunc_begin0-.Lfunc_begin0 @ >> Call Site 1 <<
	.long	.Ltmp0-.Lfunc_begin0    @   Call between .Lfunc_begin0 and .Ltmp0
	.long	0                       @     has no landing pad
	.byte	0                       @   On action: cleanup
	.long	.Ltmp0-.Lfunc_begin0    @ >> Call Site 2 <<
	.long	.Ltmp1-.Ltmp0           @   Call between .Ltmp0 and .Ltmp1
	.long	.Ltmp2-.Lfunc_begin0    @     jumps to .Ltmp2
	.byte	0                       @   On action: cleanup
	.long	.Ltmp1-.Lfunc_begin0    @ >> Call Site 3 <<
	.long	.Lfunc_end0-.Ltmp1      @   Call between .Ltmp1 and .Lfunc_end0
	.long	0                       @     has no landing pad
	.byte	0                       @   On action: cleanup
	.p2align	2
	.fnend

	.globl	_Z19read_hrtfs_from_dirRSt6vectorI8HRTFDataSaIS0_EEPKcfj
	.p2align	2
	.type	_Z19read_hrtfs_from_dirRSt6vectorI8HRTFDataSaIS0_EEPKcfj,%function
_Z19read_hrtfs_from_dirRSt6vectorI8HRTFDataSaIS0_EEPKcfj: @ @_Z19read_hrtfs_from_dirRSt6vectorI8HRTFDataSaIS0_EEPKcfj
.Lfunc_begin1:
	.loc	43 47 0                 @ /root/Bela/projects/SOFAlizer-for-Bela/bela_sofa.cpp:47:0
	.fnstart
	.cfi_startproc
@ BB#0:
	.save	{r4, r5, r6, r7, r8, r9, r10, r11, lr}
	push	{r4, r5, r6, r7, r8, r9, r10, r11, lr}
.Ltmp75:
	.cfi_def_cfa_offset 36
.Ltmp76:
	.cfi_offset lr, -4
.Ltmp77:
	.cfi_offset r11, -8
.Ltmp78:
	.cfi_offset r10, -12
.Ltmp79:
	.cfi_offset r9, -16
.Ltmp80:
	.cfi_offset r8, -20
.Ltmp81:
	.cfi_offset r7, -24
.Ltmp82:
	.cfi_offset r6, -28
.Ltmp83:
	.cfi_offset r5, -32
.Ltmp84:
	.cfi_offset r4, -36
	.setfp	r11, sp, #28
	add	r11, sp, #28
.Ltmp85:
	.cfi_def_cfa r11, 8
	.pad	#4
	sub	sp, sp, #4
	.vsave	{d10, d11}
	vpush	{d10, d11}
	.vsave	{d8}
	vpush	{d8}
.Ltmp86:
	.cfi_offset d11, -48
.Ltmp87:
	.cfi_offset d10, -56
.Ltmp88:
	.cfi_offset d8, -64
	.pad	#296
	sub	sp, sp, #296
	@DEBUG_VALUE: read_hrtfs_from_dir:hrtfdata <- %R0
	@DEBUG_VALUE: read_hrtfs_from_dir:path <- %R1
	@DEBUG_VALUE: read_hrtfs_from_dir:HWsampleRate <- %S0
	@DEBUG_VALUE: read_hrtfs_from_dir:max_sofas <- %R2
	mov	r4, r0
.Ltmp89:
	@DEBUG_VALUE: read_hrtfs_from_dir:hrtfdata <- %R4
	.loc	43 51 11 prologue_end   @ /root/Bela/projects/SOFAlizer-for-Bela/bela_sofa.cpp:51:11
	mov	r0, r1
	str	r2, [sp, #16]           @ 4-byte Spill
.Ltmp90:
	@DEBUG_VALUE: read_hrtfs_from_dir:max_sofas <- [%SP+16]
	vmov.f32	s16, s0
.Ltmp91:
	@DEBUG_VALUE: read_hrtfs_from_dir:HWsampleRate <- %S16
	str	r1, [sp, #12]           @ 4-byte Spill
.Ltmp92:
	@DEBUG_VALUE: read_hrtfs_from_dir:path <- [%SP+12]
	bl	opendir
.Ltmp93:
	mov	r7, r0
.Ltmp94:
	@DEBUG_VALUE: read_hrtfs_from_dir:cnt <- 0
	@DEBUG_VALUE: read_hrtfs_from_dir:dir <- %R7
	mov	r0, #0
	.loc	43 55 9                 @ /root/Bela/projects/SOFAlizer-for-Bela/bela_sofa.cpp:55:9
	cmp	r7, #0
	beq	.LBB1_27
.Ltmp95:
@ BB#1:                                 @ %.preheader
	@DEBUG_VALUE: read_hrtfs_from_dir:dir <- %R7
	@DEBUG_VALUE: read_hrtfs_from_dir:HWsampleRate <- %S16
	@DEBUG_VALUE: read_hrtfs_from_dir:hrtfdata <- %R4
	str	r4, [sp, #4]            @ 4-byte Spill
	add	r4, sp, #24
.Ltmp96:
	.loc	13 87 34                @ /usr/bin/../lib/gcc/arm-linux-gnueabihf/6.3.0/../../../../include/c++/6.3.0/bits/stl_vector.h:87:34
	vmov.i32	q5, #0x0
	.loc	13 87 22 is_stmt 0      @ /usr/bin/../lib/gcc/arm-linux-gnueabihf/6.3.0/../../../../include/c++/6.3.0/bits/stl_vector.h:87:22
	add	r0, r4, #120
.Ltmp97:
	.loc	5 142 51 is_stmt 1      @ /usr/bin/../lib/gcc/arm-linux-gnueabihf/6.3.0/../../../../include/c++/6.3.0/bits/basic_string.h:142:51
	add	r9, r4, #8
	str	r0, [sp, #8]            @ 4-byte Spill
	mov	r6, #0
	mov	r0, #0
	str	r0, [sp, #20]           @ 4-byte Spill
	b	.LBB1_3
.Ltmp98:
.LBB1_2:                                @   in Loop: Header=BB1_3 Depth=1
	@DEBUG_VALUE: deallocate:__p <- %R0
	@DEBUG_VALUE: deallocate:__p <- %R0
	@DEBUG_VALUE: _M_deallocate:__p <- %R0
	@DEBUG_VALUE: hrtf <- [%R4+0]
	@DEBUG_VALUE: HRTFData:this <- %R4
	@DEBUG_VALUE: _M_data:this <- %R4
	@DEBUG_VALUE: _M_set_length:this <- %R4
	@DEBUG_VALUE: _M_length:this <- %R4
	@DEBUG_VALUE: _M_data:this <- %R4
	@DEBUG_VALUE: _S_copy:__n <- %R8
	@DEBUG_VALUE: assign:__c2 <- %R10
	@DEBUG_VALUE: _S_copy:__s <- %R10
	@DEBUG_VALUE: _S_copy_chars:__k1 <- %R10
	@DEBUG_VALUE: _M_construct<const char *>:__beg <- %R10
	@DEBUG_VALUE: _M_construct_aux<const char *>:__beg <- %R10
	@DEBUG_VALUE: _M_construct<const char *>:__beg <- %R10
	@DEBUG_VALUE: length:__s <- %R10
	@DEBUG_VALUE: basic_string:__s <- %R10
	.loc	9 110 9                 @ /usr/bin/../lib/gcc/arm-linux-gnueabihf/6.3.0/../../../../include/c++/6.3.0/ext/new_allocator.h:110:9
	bl	_ZdlPv
.Ltmp99:
.LBB1_3:                                @ =>This Inner Loop Header: Depth=1
	.loc	43 56 23 discriminator 1 @ /root/Bela/projects/SOFAlizer-for-Bela/bela_sofa.cpp:56:23
	mov	r0, r7
	bl	readdir
.Ltmp100:
	@DEBUG_VALUE: read_hrtfs_from_dir:ent <- %R0
	.loc	43 56 9 is_stmt 0 discriminator 1 @ /root/Bela/projects/SOFAlizer-for-Bela/bela_sofa.cpp:56:9
	cmp	r0, #0
	beq	.LBB1_26
.Ltmp101:
@ BB#4:                                 @   in Loop: Header=BB1_3 Depth=1
	@DEBUG_VALUE: read_hrtfs_from_dir:ent <- %R0
	.loc	43 58 27 is_stmt 1      @ /root/Bela/projects/SOFAlizer-for-Bela/bela_sofa.cpp:58:27
	add	r10, r0, #11
.Ltmp102:
	@DEBUG_VALUE: basic_string:__s <- %R10
	@DEBUG_VALUE: length:__s <- %R10
	@DEBUG_VALUE: _M_construct<const char *>:__beg <- %R10
	@DEBUG_VALUE: _M_construct_aux<const char *>:__beg <- %R10
	@DEBUG_VALUE: _M_construct<const char *>:__beg <- %R10
	@DEBUG_VALUE: _S_copy_chars:__k1 <- %R10
	@DEBUG_VALUE: _S_copy:__s <- %R10
	@DEBUG_VALUE: assign:__c2 <- %R10
	.loc	5 110 25                @ /usr/bin/../lib/gcc/arm-linux-gnueabihf/6.3.0/../../../../include/c++/6.3.0/bits/basic_string.h:110:25
	str	r9, [sp, #24]
.Ltmp103:
	.loc	16 267 16               @ /usr/bin/../lib/gcc/arm-linux-gnueabihf/6.3.0/../../../../include/c++/6.3.0/bits/char_traits.h:267:16
	mov	r0, r10
.Ltmp104:
	bl	strlen
	mov	r8, r0
.Ltmp105:
	@DEBUG_VALUE: _M_construct<const char *>:__dnew <- %R8
	@DEBUG_VALUE: _S_copy:__n <- %R8
	.loc	5 136 28                @ /usr/bin/../lib/gcc/arm-linux-gnueabihf/6.3.0/../../../../include/c++/6.3.0/bits/basic_string.h:136:28
	mov	r0, r9
.Ltmp106:
	.loc	44 215 12               @ /usr/bin/../lib/gcc/arm-linux-gnueabihf/6.3.0/../../../../include/c++/6.3.0/bits/basic_string.tcc:215:12
	str	r8, [r11, #-64]
	.loc	44 217 6                @ /usr/bin/../lib/gcc/arm-linux-gnueabihf/6.3.0/../../../../include/c++/6.3.0/bits/basic_string.tcc:217:6
	cmp	r8, #16
	blo	.LBB1_7
.Ltmp107:
@ BB#5:                                 @ %.noexc8.i
                                        @   in Loop: Header=BB1_3 Depth=1
	@DEBUG_VALUE: _S_copy:__n <- %R8
	@DEBUG_VALUE: _M_construct<const char *>:__dnew <- %R8
	@DEBUG_VALUE: assign:__c2 <- %R10
	@DEBUG_VALUE: _S_copy:__s <- %R10
	@DEBUG_VALUE: _S_copy_chars:__k1 <- %R10
	@DEBUG_VALUE: _M_construct<const char *>:__beg <- %R10
	@DEBUG_VALUE: _M_construct_aux<const char *>:__beg <- %R10
	@DEBUG_VALUE: _M_construct<const char *>:__beg <- %R10
	@DEBUG_VALUE: length:__s <- %R10
	@DEBUG_VALUE: basic_string:__s <- %R10
	.loc	44 219 14               @ /usr/bin/../lib/gcc/arm-linux-gnueabihf/6.3.0/../../../../include/c++/6.3.0/bits/basic_string.tcc:219:14
.Ltmp62:
.Ltmp108:
	@DEBUG_VALUE: _M_construct<const char *>:__dnew <- undef
	sub	r1, r11, #64
	mov	r0, r4
	mov	r2, #0
	bl	_ZNSt7__cxx1112basic_stringIcSt11char_traitsIcESaIcEE9_M_createERjj
.Ltmp63:
.Ltmp109:
@ BB#6:                                 @ %.noexc
                                        @   in Loop: Header=BB1_3 Depth=1
	@DEBUG_VALUE: _S_copy:__n <- %R8
	@DEBUG_VALUE: assign:__c2 <- %R10
	@DEBUG_VALUE: _S_copy:__s <- %R10
	@DEBUG_VALUE: _S_copy_chars:__k1 <- %R10
	@DEBUG_VALUE: _M_construct<const char *>:__beg <- %R10
	@DEBUG_VALUE: _M_construct_aux<const char *>:__beg <- %R10
	@DEBUG_VALUE: _M_construct<const char *>:__beg <- %R10
	@DEBUG_VALUE: length:__s <- %R10
	@DEBUG_VALUE: basic_string:__s <- %R10
	@DEBUG_VALUE: _M_data:__p <- %R0
	.loc	44 220 18               @ /usr/bin/../lib/gcc/arm-linux-gnueabihf/6.3.0/../../../../include/c++/6.3.0/bits/basic_string.tcc:220:18
	ldr	r1, [r11, #-64]
.Ltmp110:
	@DEBUG_VALUE: _M_capacity:__capacity <- %R1
	@DEBUG_VALUE: _M_construct<const char *>:__dnew <- %R1
	.loc	5 128 26                @ /usr/bin/../lib/gcc/arm-linux-gnueabihf/6.3.0/../../../../include/c++/6.3.0/bits/basic_string.h:128:26
	str	r0, [sp, #24]
.Ltmp111:
	.loc	5 160 31                @ /usr/bin/../lib/gcc/arm-linux-gnueabihf/6.3.0/../../../../include/c++/6.3.0/bits/basic_string.h:160:31
	str	r1, [sp, #32]
.Ltmp112:
.LBB1_7:                                @ %._crit_edge.i.i.i.i
                                        @   in Loop: Header=BB1_3 Depth=1
	@DEBUG_VALUE: _S_copy:__n <- %R8
	@DEBUG_VALUE: assign:__c2 <- %R10
	@DEBUG_VALUE: _S_copy:__s <- %R10
	@DEBUG_VALUE: _S_copy_chars:__k1 <- %R10
	@DEBUG_VALUE: _M_construct<const char *>:__beg <- %R10
	@DEBUG_VALUE: _M_construct_aux<const char *>:__beg <- %R10
	@DEBUG_VALUE: _M_construct<const char *>:__beg <- %R10
	@DEBUG_VALUE: length:__s <- %R10
	@DEBUG_VALUE: basic_string:__s <- %R10
	.loc	5 297 6                 @ /usr/bin/../lib/gcc/arm-linux-gnueabihf/6.3.0/../../../../include/c++/6.3.0/bits/basic_string.h:297:6
	cmp	r8, #0
	beq	.LBB1_11
.Ltmp113:
@ BB#8:                                 @ %._crit_edge.i.i.i.i
                                        @   in Loop: Header=BB1_3 Depth=1
	@DEBUG_VALUE: _S_copy:__n <- %R8
	@DEBUG_VALUE: assign:__c2 <- %R10
	@DEBUG_VALUE: _S_copy:__s <- %R10
	@DEBUG_VALUE: _S_copy_chars:__k1 <- %R10
	@DEBUG_VALUE: _M_construct<const char *>:__beg <- %R10
	@DEBUG_VALUE: _M_construct_aux<const char *>:__beg <- %R10
	@DEBUG_VALUE: _M_construct<const char *>:__beg <- %R10
	@DEBUG_VALUE: length:__s <- %R10
	@DEBUG_VALUE: basic_string:__s <- %R10
	cmp	r8, #1
	bne	.LBB1_10
.Ltmp114:
@ BB#9:                                 @   in Loop: Header=BB1_3 Depth=1
	@DEBUG_VALUE: _S_copy:__n <- %R8
	@DEBUG_VALUE: assign:__c2 <- %R10
	@DEBUG_VALUE: _S_copy:__s <- %R10
	@DEBUG_VALUE: _S_copy_chars:__k1 <- %R10
	@DEBUG_VALUE: _M_construct<const char *>:__beg <- %R10
	@DEBUG_VALUE: _M_construct_aux<const char *>:__beg <- %R10
	@DEBUG_VALUE: _M_construct<const char *>:__beg <- %R10
	@DEBUG_VALUE: length:__s <- %R10
	@DEBUG_VALUE: basic_string:__s <- %R10
	.loc	16 243 16               @ /usr/bin/../lib/gcc/arm-linux-gnueabihf/6.3.0/../../../../include/c++/6.3.0/bits/char_traits.h:243:16
	ldrb	r1, [r10]
.Ltmp115:
	@DEBUG_VALUE: _S_copy_chars:__p <- %R0
	.loc	16 243 14 is_stmt 0     @ /usr/bin/../lib/gcc/arm-linux-gnueabihf/6.3.0/../../../../include/c++/6.3.0/bits/char_traits.h:243:14
	strb	r1, [r0]
	b	.LBB1_11
.Ltmp116:
.LBB1_10:                               @   in Loop: Header=BB1_3 Depth=1
	@DEBUG_VALUE: _S_copy:__n <- %R8
	@DEBUG_VALUE: assign:__c2 <- %R10
	@DEBUG_VALUE: _S_copy:__s <- %R10
	@DEBUG_VALUE: _S_copy_chars:__k1 <- %R10
	@DEBUG_VALUE: _M_construct<const char *>:__beg <- %R10
	@DEBUG_VALUE: _M_construct_aux<const char *>:__beg <- %R10
	@DEBUG_VALUE: _M_construct<const char *>:__beg <- %R10
	@DEBUG_VALUE: length:__s <- %R10
	@DEBUG_VALUE: basic_string:__s <- %R10
	.loc	16 290 33 is_stmt 1     @ /usr/bin/../lib/gcc/arm-linux-gnueabihf/6.3.0/../../../../include/c++/6.3.0/bits/char_traits.h:290:33
	mov	r1, r10
	mov	r2, r8
	bl	memcpy
.Ltmp117:
.LBB1_11:                               @   in Loop: Header=BB1_3 Depth=1
	@DEBUG_VALUE: _S_copy:__n <- %R8
	@DEBUG_VALUE: assign:__c2 <- %R10
	@DEBUG_VALUE: _S_copy:__s <- %R10
	@DEBUG_VALUE: _S_copy_chars:__k1 <- %R10
	@DEBUG_VALUE: _M_construct<const char *>:__beg <- %R10
	@DEBUG_VALUE: _M_construct_aux<const char *>:__beg <- %R10
	@DEBUG_VALUE: _M_construct<const char *>:__beg <- %R10
	@DEBUG_VALUE: length:__s <- %R10
	@DEBUG_VALUE: basic_string:__s <- %R10
	.loc	44 232 16               @ /usr/bin/../lib/gcc/arm-linux-gnueabihf/6.3.0/../../../../include/c++/6.3.0/bits/basic_string.tcc:232:16
	ldr	r0, [r11, #-64]
.Ltmp118:
	@DEBUG_VALUE: _M_set_length:__n <- %R0
	@DEBUG_VALUE: _M_length:__length <- %R0
	@DEBUG_VALUE: _M_construct<const char *>:__dnew <- %R0
	.loc	5 132 26                @ /usr/bin/../lib/gcc/arm-linux-gnueabihf/6.3.0/../../../../include/c++/6.3.0/bits/basic_string.h:132:26
	str	r0, [sp, #28]
.Ltmp119:
	.loc	5 136 28                @ /usr/bin/../lib/gcc/arm-linux-gnueabihf/6.3.0/../../../../include/c++/6.3.0/bits/basic_string.h:136:28
	ldr	r1, [sp, #24]
.Ltmp120:
	.loc	16 243 14               @ /usr/bin/../lib/gcc/arm-linux-gnueabihf/6.3.0/../../../../include/c++/6.3.0/bits/char_traits.h:243:14
	strb	r6, [r1, r0]
.Ltmp121:
	.loc	43 58 17 discriminator 1 @ /root/Bela/projects/SOFAlizer-for-Bela/bela_sofa.cpp:58:17
.Ltmp65:
.Ltmp122:
	@DEBUG_VALUE: _M_data:this <- %R4
	@DEBUG_VALUE: _M_length:this <- %R4
	@DEBUG_VALUE: _M_set_length:this <- %R4
	@DEBUG_VALUE: _M_data:this <- %R4
	mov	r0, r4
.Ltmp123:
	bl	_Z9check_extRKNSt7__cxx1112basic_stringIcSt11char_traitsIcESaIcEEE
	mov	r5, r0
.Ltmp66:
.Ltmp124:
@ BB#12:                                @   in Loop: Header=BB1_3 Depth=1
	@DEBUG_VALUE: _M_data:this <- %R4
	@DEBUG_VALUE: _M_set_length:this <- %R4
	@DEBUG_VALUE: _M_length:this <- %R4
	@DEBUG_VALUE: _M_data:this <- %R4
	@DEBUG_VALUE: _S_copy:__n <- %R8
	@DEBUG_VALUE: assign:__c2 <- %R10
	@DEBUG_VALUE: _S_copy:__s <- %R10
	@DEBUG_VALUE: _S_copy_chars:__k1 <- %R10
	@DEBUG_VALUE: _M_construct<const char *>:__beg <- %R10
	@DEBUG_VALUE: _M_construct_aux<const char *>:__beg <- %R10
	@DEBUG_VALUE: _M_construct<const char *>:__beg <- %R10
	@DEBUG_VALUE: length:__s <- %R10
	@DEBUG_VALUE: basic_string:__s <- %R10
	.loc	5 136 28                @ /usr/bin/../lib/gcc/arm-linux-gnueabihf/6.3.0/../../../../include/c++/6.3.0/bits/basic_string.h:136:28
	ldr	r0, [sp, #24]
.Ltmp125:
	@DEBUG_VALUE: deallocate:__p <- %R0
	@DEBUG_VALUE: deallocate:__p <- %R0
	.loc	5 180 6                 @ /usr/bin/../lib/gcc/arm-linux-gnueabihf/6.3.0/../../../../include/c++/6.3.0/bits/basic_string.h:180:6
	cmp	r0, r9
	beq	.LBB1_14
.Ltmp126:
@ BB#13:                                @   in Loop: Header=BB1_3 Depth=1
	@DEBUG_VALUE: deallocate:__p <- %R0
	@DEBUG_VALUE: deallocate:__p <- %R0
	@DEBUG_VALUE: _M_data:this <- %R4
	@DEBUG_VALUE: _M_set_length:this <- %R4
	@DEBUG_VALUE: _M_length:this <- %R4
	@DEBUG_VALUE: _M_data:this <- %R4
	@DEBUG_VALUE: _S_copy:__n <- %R8
	@DEBUG_VALUE: assign:__c2 <- %R10
	@DEBUG_VALUE: _S_copy:__s <- %R10
	@DEBUG_VALUE: _S_copy_chars:__k1 <- %R10
	@DEBUG_VALUE: _M_construct<const char *>:__beg <- %R10
	@DEBUG_VALUE: _M_construct_aux<const char *>:__beg <- %R10
	@DEBUG_VALUE: _M_construct<const char *>:__beg <- %R10
	@DEBUG_VALUE: length:__s <- %R10
	@DEBUG_VALUE: basic_string:__s <- %R10
	.loc	9 110 9                 @ /usr/bin/../lib/gcc/arm-linux-gnueabihf/6.3.0/../../../../include/c++/6.3.0/ext/new_allocator.h:110:9
	bl	_ZdlPv
.Ltmp127:
.LBB1_14:                               @ %_ZNSt7__cxx1112basic_stringIcSt11char_traitsIcESaIcEED2Ev.exit
                                        @   in Loop: Header=BB1_3 Depth=1
	@DEBUG_VALUE: _M_data:this <- %R4
	@DEBUG_VALUE: _M_set_length:this <- %R4
	@DEBUG_VALUE: _M_length:this <- %R4
	@DEBUG_VALUE: _M_data:this <- %R4
	@DEBUG_VALUE: _S_copy:__n <- %R8
	@DEBUG_VALUE: assign:__c2 <- %R10
	@DEBUG_VALUE: _S_copy:__s <- %R10
	@DEBUG_VALUE: _S_copy_chars:__k1 <- %R10
	@DEBUG_VALUE: _M_construct<const char *>:__beg <- %R10
	@DEBUG_VALUE: _M_construct_aux<const char *>:__beg <- %R10
	@DEBUG_VALUE: _M_construct<const char *>:__beg <- %R10
	@DEBUG_VALUE: length:__s <- %R10
	@DEBUG_VALUE: basic_string:__s <- %R10
	.loc	43 58 17 discriminator 2 @ /root/Bela/projects/SOFAlizer-for-Bela/bela_sofa.cpp:58:17
	cmp	r5, #1
	bne	.LBB1_3
.Ltmp128:
@ BB#15:                                @   in Loop: Header=BB1_3 Depth=1
	@DEBUG_VALUE: _M_data:this <- %R4
	@DEBUG_VALUE: _M_set_length:this <- %R4
	@DEBUG_VALUE: _M_length:this <- %R4
	@DEBUG_VALUE: _M_data:this <- %R4
	@DEBUG_VALUE: _S_copy:__n <- %R8
	@DEBUG_VALUE: assign:__c2 <- %R10
	@DEBUG_VALUE: _S_copy:__s <- %R10
	@DEBUG_VALUE: _S_copy_chars:__k1 <- %R10
	@DEBUG_VALUE: _M_construct<const char *>:__beg <- %R10
	@DEBUG_VALUE: _M_construct_aux<const char *>:__beg <- %R10
	@DEBUG_VALUE: _M_construct<const char *>:__beg <- %R10
	@DEBUG_VALUE: length:__s <- %R10
	@DEBUG_VALUE: basic_string:__s <- %R10
	.loc	43 60 21                @ /root/Bela/projects/SOFAlizer-for-Bela/bela_sofa.cpp:60:21
	ldr	r0, [sp, #16]           @ 4-byte Reload
	ldr	r1, [sp, #20]           @ 4-byte Reload
	cmp	r1, r0
	bhs	.LBB1_26
.Ltmp129:
@ BB#16:                                @   in Loop: Header=BB1_3 Depth=1
	@DEBUG_VALUE: _M_data:this <- %R4
	@DEBUG_VALUE: _M_set_length:this <- %R4
	@DEBUG_VALUE: _M_length:this <- %R4
	@DEBUG_VALUE: _M_data:this <- %R4
	@DEBUG_VALUE: _S_copy:__n <- %R8
	@DEBUG_VALUE: assign:__c2 <- %R10
	@DEBUG_VALUE: _S_copy:__s <- %R10
	@DEBUG_VALUE: _S_copy_chars:__k1 <- %R10
	@DEBUG_VALUE: _M_construct<const char *>:__beg <- %R10
	@DEBUG_VALUE: _M_construct_aux<const char *>:__beg <- %R10
	@DEBUG_VALUE: _M_construct<const char *>:__beg <- %R10
	@DEBUG_VALUE: length:__s <- %R10
	@DEBUG_VALUE: basic_string:__s <- %R10
	sub	r5, r11, #164
	.loc	43 65 17                @ /root/Bela/projects/SOFAlizer-for-Bela/bela_sofa.cpp:65:17
	ldr	r1, [sp, #12]           @ 4-byte Reload
	mov	r0, r5
	bl	strcpy
	.loc	43 66 17                @ /root/Bela/projects/SOFAlizer-for-Bela/bela_sofa.cpp:66:17
	mov	r0, r5
	mov	r1, r10
	bl	strcat
	ldr	r0, [sp, #8]            @ 4-byte Reload
.Ltmp130:
	.loc	43 99 5                 @ /root/Bela/projects/SOFAlizer-for-Bela/bela_sofa.cpp:99:5
	mov	r1, r5
.Ltmp131:
	.loc	13 87 34                @ /usr/bin/../lib/gcc/arm-linux-gnueabihf/6.3.0/../../../../include/c++/6.3.0/bits/stl_vector.h:87:34
	str	r6, [r0, #20]
	vst1.64	{d10, d11}, [r0]!
	str	r6, [r0]
.Ltmp132:
	@DEBUG_VALUE: HRTFData:this <- %R4
	@DEBUG_VALUE: hrtf <- [%R4+0]
	.loc	43 99 5                 @ /root/Bela/projects/SOFAlizer-for-Bela/bela_sofa.cpp:99:5
	mov	r0, r4
	bl	strcpy
.Ltmp133:
	.loc	43 70 33                @ /root/Bela/projects/SOFAlizer-for-Bela/bela_sofa.cpp:70:33
.Ltmp68:
	vmov.f32	s0, s16
	mov	r0, r4
	bl	_ZN8HRTFData9load_sofaEf
.Ltmp69:
.Ltmp134:
@ BB#17:                                @   in Loop: Header=BB1_3 Depth=1
	@DEBUG_VALUE: hrtf <- [%R4+0]
	@DEBUG_VALUE: HRTFData:this <- %R4
	@DEBUG_VALUE: _M_data:this <- %R4
	@DEBUG_VALUE: _M_set_length:this <- %R4
	@DEBUG_VALUE: _M_length:this <- %R4
	@DEBUG_VALUE: _M_data:this <- %R4
	@DEBUG_VALUE: _S_copy:__n <- %R8
	@DEBUG_VALUE: assign:__c2 <- %R10
	@DEBUG_VALUE: _S_copy:__s <- %R10
	@DEBUG_VALUE: _S_copy_chars:__k1 <- %R10
	@DEBUG_VALUE: _M_construct<const char *>:__beg <- %R10
	@DEBUG_VALUE: _M_construct_aux<const char *>:__beg <- %R10
	@DEBUG_VALUE: _M_construct<const char *>:__beg <- %R10
	@DEBUG_VALUE: length:__s <- %R10
	@DEBUG_VALUE: basic_string:__s <- %R10
	.loc	43 70 26 is_stmt 0 discriminator 1 @ /root/Bela/projects/SOFAlizer-for-Bela/bela_sofa.cpp:70:26
	str	r0, [sp, #140]
	.loc	43 72 21 is_stmt 1      @ /root/Bela/projects/SOFAlizer-for-Bela/bela_sofa.cpp:72:21
	cmp	r0, #0
	bne	.LBB1_23
.Ltmp135:
@ BB#18:                                @   in Loop: Header=BB1_3 Depth=1
	@DEBUG_VALUE: hrtf <- [%R4+0]
	@DEBUG_VALUE: HRTFData:this <- %R4
	@DEBUG_VALUE: _M_data:this <- %R4
	@DEBUG_VALUE: _M_set_length:this <- %R4
	@DEBUG_VALUE: _M_length:this <- %R4
	@DEBUG_VALUE: _M_data:this <- %R4
	@DEBUG_VALUE: _S_copy:__n <- %R8
	@DEBUG_VALUE: assign:__c2 <- %R10
	@DEBUG_VALUE: _S_copy:__s <- %R10
	@DEBUG_VALUE: _S_copy_chars:__k1 <- %R10
	@DEBUG_VALUE: _M_construct<const char *>:__beg <- %R10
	@DEBUG_VALUE: _M_construct_aux<const char *>:__beg <- %R10
	@DEBUG_VALUE: _M_construct<const char *>:__beg <- %R10
	@DEBUG_VALUE: length:__s <- %R10
	@DEBUG_VALUE: basic_string:__s <- %R10
	@DEBUG_VALUE: push_back:this <- [%SP+4]
	@DEBUG_VALUE: construct<HRTFData, const HRTFData &>:__p <- %R0
	@DEBUG_VALUE: construct<HRTFData, const HRTFData &>:__p <- %R0
	ldr	r2, [sp, #4]            @ 4-byte Reload
.Ltmp136:
	.loc	13 916 20               @ /usr/bin/../lib/gcc/arm-linux-gnueabihf/6.3.0/../../../../include/c++/6.3.0/bits/stl_vector.h:916:20
	ldmib	r2, {r0, r1}
.Ltmp137:
	.loc	13 916 6 is_stmt 0      @ /usr/bin/../lib/gcc/arm-linux-gnueabihf/6.3.0/../../../../include/c++/6.3.0/bits/stl_vector.h:916:6
	cmp	r0, r1
	beq	.LBB1_21
.Ltmp138:
@ BB#19:                                @   in Loop: Header=BB1_3 Depth=1
	@DEBUG_VALUE: push_back:this <- [%SP+4]
	@DEBUG_VALUE: hrtf <- [%R4+0]
	@DEBUG_VALUE: HRTFData:this <- %R4
	@DEBUG_VALUE: _M_data:this <- %R4
	@DEBUG_VALUE: _M_set_length:this <- %R4
	@DEBUG_VALUE: _M_length:this <- %R4
	@DEBUG_VALUE: _M_data:this <- %R4
	@DEBUG_VALUE: _S_copy:__n <- %R8
	@DEBUG_VALUE: assign:__c2 <- %R10
	@DEBUG_VALUE: _S_copy:__s <- %R10
	@DEBUG_VALUE: _S_copy_chars:__k1 <- %R10
	@DEBUG_VALUE: _M_construct<const char *>:__beg <- %R10
	@DEBUG_VALUE: _M_construct_aux<const char *>:__beg <- %R10
	@DEBUG_VALUE: _M_construct<const char *>:__beg <- %R10
	@DEBUG_VALUE: length:__s <- %R10
	@DEBUG_VALUE: basic_string:__s <- %R10
	.loc	9 120 23 is_stmt 1 discriminator 1 @ /usr/bin/../lib/gcc/arm-linux-gnueabihf/6.3.0/../../../../include/c++/6.3.0/ext/new_allocator.h:120:23
.Ltmp70:
.Ltmp139:
	@DEBUG_VALUE: construct<HRTFData, const HRTFData &>:__args <- %R4
	mov	r1, r4
	bl	_ZN8HRTFDataC2ERKS_
.Ltmp140:
.Ltmp71:
.Ltmp141:
@ BB#20:                                @ %.noexc28
                                        @   in Loop: Header=BB1_3 Depth=1
	@DEBUG_VALUE: construct<HRTFData, const HRTFData &>:__args <- %R4
	@DEBUG_VALUE: hrtf <- [%R4+0]
	@DEBUG_VALUE: HRTFData:this <- %R4
	@DEBUG_VALUE: _M_data:this <- %R4
	@DEBUG_VALUE: _M_set_length:this <- %R4
	@DEBUG_VALUE: _M_length:this <- %R4
	@DEBUG_VALUE: _M_data:this <- %R4
	@DEBUG_VALUE: _S_copy:__n <- %R8
	@DEBUG_VALUE: assign:__c2 <- %R10
	@DEBUG_VALUE: _S_copy:__s <- %R10
	@DEBUG_VALUE: _S_copy_chars:__k1 <- %R10
	@DEBUG_VALUE: _M_construct<const char *>:__beg <- %R10
	@DEBUG_VALUE: _M_construct_aux<const char *>:__beg <- %R10
	@DEBUG_VALUE: _M_construct<const char *>:__beg <- %R10
	@DEBUG_VALUE: length:__s <- %R10
	@DEBUG_VALUE: basic_string:__s <- %R10
	ldr	r1, [sp, #4]            @ 4-byte Reload
	.loc	13 920 6                @ /usr/bin/../lib/gcc/arm-linux-gnueabihf/6.3.0/../../../../include/c++/6.3.0/bits/stl_vector.h:920:6
	ldr	r0, [r1, #4]
	add	r0, r0, #164
	str	r0, [r1, #4]
	b	.LBB1_22
.Ltmp142:
.LBB1_21:                               @   in Loop: Header=BB1_3 Depth=1
	@DEBUG_VALUE: push_back:this <- [%SP+4]
	@DEBUG_VALUE: hrtf <- [%R4+0]
	@DEBUG_VALUE: HRTFData:this <- %R4
	@DEBUG_VALUE: _M_data:this <- %R4
	@DEBUG_VALUE: _M_set_length:this <- %R4
	@DEBUG_VALUE: _M_length:this <- %R4
	@DEBUG_VALUE: _M_data:this <- %R4
	@DEBUG_VALUE: _S_copy:__n <- %R8
	@DEBUG_VALUE: assign:__c2 <- %R10
	@DEBUG_VALUE: _S_copy:__s <- %R10
	@DEBUG_VALUE: _S_copy_chars:__k1 <- %R10
	@DEBUG_VALUE: _M_construct<const char *>:__beg <- %R10
	@DEBUG_VALUE: _M_construct_aux<const char *>:__beg <- %R10
	@DEBUG_VALUE: _M_construct<const char *>:__beg <- %R10
	@DEBUG_VALUE: length:__s <- %R10
	@DEBUG_VALUE: basic_string:__s <- %R10
	.loc	13 924 4                @ /usr/bin/../lib/gcc/arm-linux-gnueabihf/6.3.0/../../../../include/c++/6.3.0/bits/stl_vector.h:924:4
.Ltmp72:
	mov	r0, r2
	mov	r1, r4
	bl	_ZNSt6vectorI8HRTFDataSaIS0_EE19_M_emplace_back_auxIJRKS0_EEEvDpOT_
.Ltmp143:
.Ltmp73:
.Ltmp144:
.LBB1_22:                               @ %_ZNSt6vectorI8HRTFDataSaIS0_EE9push_backERKS0_.exit
                                        @   in Loop: Header=BB1_3 Depth=1
	@DEBUG_VALUE: hrtf <- [%R4+0]
	@DEBUG_VALUE: HRTFData:this <- %R4
	@DEBUG_VALUE: _M_data:this <- %R4
	@DEBUG_VALUE: _M_set_length:this <- %R4
	@DEBUG_VALUE: _M_length:this <- %R4
	@DEBUG_VALUE: _M_data:this <- %R4
	@DEBUG_VALUE: _S_copy:__n <- %R8
	@DEBUG_VALUE: assign:__c2 <- %R10
	@DEBUG_VALUE: _S_copy:__s <- %R10
	@DEBUG_VALUE: _S_copy_chars:__k1 <- %R10
	@DEBUG_VALUE: _M_construct<const char *>:__beg <- %R10
	@DEBUG_VALUE: _M_construct_aux<const char *>:__beg <- %R10
	@DEBUG_VALUE: _M_construct<const char *>:__beg <- %R10
	@DEBUG_VALUE: length:__s <- %R10
	@DEBUG_VALUE: basic_string:__s <- %R10
	.loc	43 74 24                @ /root/Bela/projects/SOFAlizer-for-Bela/bela_sofa.cpp:74:24
	ldr	r0, [sp, #20]           @ 4-byte Reload
	add	r0, r0, #1
.Ltmp145:
	@DEBUG_VALUE: read_hrtfs_from_dir:cnt <- [%SP+20]
	.loc	43 75 17                @ /root/Bela/projects/SOFAlizer-for-Bela/bela_sofa.cpp:75:17
	str	r0, [sp, #20]           @ 4-byte Spill
.Ltmp146:
.LBB1_23:                               @   in Loop: Header=BB1_3 Depth=1
	@DEBUG_VALUE: hrtf <- [%R4+0]
	@DEBUG_VALUE: HRTFData:this <- %R4
	@DEBUG_VALUE: _M_data:this <- %R4
	@DEBUG_VALUE: _M_set_length:this <- %R4
	@DEBUG_VALUE: _M_length:this <- %R4
	@DEBUG_VALUE: _M_data:this <- %R4
	@DEBUG_VALUE: _S_copy:__n <- %R8
	@DEBUG_VALUE: assign:__c2 <- %R10
	@DEBUG_VALUE: _S_copy:__s <- %R10
	@DEBUG_VALUE: _S_copy_chars:__k1 <- %R10
	@DEBUG_VALUE: _M_construct<const char *>:__beg <- %R10
	@DEBUG_VALUE: _M_construct_aux<const char *>:__beg <- %R10
	@DEBUG_VALUE: _M_construct<const char *>:__beg <- %R10
	@DEBUG_VALUE: length:__s <- %R10
	@DEBUG_VALUE: basic_string:__s <- %R10
	.loc	13 160 37               @ /usr/bin/../lib/gcc/arm-linux-gnueabihf/6.3.0/../../../../include/c++/6.3.0/bits/stl_vector.h:160:37
	ldr	r0, [sp, #156]
.Ltmp147:
	@DEBUG_VALUE: _M_deallocate:__p <- %R0
	@DEBUG_VALUE: deallocate:__p <- %R0
	@DEBUG_VALUE: deallocate:__p <- %R0
	.loc	13 177 6                @ /usr/bin/../lib/gcc/arm-linux-gnueabihf/6.3.0/../../../../include/c++/6.3.0/bits/stl_vector.h:177:6
	cmp	r0, #0
	beq	.LBB1_25
.Ltmp148:
@ BB#24:                                @   in Loop: Header=BB1_3 Depth=1
	@DEBUG_VALUE: deallocate:__p <- %R0
	@DEBUG_VALUE: deallocate:__p <- %R0
	@DEBUG_VALUE: _M_deallocate:__p <- %R0
	@DEBUG_VALUE: hrtf <- [%R4+0]
	@DEBUG_VALUE: HRTFData:this <- %R4
	@DEBUG_VALUE: _M_data:this <- %R4
	@DEBUG_VALUE: _M_set_length:this <- %R4
	@DEBUG_VALUE: _M_length:this <- %R4
	@DEBUG_VALUE: _M_data:this <- %R4
	@DEBUG_VALUE: _S_copy:__n <- %R8
	@DEBUG_VALUE: assign:__c2 <- %R10
	@DEBUG_VALUE: _S_copy:__s <- %R10
	@DEBUG_VALUE: _S_copy_chars:__k1 <- %R10
	@DEBUG_VALUE: _M_construct<const char *>:__beg <- %R10
	@DEBUG_VALUE: _M_construct_aux<const char *>:__beg <- %R10
	@DEBUG_VALUE: _M_construct<const char *>:__beg <- %R10
	@DEBUG_VALUE: length:__s <- %R10
	@DEBUG_VALUE: basic_string:__s <- %R10
	.loc	9 110 9                 @ /usr/bin/../lib/gcc/arm-linux-gnueabihf/6.3.0/../../../../include/c++/6.3.0/ext/new_allocator.h:110:9
	bl	_ZdlPv
.Ltmp149:
.LBB1_25:                               @ %_ZNSt6vectorIP3FftSaIS1_EED2Ev.exit.i
                                        @   in Loop: Header=BB1_3 Depth=1
	@DEBUG_VALUE: hrtf <- [%R4+0]
	@DEBUG_VALUE: HRTFData:this <- %R4
	@DEBUG_VALUE: _M_data:this <- %R4
	@DEBUG_VALUE: _M_set_length:this <- %R4
	@DEBUG_VALUE: _M_length:this <- %R4
	@DEBUG_VALUE: _M_data:this <- %R4
	@DEBUG_VALUE: _S_copy:__n <- %R8
	@DEBUG_VALUE: assign:__c2 <- %R10
	@DEBUG_VALUE: _S_copy:__s <- %R10
	@DEBUG_VALUE: _S_copy_chars:__k1 <- %R10
	@DEBUG_VALUE: _M_construct<const char *>:__beg <- %R10
	@DEBUG_VALUE: _M_construct_aux<const char *>:__beg <- %R10
	@DEBUG_VALUE: _M_construct<const char *>:__beg <- %R10
	@DEBUG_VALUE: length:__s <- %R10
	@DEBUG_VALUE: basic_string:__s <- %R10
	.loc	13 160 37               @ /usr/bin/../lib/gcc/arm-linux-gnueabihf/6.3.0/../../../../include/c++/6.3.0/bits/stl_vector.h:160:37
	ldr	r0, [sp, #144]
.Ltmp150:
	@DEBUG_VALUE: _M_deallocate:__p <- %R0
	@DEBUG_VALUE: deallocate:__p <- %R0
	@DEBUG_VALUE: deallocate:__p <- %R0
	.loc	13 177 6                @ /usr/bin/../lib/gcc/arm-linux-gnueabihf/6.3.0/../../../../include/c++/6.3.0/bits/stl_vector.h:177:6
	cmp	r0, #0
	bne	.LBB1_2
	b	.LBB1_3
.Ltmp151:
.LBB1_26:                               @ %.loopexit
	.loc	43 79 9                 @ /root/Bela/projects/SOFAlizer-for-Bela/bela_sofa.cpp:79:9
	mov	r0, r7
	bl	closedir
	mov	r0, #1
.Ltmp152:
.LBB1_27:
	.loc	43 85 1 discriminator 3 @ /root/Bela/projects/SOFAlizer-for-Bela/bela_sofa.cpp:85:1
	sub	sp, r11, #56
	vpop	{d8}
	vpop	{d10, d11}
	add	sp, sp, #4
	pop	{r4, r5, r6, r7, r8, r9, r10, r11, pc}
.LBB1_28:
.Ltmp153:
	@DEBUG_VALUE: hrtf <- [%R4+0]
	@DEBUG_VALUE: HRTFData:this <- %R4
	@DEBUG_VALUE: _M_data:this <- %R4
	@DEBUG_VALUE: _M_set_length:this <- %R4
	@DEBUG_VALUE: _M_length:this <- %R4
	@DEBUG_VALUE: _M_data:this <- %R4
	@DEBUG_VALUE: _S_copy:__n <- %R8
	@DEBUG_VALUE: assign:__c2 <- %R10
	@DEBUG_VALUE: _S_copy:__s <- %R10
	@DEBUG_VALUE: _S_copy_chars:__k1 <- %R10
	@DEBUG_VALUE: _M_construct<const char *>:__beg <- %R10
	@DEBUG_VALUE: _M_construct_aux<const char *>:__beg <- %R10
	@DEBUG_VALUE: _M_construct<const char *>:__beg <- %R10
	@DEBUG_VALUE: length:__s <- %R10
	@DEBUG_VALUE: basic_string:__s <- %R10
.Ltmp74:
	mov	r4, r0
.Ltmp154:
	.loc	13 160 37               @ /usr/bin/../lib/gcc/arm-linux-gnueabihf/6.3.0/../../../../include/c++/6.3.0/bits/stl_vector.h:160:37
	ldr	r0, [sp, #156]
.Ltmp155:
	@DEBUG_VALUE: _M_deallocate:__p <- %R0
	@DEBUG_VALUE: deallocate:__p <- %R0
	@DEBUG_VALUE: deallocate:__p <- %R0
	.loc	13 177 6                @ /usr/bin/../lib/gcc/arm-linux-gnueabihf/6.3.0/../../../../include/c++/6.3.0/bits/stl_vector.h:177:6
	cmp	r0, #0
	beq	.LBB1_30
.Ltmp156:
@ BB#29:
	@DEBUG_VALUE: deallocate:__p <- %R0
	@DEBUG_VALUE: deallocate:__p <- %R0
	@DEBUG_VALUE: _M_deallocate:__p <- %R0
	@DEBUG_VALUE: _S_copy:__n <- %R8
	@DEBUG_VALUE: assign:__c2 <- %R10
	@DEBUG_VALUE: _S_copy:__s <- %R10
	@DEBUG_VALUE: _S_copy_chars:__k1 <- %R10
	@DEBUG_VALUE: _M_construct<const char *>:__beg <- %R10
	@DEBUG_VALUE: _M_construct_aux<const char *>:__beg <- %R10
	@DEBUG_VALUE: _M_construct<const char *>:__beg <- %R10
	@DEBUG_VALUE: length:__s <- %R10
	@DEBUG_VALUE: basic_string:__s <- %R10
	.loc	9 110 9                 @ /usr/bin/../lib/gcc/arm-linux-gnueabihf/6.3.0/../../../../include/c++/6.3.0/ext/new_allocator.h:110:9
	bl	_ZdlPv
.Ltmp157:
.LBB1_30:                               @ %_ZNSt6vectorIP3FftSaIS1_EED2Ev.exit.i30
	@DEBUG_VALUE: _S_copy:__n <- %R8
	@DEBUG_VALUE: assign:__c2 <- %R10
	@DEBUG_VALUE: _S_copy:__s <- %R10
	@DEBUG_VALUE: _S_copy_chars:__k1 <- %R10
	@DEBUG_VALUE: _M_construct<const char *>:__beg <- %R10
	@DEBUG_VALUE: _M_construct_aux<const char *>:__beg <- %R10
	@DEBUG_VALUE: _M_construct<const char *>:__beg <- %R10
	@DEBUG_VALUE: length:__s <- %R10
	@DEBUG_VALUE: basic_string:__s <- %R10
	.loc	13 160 37               @ /usr/bin/../lib/gcc/arm-linux-gnueabihf/6.3.0/../../../../include/c++/6.3.0/bits/stl_vector.h:160:37
	ldr	r0, [sp, #144]
.Ltmp158:
	@DEBUG_VALUE: _M_deallocate:__p <- %R0
	@DEBUG_VALUE: deallocate:__p <- %R0
	@DEBUG_VALUE: deallocate:__p <- %R0
	.loc	13 177 6                @ /usr/bin/../lib/gcc/arm-linux-gnueabihf/6.3.0/../../../../include/c++/6.3.0/bits/stl_vector.h:177:6
	cmp	r0, #0
	beq	.LBB1_33
	b	.LBB1_34
.Ltmp159:
.LBB1_31:
	@DEBUG_VALUE: _S_copy:__n <- %R8
	@DEBUG_VALUE: assign:__c2 <- %R10
	@DEBUG_VALUE: _S_copy:__s <- %R10
	@DEBUG_VALUE: _S_copy_chars:__k1 <- %R10
	@DEBUG_VALUE: _M_construct<const char *>:__beg <- %R10
	@DEBUG_VALUE: _M_construct_aux<const char *>:__beg <- %R10
	@DEBUG_VALUE: _M_construct<const char *>:__beg <- %R10
	@DEBUG_VALUE: length:__s <- %R10
	@DEBUG_VALUE: basic_string:__s <- %R10
.Ltmp64:
	mov	r4, r0
	b	.LBB1_33
.Ltmp160:
.LBB1_32:
	@DEBUG_VALUE: _M_data:this <- %R4
	@DEBUG_VALUE: _M_set_length:this <- %R4
	@DEBUG_VALUE: _M_length:this <- %R4
	@DEBUG_VALUE: _M_data:this <- %R4
	@DEBUG_VALUE: _S_copy:__n <- %R8
	@DEBUG_VALUE: assign:__c2 <- %R10
	@DEBUG_VALUE: _S_copy:__s <- %R10
	@DEBUG_VALUE: _S_copy_chars:__k1 <- %R10
	@DEBUG_VALUE: _M_construct<const char *>:__beg <- %R10
	@DEBUG_VALUE: _M_construct_aux<const char *>:__beg <- %R10
	@DEBUG_VALUE: _M_construct<const char *>:__beg <- %R10
	@DEBUG_VALUE: length:__s <- %R10
	@DEBUG_VALUE: basic_string:__s <- %R10
.Ltmp67:
	mov	r4, r0
.Ltmp161:
	.loc	5 136 28                @ /usr/bin/../lib/gcc/arm-linux-gnueabihf/6.3.0/../../../../include/c++/6.3.0/bits/basic_string.h:136:28
	ldr	r0, [sp, #24]
.Ltmp162:
	@DEBUG_VALUE: deallocate:__p <- %R0
	@DEBUG_VALUE: deallocate:__p <- %R0
	.loc	5 180 6                 @ /usr/bin/../lib/gcc/arm-linux-gnueabihf/6.3.0/../../../../include/c++/6.3.0/bits/basic_string.h:180:6
	cmp	r0, r9
	bne	.LBB1_34
.Ltmp163:
.LBB1_33:
	@DEBUG_VALUE: _S_copy:__n <- %R8
	@DEBUG_VALUE: assign:__c2 <- %R10
	@DEBUG_VALUE: _S_copy:__s <- %R10
	@DEBUG_VALUE: _S_copy_chars:__k1 <- %R10
	@DEBUG_VALUE: _M_construct<const char *>:__beg <- %R10
	@DEBUG_VALUE: _M_construct_aux<const char *>:__beg <- %R10
	@DEBUG_VALUE: _M_construct<const char *>:__beg <- %R10
	@DEBUG_VALUE: length:__s <- %R10
	@DEBUG_VALUE: basic_string:__s <- %R10
	mov	r0, r4
	mov	lr, pc
	b	_Unwind_Resume
.Ltmp164:
.LBB1_34:
	@DEBUG_VALUE: _S_copy:__n <- %R8
	@DEBUG_VALUE: assign:__c2 <- %R10
	@DEBUG_VALUE: _S_copy:__s <- %R10
	@DEBUG_VALUE: _S_copy_chars:__k1 <- %R10
	@DEBUG_VALUE: _M_construct<const char *>:__beg <- %R10
	@DEBUG_VALUE: _M_construct_aux<const char *>:__beg <- %R10
	@DEBUG_VALUE: _M_construct<const char *>:__beg <- %R10
	@DEBUG_VALUE: length:__s <- %R10
	@DEBUG_VALUE: basic_string:__s <- %R10
	.loc	9 110 9                 @ /usr/bin/../lib/gcc/arm-linux-gnueabihf/6.3.0/../../../../include/c++/6.3.0/ext/new_allocator.h:110:9
	bl	_ZdlPv
	mov	r0, r4
	mov	lr, pc
	b	_Unwind_Resume
.Ltmp165:
.Lfunc_end1:
	.size	_Z19read_hrtfs_from_dirRSt6vectorI8HRTFDataSaIS0_EEPKcfj, .Lfunc_end1-_Z19read_hrtfs_from_dirRSt6vectorI8HRTFDataSaIS0_EEPKcfj
	.cfi_endproc
	.globl	__gxx_personality_v0
	.personality __gxx_personality_v0
	.handlerdata
	.p2align	2
GCC_except_table1:
.Lexception1:
	.byte	255                     @ @LPStart Encoding = omit
	.byte	0                       @ @TType Encoding = absptr
	.asciz	"\320"                  @ @TType base offset
	.byte	3                       @ Call site Encoding = udata4
	.byte	78                      @ Call site table length
	.long	.Lfunc_begin1-.Lfunc_begin1 @ >> Call Site 1 <<
	.long	.Ltmp62-.Lfunc_begin1   @   Call between .Lfunc_begin1 and .Ltmp62
	.long	0                       @     has no landing pad
	.byte	0                       @   On action: cleanup
	.long	.Ltmp62-.Lfunc_begin1   @ >> Call Site 2 <<
	.long	.Ltmp63-.Ltmp62         @   Call between .Ltmp62 and .Ltmp63
	.long	.Ltmp64-.Lfunc_begin1   @     jumps to .Ltmp64
	.byte	0                       @   On action: cleanup
	.long	.Ltmp63-.Lfunc_begin1   @ >> Call Site 3 <<
	.long	.Ltmp65-.Ltmp63         @   Call between .Ltmp63 and .Ltmp65
	.long	0                       @     has no landing pad
	.byte	0                       @   On action: cleanup
	.long	.Ltmp65-.Lfunc_begin1   @ >> Call Site 4 <<
	.long	.Ltmp66-.Ltmp65         @   Call between .Ltmp65 and .Ltmp66
	.long	.Ltmp67-.Lfunc_begin1   @     jumps to .Ltmp67
	.byte	0                       @   On action: cleanup
	.long	.Ltmp68-.Lfunc_begin1   @ >> Call Site 5 <<
	.long	.Ltmp73-.Ltmp68         @   Call between .Ltmp68 and .Ltmp73
	.long	.Ltmp74-.Lfunc_begin1   @     jumps to .Ltmp74
	.byte	0                       @   On action: cleanup
	.long	.Ltmp73-.Lfunc_begin1   @ >> Call Site 6 <<
	.long	.Lfunc_end1-.Ltmp73     @   Call between .Ltmp73 and .Lfunc_end1
	.long	0                       @     has no landing pad
	.byte	0                       @   On action: cleanup
	.p2align	2
	.fnend

	.globl	_ZN8HRTFData9load_sofaEf
	.p2align	2
	.type	_ZN8HRTFData9load_sofaEf,%function
_ZN8HRTFData9load_sofaEf:               @ @_ZN8HRTFData9load_sofaEf
.Lfunc_begin2:
	.loc	43 246 0                @ /root/Bela/projects/SOFAlizer-for-Bela/bela_sofa.cpp:246:0
	.fnstart
	.cfi_startproc
@ BB#0:
	.save	{r4, r5, r6, r7, r8, r9, r10, r11, lr}
	push	{r4, r5, r6, r7, r8, r9, r10, r11, lr}
.Ltmp166:
	.cfi_def_cfa_offset 36
.Ltmp167:
	.cfi_offset lr, -4
.Ltmp168:
	.cfi_offset r11, -8
.Ltmp169:
	.cfi_offset r10, -12
.Ltmp170:
	.cfi_offset r9, -16
.Ltmp171:
	.cfi_offset r8, -20
.Ltmp172:
	.cfi_offset r7, -24
.Ltmp173:
	.cfi_offset r6, -28
.Ltmp174:
	.cfi_offset r5, -32
.Ltmp175:
	.cfi_offset r4, -36
	.setfp	r11, sp, #28
	add	r11, sp, #28
.Ltmp176:
	.cfi_def_cfa r11, 8
	.pad	#4
	sub	sp, sp, #4
	.vsave	{d8}
	vpush	{d8}
.Ltmp177:
	.cfi_offset d8, -48
	.pad	#8
	sub	sp, sp, #8
	@DEBUG_VALUE: load_sofa:this <- %R0
	@DEBUG_VALUE: load_sofa:hwSampleRate <- %S0
	mov	r10, r0
.Ltmp178:
	@DEBUG_VALUE: load_sofa:this <- %R10
	@DEBUG_VALUE: load_sofa:error <- 0
	.loc	43 250 37 prologue_end  @ /root/Bela/projects/SOFAlizer-for-Bela/bela_sofa.cpp:250:37
	add	r1, r10, #116
	vmov.f32	s16, s0
.Ltmp179:
	@DEBUG_VALUE: load_sofa:hwSampleRate <- %S16
	.loc	43 250 14 is_stmt 0     @ /root/Bela/projects/SOFAlizer-for-Bela/bela_sofa.cpp:250:14
	bl	mysofa_load
	.loc	43 250 12               @ /root/Bela/projects/SOFAlizer-for-Bela/bela_sofa.cpp:250:12
	str	r0, [r10, #100]
.Ltmp180:
	.loc	43 254 17 is_stmt 1     @ /root/Bela/projects/SOFAlizer-for-Bela/bela_sofa.cpp:254:17
	bl	mysofa_check
.Ltmp181:
	@DEBUG_VALUE: load_sofa:error <- %R0
	.loc	43 255 13               @ /root/Bela/projects/SOFAlizer-for-Bela/bela_sofa.cpp:255:13
	cmp	r0, #0
	bne	.LBB2_14
.Ltmp182:
@ BB#1:
	@DEBUG_VALUE: load_sofa:error <- %R0
	@DEBUG_VALUE: load_sofa:hwSampleRate <- %S16
	@DEBUG_VALUE: load_sofa:this <- %R10
	.loc	43 282 88 discriminator 3 @ /root/Bela/projects/SOFAlizer-for-Bela/bela_sofa.cpp:282:88
	ldr	r5, [r10, #100]
	mvn	r0, #1
.Ltmp183:
	.loc	43 256 25               @ /root/Bela/projects/SOFAlizer-for-Bela/bela_sofa.cpp:256:25
	ldr	r1, [r5, #8]
.Ltmp184:
	.loc	43 256 17 is_stmt 0     @ /root/Bela/projects/SOFAlizer-for-Bela/bela_sofa.cpp:256:17
	cmp	r1, #2
	bne	.LBB2_14
.Ltmp185:
@ BB#2:
	@DEBUG_VALUE: load_sofa:hwSampleRate <- %S16
	@DEBUG_VALUE: load_sofa:this <- %R10
	.loc	43 264 51 is_stmt 1     @ /root/Bela/projects/SOFAlizer-for-Bela/bela_sofa.cpp:264:51
	ldr	r4, [r5, #56]
	.loc	43 264 21 is_stmt 0     @ /root/Bela/projects/SOFAlizer-for-Bela/bela_sofa.cpp:264:21
	movw	r1, :lower16:.L.str.1
	movt	r1, :upper16:.L.str.1
	.loc	43 264 63               @ /root/Bela/projects/SOFAlizer-for-Bela/bela_sofa.cpp:264:63
	ldr	r0, [r4]
	.loc	43 264 69               @ /root/Bela/projects/SOFAlizer-for-Bela/bela_sofa.cpp:264:69
	ldr	r0, [r0, #8]
	.loc	43 264 21               @ /root/Bela/projects/SOFAlizer-for-Bela/bela_sofa.cpp:264:21
	bl	strcmp
	mvn	r1, #3
.Ltmp186:
	.loc	43 264 21               @ /root/Bela/projects/SOFAlizer-for-Bela/bela_sofa.cpp:264:21
	cmp	r0, #0
	bne	.LBB2_6
.Ltmp187:
@ BB#3:
	@DEBUG_VALUE: load_sofa:hwSampleRate <- %S16
	@DEBUG_VALUE: load_sofa:this <- %R10
	.loc	43 267 67 is_stmt 1     @ /root/Bela/projects/SOFAlizer-for-Bela/bela_sofa.cpp:267:67
	ldr	r6, [r4, #8]
	.loc	43 267 25 is_stmt 0     @ /root/Bela/projects/SOFAlizer-for-Bela/bela_sofa.cpp:267:25
	movw	r1, :lower16:.L.str.2
	movt	r1, :upper16:.L.str.2
	mov	r0, r6
	bl	strcmp
	.loc	43 267 104              @ /root/Bela/projects/SOFAlizer-for-Bela/bela_sofa.cpp:267:104
	cmp	r0, #0
	beq	.LBB2_5
.Ltmp188:
@ BB#4:
	@DEBUG_VALUE: load_sofa:hwSampleRate <- %S16
	@DEBUG_VALUE: load_sofa:this <- %R10
	.loc	43 268 25 is_stmt 1     @ /root/Bela/projects/SOFAlizer-for-Bela/bela_sofa.cpp:268:25
	movw	r1, :lower16:.L.str.3
	mov	r0, r6
	movt	r1, :upper16:.L.str.3
	bl	strcmp
	mvn	r1, #4
.Ltmp189:
	.loc	43 267 25 discriminator 1 @ /root/Bela/projects/SOFAlizer-for-Bela/bela_sofa.cpp:267:25
	cmp	r0, #0
	bne	.LBB2_6
.Ltmp190:
.LBB2_5:
	@DEBUG_VALUE: load_sofa:hwSampleRate <- %S16
	@DEBUG_VALUE: load_sofa:this <- %R10
	.loc	43 269 89               @ /root/Bela/projects/SOFAlizer-for-Bela/bela_sofa.cpp:269:89
	ldr	r1, [r5, #52]
	.loc	43 269 97 is_stmt 0     @ /root/Bela/projects/SOFAlizer-for-Bela/bela_sofa.cpp:269:97
	movw	r2, #43691
	movt	r2, #43690
	.loc	43 269 57               @ /root/Bela/projects/SOFAlizer-for-Bela/bela_sofa.cpp:269:57
	ldr	r0, [r5, #48]
	.loc	43 269 97               @ /root/Bela/projects/SOFAlizer-for-Bela/bela_sofa.cpp:269:97
	umull	r1, r2, r1, r2
	mov	r1, #4
	.loc	43 269 34               @ /root/Bela/projects/SOFAlizer-for-Bela/bela_sofa.cpp:269:34
	orr	r1, r1, r2, lsl #2
	ldr	r0, [r0, r1]
	mov	r1, #0
	.loc	43 269 32               @ /root/Bela/projects/SOFAlizer-for-Bela/bela_sofa.cpp:269:32
	str	r0, [r10, #112]
.Ltmp191:
.LBB2_6:
	@DEBUG_VALUE: load_sofa:hwSampleRate <- %S16
	@DEBUG_VALUE: load_sofa:this <- %R10
	mov	r6, #0
.Ltmp192:
	@DEBUG_VALUE: i <- 0
	str	r1, [sp]                @ 4-byte Spill
	.loc	43 280 40 is_stmt 1     @ /root/Bela/projects/SOFAlizer-for-Bela/bela_sofa.cpp:280:40
	str	r6, [r10, #160]
	str	r5, [sp, #4]            @ 4-byte Spill
.Ltmp193:
	.loc	43 282 73 discriminator 1 @ /root/Bela/projects/SOFAlizer-for-Bela/bela_sofa.cpp:282:73
	ldr	r5, [r5, #52]
	.loc	43 282 17 is_stmt 0 discriminator 1 @ /root/Bela/projects/SOFAlizer-for-Bela/bela_sofa.cpp:282:17
	cmp	r5, #3
	blo	.LBB2_11
.Ltmp194:
@ BB#7:                                 @ %.lr.ph
	@DEBUG_VALUE: load_sofa:hwSampleRate <- %S16
	@DEBUG_VALUE: load_sofa:this <- %R10
	ldr	r0, [sp, #4]            @ 4-byte Reload
.Ltmp195:
	.loc	43 283 63 is_stmt 1     @ /root/Bela/projects/SOFAlizer-for-Bela/bela_sofa.cpp:283:63
	mvn	r9, #-2147483648
.Ltmp196:
	.loc	43 282 96 discriminator 3 @ /root/Bela/projects/SOFAlizer-for-Bela/bela_sofa.cpp:282:96
	ldr	r7, [r0, #4]
.Ltmp197:
	.loc	43 283 48               @ /root/Bela/projects/SOFAlizer-for-Bela/bela_sofa.cpp:283:48
	ldr	r0, [r0, #48]
.Ltmp198:
	.loc	43 282 17 discriminator 1 @ /root/Bela/projects/SOFAlizer-for-Bela/bela_sofa.cpp:282:17
	add	r4, r0, #4
	lsl	r8, r7, #2
.Ltmp199:
.LBB2_8:                                @ =>This Inner Loop Header: Depth=1
	.loc	43 283 25               @ /root/Bela/projects/SOFAlizer-for-Bela/bela_sofa.cpp:283:25
	ldr	r0, [r4, #-4]
	.loc	43 283 63 is_stmt 0     @ /root/Bela/projects/SOFAlizer-for-Bela/bela_sofa.cpp:283:63
	tst	r0, r9
	.loc	43 283 66 discriminator 1 @ /root/Bela/projects/SOFAlizer-for-Bela/bela_sofa.cpp:283:66
	ldreq	r0, [r4]
	.loc	43 283 25 discriminator 1 @ /root/Bela/projects/SOFAlizer-for-Bela/bela_sofa.cpp:283:25
	tsteq	r0, r9
	bne	.LBB2_10
@ BB#9:                                 @   in Loop: Header=BB2_8 Depth=1
.Ltmp200:
	.loc	43 284 52 is_stmt 1     @ /root/Bela/projects/SOFAlizer-for-Bela/bela_sofa.cpp:284:52
	mov	r0, r6
	mov	r1, r7
	bl	__aeabi_uidiv
	.loc	43 284 48 is_stmt 0     @ /root/Bela/projects/SOFAlizer-for-Bela/bela_sofa.cpp:284:48
	str	r0, [r10, #160]
.Ltmp201:
.LBB2_10:                               @   in Loop: Header=BB2_8 Depth=1
	.loc	43 282 48 is_stmt 1 discriminator 1 @ /root/Bela/projects/SOFAlizer-for-Bela/bela_sofa.cpp:282:48
	add	r6, r6, r7
	add	r4, r4, r8
	add	r0, r6, #2
	.loc	43 282 17 is_stmt 0 discriminator 1 @ /root/Bela/projects/SOFAlizer-for-Bela/bela_sofa.cpp:282:17
	cmp	r0, r5
	blo	.LBB2_8
.Ltmp202:
.LBB2_11:                               @ %._crit_edge
	.loc	43 289 17 is_stmt 1     @ /root/Bela/projects/SOFAlizer-for-Bela/bela_sofa.cpp:289:17
	ldr	r0, [sp, #4]            @ 4-byte Reload
	bl	mysofa_tocartesian
	.loc	43 291 47               @ /root/Bela/projects/SOFAlizer-for-Bela/bela_sofa.cpp:291:47
	ldr	r0, [r10, #100]
	.loc	43 291 28 is_stmt 0     @ /root/Bela/projects/SOFAlizer-for-Bela/bela_sofa.cpp:291:28
	bl	mysofa_lookup_init
	mov	r1, r0
	mvn	r0, #2
	.loc	43 291 26               @ /root/Bela/projects/SOFAlizer-for-Bela/bela_sofa.cpp:291:26
	str	r1, [r10, #104]
	.loc	43 292 21 is_stmt 1     @ /root/Bela/projects/SOFAlizer-for-Bela/bela_sofa.cpp:292:21
	cmp	r1, #0
	beq	.LBB2_14
@ BB#12:
.Ltmp203:
	.loc	43 294 63               @ /root/Bela/projects/SOFAlizer-for-Bela/bela_sofa.cpp:294:63
	ldr	r0, [r10, #100]
	.loc	43 294 38 is_stmt 0     @ /root/Bela/projects/SOFAlizer-for-Bela/bela_sofa.cpp:294:38
	bl	mysofa_neighborhood_init
	.loc	43 294 36               @ /root/Bela/projects/SOFAlizer-for-Bela/bela_sofa.cpp:294:36
	str	r0, [r10, #108]
.Ltmp204:
	.loc	43 296 25 is_stmt 1     @ /root/Bela/projects/SOFAlizer-for-Bela/bela_sofa.cpp:296:25
	ldr	r1, [r10, #100]
	.loc	43 296 50 is_stmt 0     @ /root/Bela/projects/SOFAlizer-for-Bela/bela_sofa.cpp:296:50
	ldr	r0, [r1, #108]
	.loc	43 296 25               @ /root/Bela/projects/SOFAlizer-for-Bela/bela_sofa.cpp:296:25
	vldr	s0, [r0]
	ldr	r0, [sp]                @ 4-byte Reload
.Ltmp205:
	.loc	43 296 25               @ /root/Bela/projects/SOFAlizer-for-Bela/bela_sofa.cpp:296:25
	vcmpe.f32	s0, s16
	vmrs	APSR_nzcv, fpscr
	beq	.LBB2_14
@ BB#13:
.Ltmp206:
	.loc	43 297 33 is_stmt 1     @ /root/Bela/projects/SOFAlizer-for-Bela/bela_sofa.cpp:297:33
	mov	r0, r1
	vmov.f32	s0, s16
	sub	sp, r11, #40
	vpop	{d8}
	add	sp, sp, #4
	pop	{r4, r5, r6, r7, r8, r9, r10, r11, lr}
	b	mysofa_resample
.Ltmp207:
.LBB2_14:
	.loc	43 307 5                @ /root/Bela/projects/SOFAlizer-for-Bela/bela_sofa.cpp:307:5
	sub	sp, r11, #40
	vpop	{d8}
	add	sp, sp, #4
	pop	{r4, r5, r6, r7, r8, r9, r10, r11, pc}
.Ltmp208:
.Lfunc_end2:
	.size	_ZN8HRTFData9load_sofaEf, .Lfunc_end2-_ZN8HRTFData9load_sofaEf
	.cfi_endproc
	.fnend

	.globl	_ZN8HRTFDataC2Ev
	.p2align	2
	.type	_ZN8HRTFDataC2Ev,%function
_ZN8HRTFDataC2Ev:                       @ @_ZN8HRTFDataC2Ev
.Lfunc_begin3:
	.loc	43 90 0                 @ /root/Bela/projects/SOFAlizer-for-Bela/bela_sofa.cpp:90:0
	.fnstart
	.cfi_startproc
@ BB#0:
	@DEBUG_VALUE: HRTFData:this <- %R0
	.loc	13 87 34 prologue_end   @ /usr/bin/../lib/gcc/arm-linux-gnueabihf/6.3.0/../../../../include/c++/6.3.0/bits/stl_vector.h:87:34
	mov	r1, #0
	vmov.i32	q8, #0x0
	str	r1, [r0, #136]
	str	r1, [r0, #140]
	.loc	13 87 22 is_stmt 0      @ /usr/bin/../lib/gcc/arm-linux-gnueabihf/6.3.0/../../../../include/c++/6.3.0/bits/stl_vector.h:87:22
	add	r1, r0, #120
	.loc	13 87 34                @ /usr/bin/../lib/gcc/arm-linux-gnueabihf/6.3.0/../../../../include/c++/6.3.0/bits/stl_vector.h:87:34
	vst1.32	{d16, d17}, [r1]
.Ltmp209:
	.loc	43 91 1 is_stmt 1       @ /root/Bela/projects/SOFAlizer-for-Bela/bela_sofa.cpp:91:1
	bx	lr
.Ltmp210:
.Lfunc_end3:
	.size	_ZN8HRTFDataC2Ev, .Lfunc_end3-_ZN8HRTFDataC2Ev
	.cfi_endproc
	.fnend

	.globl	_ZN8HRTFDataC2EPc
	.p2align	2
	.type	_ZN8HRTFDataC2EPc,%function
_ZN8HRTFDataC2EPc:                      @ @_ZN8HRTFDataC2EPc
.Lfunc_begin4:
	.loc	43 98 0                 @ /root/Bela/projects/SOFAlizer-for-Bela/bela_sofa.cpp:98:0
	.fnstart
	.cfi_startproc
@ BB#0:
	.save	{r4, r10, r11, lr}
	push	{r4, r10, r11, lr}
.Ltmp211:
	.cfi_def_cfa_offset 16
.Ltmp212:
	.cfi_offset lr, -4
.Ltmp213:
	.cfi_offset r11, -8
.Ltmp214:
	.cfi_offset r10, -12
.Ltmp215:
	.cfi_offset r4, -16
	.setfp	r11, sp, #8
	add	r11, sp, #8
.Ltmp216:
	.cfi_def_cfa r11, 8
	@DEBUG_VALUE: HRTFData:this <- %R0
	@DEBUG_VALUE: HRTFData:filepath <- %R1
	mov	r4, r0
.Ltmp217:
	@DEBUG_VALUE: HRTFData:this <- %R4
	.loc	13 87 34 prologue_end   @ /usr/bin/../lib/gcc/arm-linux-gnueabihf/6.3.0/../../../../include/c++/6.3.0/bits/stl_vector.h:87:34
	mov	r0, #0
	vmov.i32	q8, #0x0
	str	r0, [r4, #136]
	str	r0, [r4, #140]
	.loc	13 87 22 is_stmt 0      @ /usr/bin/../lib/gcc/arm-linux-gnueabihf/6.3.0/../../../../include/c++/6.3.0/bits/stl_vector.h:87:22
	add	r0, r4, #120
	.loc	13 87 34                @ /usr/bin/../lib/gcc/arm-linux-gnueabihf/6.3.0/../../../../include/c++/6.3.0/bits/stl_vector.h:87:34
	vst1.32	{d16, d17}, [r0]
.Ltmp218:
	.loc	43 99 5 is_stmt 1       @ /root/Bela/projects/SOFAlizer-for-Bela/bela_sofa.cpp:99:5
	mov	r0, r4
	bl	strcpy
.Ltmp219:
	.loc	43 100 1                @ /root/Bela/projects/SOFAlizer-for-Bela/bela_sofa.cpp:100:1
	mov	r0, r4
	pop	{r4, r10, r11, pc}
.Ltmp220:
.Lfunc_end4:
	.size	_ZN8HRTFDataC2EPc, .Lfunc_end4-_ZN8HRTFDataC2EPc
	.cfi_endproc
	.fnend

	.globl	_ZN8HRTFDataD2Ev
	.p2align	2
	.type	_ZN8HRTFDataD2Ev,%function
_ZN8HRTFDataD2Ev:                       @ @_ZN8HRTFDataD2Ev
.Lfunc_begin5:
	.loc	43 105 0                @ /root/Bela/projects/SOFAlizer-for-Bela/bela_sofa.cpp:105:0
	.fnstart
	.cfi_startproc
@ BB#0:
	.save	{r4, r10, r11, lr}
	push	{r4, r10, r11, lr}
.Ltmp221:
	.cfi_def_cfa_offset 16
.Ltmp222:
	.cfi_offset lr, -4
.Ltmp223:
	.cfi_offset r11, -8
.Ltmp224:
	.cfi_offset r10, -12
.Ltmp225:
	.cfi_offset r4, -16
	.setfp	r11, sp, #8
	add	r11, sp, #8
.Ltmp226:
	.cfi_def_cfa r11, 8
	@DEBUG_VALUE: ~HRTFData:this <- %R0
	mov	r4, r0
.Ltmp227:
	@DEBUG_VALUE: ~HRTFData:this <- %R4
	.loc	13 160 37 prologue_end  @ /usr/bin/../lib/gcc/arm-linux-gnueabihf/6.3.0/../../../../include/c++/6.3.0/bits/stl_vector.h:160:37
	ldr	r0, [r4, #132]
.Ltmp228:
	@DEBUG_VALUE: _M_deallocate:__p <- %R0
	@DEBUG_VALUE: deallocate:__p <- %R0
	@DEBUG_VALUE: deallocate:__p <- %R0
	.loc	13 177 6                @ /usr/bin/../lib/gcc/arm-linux-gnueabihf/6.3.0/../../../../include/c++/6.3.0/bits/stl_vector.h:177:6
	cmp	r0, #0
	beq	.LBB5_2
.Ltmp229:
@ BB#1:
	@DEBUG_VALUE: deallocate:__p <- %R0
	@DEBUG_VALUE: deallocate:__p <- %R0
	@DEBUG_VALUE: _M_deallocate:__p <- %R0
	@DEBUG_VALUE: ~HRTFData:this <- %R4
	.loc	9 110 9                 @ /usr/bin/../lib/gcc/arm-linux-gnueabihf/6.3.0/../../../../include/c++/6.3.0/ext/new_allocator.h:110:9
	bl	_ZdlPv
.Ltmp230:
.LBB5_2:                                @ %_ZNSt6vectorIP3FftSaIS1_EED2Ev.exit
	@DEBUG_VALUE: ~HRTFData:this <- %R4
	.loc	13 160 37               @ /usr/bin/../lib/gcc/arm-linux-gnueabihf/6.3.0/../../../../include/c++/6.3.0/bits/stl_vector.h:160:37
	ldr	r0, [r4, #120]
.Ltmp231:
	@DEBUG_VALUE: _M_deallocate:__p <- %R0
	@DEBUG_VALUE: deallocate:__p <- %R0
	@DEBUG_VALUE: deallocate:__p <- %R0
	.loc	13 177 6                @ /usr/bin/../lib/gcc/arm-linux-gnueabihf/6.3.0/../../../../include/c++/6.3.0/bits/stl_vector.h:177:6
	cmp	r0, #0
	beq	.LBB5_4
.Ltmp232:
@ BB#3:
	@DEBUG_VALUE: deallocate:__p <- %R0
	@DEBUG_VALUE: deallocate:__p <- %R0
	@DEBUG_VALUE: _M_deallocate:__p <- %R0
	@DEBUG_VALUE: ~HRTFData:this <- %R4
	.loc	9 110 9                 @ /usr/bin/../lib/gcc/arm-linux-gnueabihf/6.3.0/../../../../include/c++/6.3.0/ext/new_allocator.h:110:9
	bl	_ZdlPv
.Ltmp233:
.LBB5_4:                                @ %_ZNSt6vectorIP3FftSaIS1_EED2Ev.exit1
	@DEBUG_VALUE: ~HRTFData:this <- %R4
	.loc	43 107 1                @ /root/Bela/projects/SOFAlizer-for-Bela/bela_sofa.cpp:107:1
	mov	r0, r4
	pop	{r4, r10, r11, pc}
.Ltmp234:
.Lfunc_end5:
	.size	_ZN8HRTFDataD2Ev, .Lfunc_end5-_ZN8HRTFDataD2Ev
	.cfi_endproc
	.fnend

	.globl	_ZN8HRTFData14allocateFDdataEv
	.p2align	2
	.type	_ZN8HRTFData14allocateFDdataEv,%function
_ZN8HRTFData14allocateFDdataEv:         @ @_ZN8HRTFData14allocateFDdataEv
.Lfunc_begin6:
	.loc	43 118 0                @ /root/Bela/projects/SOFAlizer-for-Bela/bela_sofa.cpp:118:0
	.fnstart
	.cfi_startproc
@ BB#0:
	.save	{r4, r5, r6, r7, r11, lr}
	push	{r4, r5, r6, r7, r11, lr}
.Ltmp235:
	.cfi_def_cfa_offset 24
.Ltmp236:
	.cfi_offset lr, -4
.Ltmp237:
	.cfi_offset r11, -8
.Ltmp238:
	.cfi_offset r7, -12
.Ltmp239:
	.cfi_offset r6, -16
.Ltmp240:
	.cfi_offset r5, -20
.Ltmp241:
	.cfi_offset r4, -24
	.setfp	r11, sp, #16
	add	r11, sp, #16
.Ltmp242:
	.cfi_def_cfa r11, 8
	@DEBUG_VALUE: allocateFDdata:this <- %R0
	mov	r4, r0
.Ltmp243:
	@DEBUG_VALUE: allocateFDdata:this <- %R4
	.loc	43 119 19 prologue_end  @ /root/Bela/projects/SOFAlizer-for-Bela/bela_sofa.cpp:119:19
	mov	r7, #4
	.loc	43 119 35 is_stmt 0     @ /root/Bela/projects/SOFAlizer-for-Bela/bela_sofa.cpp:119:35
	ldr	r6, [r4, #100]
	.loc	43 119 43               @ /root/Bela/projects/SOFAlizer-for-Bela/bela_sofa.cpp:119:43
	ldr	r0, [r6, #20]
	.loc	43 119 19               @ /root/Bela/projects/SOFAlizer-for-Bela/bela_sofa.cpp:119:19
	umull	r0, r1, r0, r7
	cmp	r1, #0
	movwne	r1, #1
	cmp	r1, #0
	mvnne	r0, #0
	.loc	43 119 19 discriminator 1 @ /root/Bela/projects/SOFAlizer-for-Bela/bela_sofa.cpp:119:19
	bl	_Znaj
	mov	r5, r0
	.loc	43 119 17               @ /root/Bela/projects/SOFAlizer-for-Bela/bela_sofa.cpp:119:17
	str	r5, [r4, #144]
	.loc	43 120 43 is_stmt 1     @ /root/Bela/projects/SOFAlizer-for-Bela/bela_sofa.cpp:120:43
	ldr	r0, [r6, #20]
	.loc	43 120 19 is_stmt 0     @ /root/Bela/projects/SOFAlizer-for-Bela/bela_sofa.cpp:120:19
	umull	r0, r1, r0, r7
	cmp	r1, #0
	movwne	r1, #1
	cmp	r1, #0
	mvnne	r0, #0
	.loc	43 120 19 discriminator 1 @ /root/Bela/projects/SOFAlizer-for-Bela/bela_sofa.cpp:120:19
	bl	_Znaj
	.loc	43 120 17               @ /root/Bela/projects/SOFAlizer-for-Bela/bela_sofa.cpp:120:17
	str	r0, [r4, #148]
	.loc	43 121 44 is_stmt 1     @ /root/Bela/projects/SOFAlizer-for-Bela/bela_sofa.cpp:121:44
	ldr	r0, [r6, #20]
	.loc	43 121 20 is_stmt 0     @ /root/Bela/projects/SOFAlizer-for-Bela/bela_sofa.cpp:121:20
	umull	r0, r1, r0, r7
	cmp	r1, #0
	movwne	r1, #1
	cmp	r1, #0
	mvnne	r0, #0
	.loc	43 121 20 discriminator 1 @ /root/Bela/projects/SOFAlizer-for-Bela/bela_sofa.cpp:121:20
	bl	_Znaj
	.loc	43 121 18               @ /root/Bela/projects/SOFAlizer-for-Bela/bela_sofa.cpp:121:18
	str	r0, [r4, #152]
	.loc	43 122 44 is_stmt 1     @ /root/Bela/projects/SOFAlizer-for-Bela/bela_sofa.cpp:122:44
	ldr	r0, [r6, #20]
	.loc	43 122 20 is_stmt 0     @ /root/Bela/projects/SOFAlizer-for-Bela/bela_sofa.cpp:122:20
	umull	r0, r1, r0, r7
	cmp	r1, #0
	movwne	r1, #1
	cmp	r1, #0
	mvnne	r0, #0
	.loc	43 122 20 discriminator 1 @ /root/Bela/projects/SOFAlizer-for-Bela/bela_sofa.cpp:122:20
	bl	_Znaj
	.loc	43 122 18               @ /root/Bela/projects/SOFAlizer-for-Bela/bela_sofa.cpp:122:18
	str	r0, [r4, #156]
.Ltmp244:
	@DEBUG_VALUE: m <- 0
	.loc	43 124 42 is_stmt 1 discriminator 1 @ /root/Bela/projects/SOFAlizer-for-Bela/bela_sofa.cpp:124:42
	ldr	r0, [r6, #20]
	.loc	43 124 5 is_stmt 0 discriminator 1 @ /root/Bela/projects/SOFAlizer-for-Bela/bela_sofa.cpp:124:5
	cmp	r0, #0
.Ltmp245:
	.loc	43 137 1 is_stmt 1      @ /root/Bela/projects/SOFAlizer-for-Bela/bela_sofa.cpp:137:1
	popeq	{r4, r5, r6, r7, r11, pc}
.Ltmp246:
	mov	r6, #0
	b	.LBB6_2
.LBB6_1:                                @ %..lr.ph_crit_edge
                                        @   in Loop: Header=BB6_2 Depth=1
.Ltmp247:
	@DEBUG_VALUE: m <- %R6
	@DEBUG_VALUE: n <- %R5
	.loc	43 125 13               @ /root/Bela/projects/SOFAlizer-for-Bela/bela_sofa.cpp:125:13
	ldr	r5, [r4, #144]
.Ltmp248:
.LBB6_2:                                @ %.lr.ph
                                        @ =>This Loop Header: Depth=1
                                        @     Child Loop BB6_3 Depth 2
	.loc	43 125 30 is_stmt 0     @ /root/Bela/projects/SOFAlizer-for-Bela/bela_sofa.cpp:125:30
	mov	r0, #1024
	bl	_Znaj
	.loc	43 125 28               @ /root/Bela/projects/SOFAlizer-for-Bela/bela_sofa.cpp:125:28
	str	r0, [r5, r6, lsl #2]
	.loc	43 126 30 is_stmt 1     @ /root/Bela/projects/SOFAlizer-for-Bela/bela_sofa.cpp:126:30
	mov	r0, #1024
	bl	_Znaj
	.loc	43 126 13 is_stmt 0     @ /root/Bela/projects/SOFAlizer-for-Bela/bela_sofa.cpp:126:13
	ldr	r1, [r4, #148]
	.loc	43 126 28               @ /root/Bela/projects/SOFAlizer-for-Bela/bela_sofa.cpp:126:28
	str	r0, [r1, r6, lsl #2]
	.loc	43 127 31 is_stmt 1     @ /root/Bela/projects/SOFAlizer-for-Bela/bela_sofa.cpp:127:31
	mov	r0, #1024
	bl	_Znaj
	.loc	43 127 13 is_stmt 0     @ /root/Bela/projects/SOFAlizer-for-Bela/bela_sofa.cpp:127:13
	ldr	r1, [r4, #152]
	.loc	43 127 29               @ /root/Bela/projects/SOFAlizer-for-Bela/bela_sofa.cpp:127:29
	str	r0, [r1, r6, lsl #2]
	.loc	43 128 31 is_stmt 1     @ /root/Bela/projects/SOFAlizer-for-Bela/bela_sofa.cpp:128:31
	mov	r0, #1024
	bl	_Znaj
	.loc	43 128 13 is_stmt 0     @ /root/Bela/projects/SOFAlizer-for-Bela/bela_sofa.cpp:128:13
	ldr	r1, [r4, #156]
	mov	r5, #0
	.loc	43 128 29               @ /root/Bela/projects/SOFAlizer-for-Bela/bela_sofa.cpp:128:29
	str	r0, [r1, r6, lsl #2]
.Ltmp249:
	@DEBUG_VALUE: n <- 0
.LBB6_3:                                @   Parent Loop BB6_2 Depth=1
                                        @ =>  This Inner Loop Header: Depth=2
	.loc	43 131 33 is_stmt 1     @ /root/Bela/projects/SOFAlizer-for-Bela/bela_sofa.cpp:131:33
	mov	r0, #16
	bl	_Znaj
	.loc	43 131 13 is_stmt 0     @ /root/Bela/projects/SOFAlizer-for-Bela/bela_sofa.cpp:131:13
	ldr	r1, [r4, #144]
	ldr	r1, [r1, r6, lsl #2]
	.loc	43 131 31               @ /root/Bela/projects/SOFAlizer-for-Bela/bela_sofa.cpp:131:31
	str	r0, [r1, r5, lsl #2]
	.loc	43 132 33 is_stmt 1     @ /root/Bela/projects/SOFAlizer-for-Bela/bela_sofa.cpp:132:33
	mov	r0, #16
	bl	_Znaj
	.loc	43 132 13 is_stmt 0     @ /root/Bela/projects/SOFAlizer-for-Bela/bela_sofa.cpp:132:13
	ldr	r1, [r4, #148]
	ldr	r1, [r1, r6, lsl #2]
	.loc	43 132 31               @ /root/Bela/projects/SOFAlizer-for-Bela/bela_sofa.cpp:132:31
	str	r0, [r1, r5, lsl #2]
	.loc	43 133 34 is_stmt 1     @ /root/Bela/projects/SOFAlizer-for-Bela/bela_sofa.cpp:133:34
	mov	r0, #16
	bl	_Znaj
	.loc	43 133 13 is_stmt 0     @ /root/Bela/projects/SOFAlizer-for-Bela/bela_sofa.cpp:133:13
	ldr	r1, [r4, #152]
	ldr	r1, [r1, r6, lsl #2]
	.loc	43 133 32               @ /root/Bela/projects/SOFAlizer-for-Bela/bela_sofa.cpp:133:32
	str	r0, [r1, r5, lsl #2]
	.loc	43 134 34 is_stmt 1     @ /root/Bela/projects/SOFAlizer-for-Bela/bela_sofa.cpp:134:34
	mov	r0, #16
	bl	_Znaj
	.loc	43 134 13 is_stmt 0     @ /root/Bela/projects/SOFAlizer-for-Bela/bela_sofa.cpp:134:13
	ldr	r1, [r4, #156]
	ldr	r1, [r1, r6, lsl #2]
	.loc	43 134 32               @ /root/Bela/projects/SOFAlizer-for-Bela/bela_sofa.cpp:134:32
	str	r0, [r1, r5, lsl #2]
.Ltmp250:
	.loc	43 130 56 is_stmt 1 discriminator 3 @ /root/Bela/projects/SOFAlizer-for-Bela/bela_sofa.cpp:130:56
	add	r5, r5, #1
.Ltmp251:
	@DEBUG_VALUE: n <- %R5
	.loc	43 130 9 is_stmt 0 discriminator 1 @ /root/Bela/projects/SOFAlizer-for-Bela/bela_sofa.cpp:130:9
	cmp	r5, #256
	bne	.LBB6_3
.Ltmp252:
@ BB#4:                                 @   in Loop: Header=BB6_2 Depth=1
	@DEBUG_VALUE: n <- %R5
	.loc	43 124 34 is_stmt 1 discriminator 1 @ /root/Bela/projects/SOFAlizer-for-Bela/bela_sofa.cpp:124:34
	ldr	r0, [r4, #100]
	.loc	43 124 46 is_stmt 0 discriminator 3 @ /root/Bela/projects/SOFAlizer-for-Bela/bela_sofa.cpp:124:46
	add	r6, r6, #1
.Ltmp253:
	@DEBUG_VALUE: m <- %R6
	.loc	43 124 42 discriminator 1 @ /root/Bela/projects/SOFAlizer-for-Bela/bela_sofa.cpp:124:42
	ldr	r0, [r0, #20]
	.loc	43 124 5 discriminator 1 @ /root/Bela/projects/SOFAlizer-for-Bela/bela_sofa.cpp:124:5
	cmp	r6, r0
	blo	.LBB6_1
.Ltmp254:
@ BB#5:                                 @ %._crit_edge
	@DEBUG_VALUE: m <- %R6
	@DEBUG_VALUE: n <- %R5
	.loc	43 137 1 is_stmt 1      @ /root/Bela/projects/SOFAlizer-for-Bela/bela_sofa.cpp:137:1
	pop	{r4, r5, r6, r7, r11, pc}
.Ltmp255:
.Lfunc_end6:
	.size	_ZN8HRTFData14allocateFDdataEv, .Lfunc_end6-_ZN8HRTFData14allocateFDdataEv
	.cfi_endproc
	.fnend

	.globl	_ZN8HRTFData16deallocateFDdataEv
	.p2align	2
	.type	_ZN8HRTFData16deallocateFDdataEv,%function
_ZN8HRTFData16deallocateFDdataEv:       @ @_ZN8HRTFData16deallocateFDdataEv
.Lfunc_begin7:
	.loc	43 148 0                @ /root/Bela/projects/SOFAlizer-for-Bela/bela_sofa.cpp:148:0
	.fnstart
	.cfi_startproc
@ BB#0:
	.save	{r4, r5, r6, r10, r11, lr}
	push	{r4, r5, r6, r10, r11, lr}
.Ltmp256:
	.cfi_def_cfa_offset 24
.Ltmp257:
	.cfi_offset lr, -4
.Ltmp258:
	.cfi_offset r11, -8
.Ltmp259:
	.cfi_offset r10, -12
.Ltmp260:
	.cfi_offset r6, -16
.Ltmp261:
	.cfi_offset r5, -20
.Ltmp262:
	.cfi_offset r4, -24
	.setfp	r11, sp, #16
	add	r11, sp, #16
.Ltmp263:
	.cfi_def_cfa r11, 8
	@DEBUG_VALUE: deallocateFDdata:this <- %R0
	mov	r4, r0
.Ltmp264:
	@DEBUG_VALUE: m <- 0
	@DEBUG_VALUE: deallocateFDdata:this <- %R4
	.loc	43 149 34 prologue_end discriminator 1 @ /root/Bela/projects/SOFAlizer-for-Bela/bela_sofa.cpp:149:34
	ldr	r0, [r4, #100]
	.loc	43 149 42 is_stmt 0 discriminator 1 @ /root/Bela/projects/SOFAlizer-for-Bela/bela_sofa.cpp:149:42
	ldr	r0, [r0, #20]
	.loc	43 149 5 discriminator 1 @ /root/Bela/projects/SOFAlizer-for-Bela/bela_sofa.cpp:149:5
	cmp	r0, #0
	beq	.LBB7_21
.Ltmp265:
@ BB#1:                                 @ %.preheader.lr.ph
	@DEBUG_VALUE: deallocateFDdata:this <- %R4
	mov	r5, #0
.Ltmp266:
.LBB7_2:                                @ %.preheader
                                        @ =>This Loop Header: Depth=1
                                        @     Child Loop BB7_3 Depth 2
	.loc	43 151 22 is_stmt 1     @ /root/Bela/projects/SOFAlizer-for-Bela/bela_sofa.cpp:151:22
	ldr	r0, [r4, #144]
	mov	r6, #0
	ldr	r0, [r0, r5, lsl #2]
.LBB7_3:                                @   Parent Loop BB7_2 Depth=1
                                        @ =>  This Inner Loop Header: Depth=2
	ldr	r0, [r0, r6, lsl #2]
	.loc	43 151 13 is_stmt 0     @ /root/Bela/projects/SOFAlizer-for-Bela/bela_sofa.cpp:151:13
	cmp	r0, #0
	beq	.LBB7_5
@ BB#4:                                 @   in Loop: Header=BB7_3 Depth=2
	.loc	43 151 13 discriminator 1 @ /root/Bela/projects/SOFAlizer-for-Bela/bela_sofa.cpp:151:13
	bl	_ZdaPv
.LBB7_5:                                @   in Loop: Header=BB7_3 Depth=2
	.loc	43 152 22 is_stmt 1     @ /root/Bela/projects/SOFAlizer-for-Bela/bela_sofa.cpp:152:22
	ldr	r0, [r4, #148]
	ldr	r0, [r0, r5, lsl #2]
	ldr	r0, [r0, r6, lsl #2]
	.loc	43 152 13 is_stmt 0     @ /root/Bela/projects/SOFAlizer-for-Bela/bela_sofa.cpp:152:13
	cmp	r0, #0
	beq	.LBB7_7
@ BB#6:                                 @   in Loop: Header=BB7_3 Depth=2
	.loc	43 152 13 discriminator 1 @ /root/Bela/projects/SOFAlizer-for-Bela/bela_sofa.cpp:152:13
	bl	_ZdaPv
.LBB7_7:                                @   in Loop: Header=BB7_3 Depth=2
	.loc	43 153 22 is_stmt 1     @ /root/Bela/projects/SOFAlizer-for-Bela/bela_sofa.cpp:153:22
	ldr	r0, [r4, #152]
	ldr	r0, [r0, r5, lsl #2]
	ldr	r0, [r0, r6, lsl #2]
	.loc	43 153 13 is_stmt 0     @ /root/Bela/projects/SOFAlizer-for-Bela/bela_sofa.cpp:153:13
	cmp	r0, #0
	beq	.LBB7_9
@ BB#8:                                 @   in Loop: Header=BB7_3 Depth=2
	.loc	43 153 13 discriminator 1 @ /root/Bela/projects/SOFAlizer-for-Bela/bela_sofa.cpp:153:13
	bl	_ZdaPv
.LBB7_9:                                @   in Loop: Header=BB7_3 Depth=2
	.loc	43 154 22 is_stmt 1     @ /root/Bela/projects/SOFAlizer-for-Bela/bela_sofa.cpp:154:22
	ldr	r0, [r4, #156]
	ldr	r0, [r0, r5, lsl #2]
	ldr	r0, [r0, r6, lsl #2]
	.loc	43 154 13 is_stmt 0     @ /root/Bela/projects/SOFAlizer-for-Bela/bela_sofa.cpp:154:13
	cmp	r0, #0
	beq	.LBB7_11
@ BB#10:                                @   in Loop: Header=BB7_3 Depth=2
	.loc	43 154 13 discriminator 1 @ /root/Bela/projects/SOFAlizer-for-Bela/bela_sofa.cpp:154:13
	bl	_ZdaPv
.LBB7_11:                               @   in Loop: Header=BB7_3 Depth=2
	.loc	43 151 22 is_stmt 1     @ /root/Bela/projects/SOFAlizer-for-Bela/bela_sofa.cpp:151:22
	ldr	r0, [r4, #144]
.Ltmp267:
	.loc	43 150 56 discriminator 3 @ /root/Bela/projects/SOFAlizer-for-Bela/bela_sofa.cpp:150:56
	add	r6, r6, #1
.Ltmp268:
	@DEBUG_VALUE: n <- %R6
	.loc	43 150 9 is_stmt 0 discriminator 1 @ /root/Bela/projects/SOFAlizer-for-Bela/bela_sofa.cpp:150:9
	cmp	r6, #256
.Ltmp269:
	.loc	43 151 22 is_stmt 1     @ /root/Bela/projects/SOFAlizer-for-Bela/bela_sofa.cpp:151:22
	ldr	r0, [r0, r5, lsl #2]
	bne	.LBB7_3
.Ltmp270:
@ BB#12:                                @   in Loop: Header=BB7_2 Depth=1
	@DEBUG_VALUE: n <- %R6
	.loc	43 156 9                @ /root/Bela/projects/SOFAlizer-for-Bela/bela_sofa.cpp:156:9
	cmp	r0, #0
	beq	.LBB7_14
.Ltmp271:
@ BB#13:                                @   in Loop: Header=BB7_2 Depth=1
	@DEBUG_VALUE: n <- %R6
	.loc	43 156 9 is_stmt 0 discriminator 1 @ /root/Bela/projects/SOFAlizer-for-Bela/bela_sofa.cpp:156:9
	bl	_ZdaPv
.Ltmp272:
.LBB7_14:                               @   in Loop: Header=BB7_2 Depth=1
	@DEBUG_VALUE: n <- %R6
	.loc	43 157 18 is_stmt 1     @ /root/Bela/projects/SOFAlizer-for-Bela/bela_sofa.cpp:157:18
	ldr	r0, [r4, #148]
	ldr	r0, [r0, r5, lsl #2]
	.loc	43 157 9 is_stmt 0      @ /root/Bela/projects/SOFAlizer-for-Bela/bela_sofa.cpp:157:9
	cmp	r0, #0
	beq	.LBB7_16
.Ltmp273:
@ BB#15:                                @   in Loop: Header=BB7_2 Depth=1
	@DEBUG_VALUE: n <- %R6
	.loc	43 157 9 discriminator 1 @ /root/Bela/projects/SOFAlizer-for-Bela/bela_sofa.cpp:157:9
	bl	_ZdaPv
.Ltmp274:
.LBB7_16:                               @   in Loop: Header=BB7_2 Depth=1
	@DEBUG_VALUE: n <- %R6
	.loc	43 158 18 is_stmt 1     @ /root/Bela/projects/SOFAlizer-for-Bela/bela_sofa.cpp:158:18
	ldr	r0, [r4, #152]
	ldr	r0, [r0, r5, lsl #2]
	.loc	43 158 9 is_stmt 0      @ /root/Bela/projects/SOFAlizer-for-Bela/bela_sofa.cpp:158:9
	cmp	r0, #0
	beq	.LBB7_18
.Ltmp275:
@ BB#17:                                @   in Loop: Header=BB7_2 Depth=1
	@DEBUG_VALUE: n <- %R6
	.loc	43 158 9 discriminator 1 @ /root/Bela/projects/SOFAlizer-for-Bela/bela_sofa.cpp:158:9
	bl	_ZdaPv
.Ltmp276:
.LBB7_18:                               @   in Loop: Header=BB7_2 Depth=1
	@DEBUG_VALUE: n <- %R6
	.loc	43 159 18 is_stmt 1     @ /root/Bela/projects/SOFAlizer-for-Bela/bela_sofa.cpp:159:18
	ldr	r0, [r4, #156]
	ldr	r0, [r0, r5, lsl #2]
	.loc	43 159 9 is_stmt 0      @ /root/Bela/projects/SOFAlizer-for-Bela/bela_sofa.cpp:159:9
	cmp	r0, #0
	beq	.LBB7_20
.Ltmp277:
@ BB#19:                                @   in Loop: Header=BB7_2 Depth=1
	@DEBUG_VALUE: n <- %R6
	.loc	43 159 9 discriminator 1 @ /root/Bela/projects/SOFAlizer-for-Bela/bela_sofa.cpp:159:9
	bl	_ZdaPv
.Ltmp278:
.LBB7_20:                               @   in Loop: Header=BB7_2 Depth=1
	@DEBUG_VALUE: n <- %R6
	.loc	43 149 34 is_stmt 1 discriminator 1 @ /root/Bela/projects/SOFAlizer-for-Bela/bela_sofa.cpp:149:34
	ldr	r0, [r4, #100]
	.loc	43 149 46 is_stmt 0 discriminator 3 @ /root/Bela/projects/SOFAlizer-for-Bela/bela_sofa.cpp:149:46
	add	r5, r5, #1
.Ltmp279:
	@DEBUG_VALUE: m <- %R5
	.loc	43 149 42 discriminator 1 @ /root/Bela/projects/SOFAlizer-for-Bela/bela_sofa.cpp:149:42
	ldr	r0, [r0, #20]
	.loc	43 149 5 discriminator 1 @ /root/Bela/projects/SOFAlizer-for-Bela/bela_sofa.cpp:149:5
	cmp	r5, r0
	blo	.LBB7_2
.Ltmp280:
.LBB7_21:                               @ %._crit_edge
	.loc	43 161 14 is_stmt 1     @ /root/Bela/projects/SOFAlizer-for-Bela/bela_sofa.cpp:161:14
	ldr	r0, [r4, #144]
	.loc	43 161 5 is_stmt 0      @ /root/Bela/projects/SOFAlizer-for-Bela/bela_sofa.cpp:161:5
	cmp	r0, #0
	beq	.LBB7_23
@ BB#22:
	.loc	43 161 5 discriminator 1 @ /root/Bela/projects/SOFAlizer-for-Bela/bela_sofa.cpp:161:5
	bl	_ZdaPv
.LBB7_23:
	.loc	43 162 14 is_stmt 1     @ /root/Bela/projects/SOFAlizer-for-Bela/bela_sofa.cpp:162:14
	ldr	r0, [r4, #148]
	.loc	43 162 5 is_stmt 0      @ /root/Bela/projects/SOFAlizer-for-Bela/bela_sofa.cpp:162:5
	cmp	r0, #0
	beq	.LBB7_25
@ BB#24:
	.loc	43 162 5 discriminator 1 @ /root/Bela/projects/SOFAlizer-for-Bela/bela_sofa.cpp:162:5
	bl	_ZdaPv
.LBB7_25:
	.loc	43 163 14 is_stmt 1     @ /root/Bela/projects/SOFAlizer-for-Bela/bela_sofa.cpp:163:14
	ldr	r0, [r4, #152]
	.loc	43 163 5 is_stmt 0      @ /root/Bela/projects/SOFAlizer-for-Bela/bela_sofa.cpp:163:5
	cmp	r0, #0
	beq	.LBB7_27
@ BB#26:
	.loc	43 163 5 discriminator 1 @ /root/Bela/projects/SOFAlizer-for-Bela/bela_sofa.cpp:163:5
	bl	_ZdaPv
.LBB7_27:
	.loc	43 164 14 is_stmt 1     @ /root/Bela/projects/SOFAlizer-for-Bela/bela_sofa.cpp:164:14
	ldr	r0, [r4, #156]
	.loc	43 164 5 is_stmt 0      @ /root/Bela/projects/SOFAlizer-for-Bela/bela_sofa.cpp:164:5
	cmp	r0, #0
	.loc	43 165 1 is_stmt 1      @ /root/Bela/projects/SOFAlizer-for-Bela/bela_sofa.cpp:165:1
	popeq	{r4, r5, r6, r10, r11, pc}
	.loc	43 164 5 discriminator 1 @ /root/Bela/projects/SOFAlizer-for-Bela/bela_sofa.cpp:164:5
	pop	{r4, r5, r6, r10, r11, lr}
	b	_ZdaPv
.Ltmp281:
.Lfunc_end7:
	.size	_ZN8HRTFData16deallocateFDdataEv, .Lfunc_end7-_ZN8HRTFData16deallocateFDdataEv
	.cfi_endproc
	.fnend

	.globl	_ZN8HRTFData17prepareNeonFDdataEv
	.p2align	2
	.type	_ZN8HRTFData17prepareNeonFDdataEv,%function
_ZN8HRTFData17prepareNeonFDdataEv:      @ @_ZN8HRTFData17prepareNeonFDdataEv
.Lfunc_begin8:
	.loc	43 184 0                @ /root/Bela/projects/SOFAlizer-for-Bela/bela_sofa.cpp:184:0
	.fnstart
	.cfi_startproc
@ BB#0:
	.save	{r4, r5, r6, r7, r8, r9, r10, r11, lr}
	push	{r4, r5, r6, r7, r8, r9, r10, r11, lr}
.Ltmp282:
	.cfi_def_cfa_offset 36
.Ltmp283:
	.cfi_offset lr, -4
.Ltmp284:
	.cfi_offset r11, -8
.Ltmp285:
	.cfi_offset r10, -12
.Ltmp286:
	.cfi_offset r9, -16
.Ltmp287:
	.cfi_offset r8, -20
.Ltmp288:
	.cfi_offset r7, -24
.Ltmp289:
	.cfi_offset r6, -28
.Ltmp290:
	.cfi_offset r5, -32
.Ltmp291:
	.cfi_offset r4, -36
	.pad	#32
	sub	sp, sp, #32
.Ltmp292:
	.cfi_def_cfa_offset 68
	@DEBUG_VALUE: prepareNeonFDdata:this <- %R0
.Ltmp293:
	@DEBUG_VALUE: prepareNeonFDdata:cnt <- 0
	@DEBUG_VALUE: m <- 0
	.loc	43 186 34 prologue_end discriminator 1 @ /root/Bela/projects/SOFAlizer-for-Bela/bela_sofa.cpp:186:34
	ldr	r1, [r0, #100]
	.loc	43 186 42 is_stmt 0 discriminator 1 @ /root/Bela/projects/SOFAlizer-for-Bela/bela_sofa.cpp:186:42
	ldr	r1, [r1, #20]
	str	r1, [sp, #24]           @ 4-byte Spill
	.loc	43 186 5 discriminator 1 @ /root/Bela/projects/SOFAlizer-for-Bela/bela_sofa.cpp:186:5
	cmp	r1, #0
	beq	.LBB8_5
.Ltmp294:
@ BB#1:                                 @ %.preheader.lr.ph
	@DEBUG_VALUE: prepareNeonFDdata:this <- %R0
	.loc	13 781 32 is_stmt 1     @ /usr/bin/../lib/gcc/arm-linux-gnueabihf/6.3.0/../../../../include/c++/6.3.0/bits/stl_vector.h:781:32
	ldr	r1, [r0, #120]
.Ltmp295:
	.loc	13 781 32 is_stmt 0     @ /usr/bin/../lib/gcc/arm-linux-gnueabihf/6.3.0/../../../../include/c++/6.3.0/bits/stl_vector.h:781:32
	str	r1, [sp, #20]           @ 4-byte Spill
	ldr	r1, [r0, #132]
.Ltmp296:
	.loc	43 189 13 is_stmt 1     @ /root/Bela/projects/SOFAlizer-for-Bela/bela_sofa.cpp:189:13
	str	r1, [sp, #16]           @ 4-byte Spill
	ldr	r1, [r0, #144]
	.loc	43 194 13               @ /root/Bela/projects/SOFAlizer-for-Bela/bela_sofa.cpp:194:13
	str	r1, [sp, #12]           @ 4-byte Spill
	ldr	r1, [r0, #148]
	.loc	43 199 13               @ /root/Bela/projects/SOFAlizer-for-Bela/bela_sofa.cpp:199:13
	str	r1, [sp, #8]            @ 4-byte Spill
	ldr	r1, [r0, #152]
	.loc	43 204 13               @ /root/Bela/projects/SOFAlizer-for-Bela/bela_sofa.cpp:204:13
	str	r1, [sp, #4]            @ 4-byte Spill
	mov	r1, #0
	ldr	r0, [r0, #156]
.Ltmp297:
	str	r0, [sp]                @ 4-byte Spill
.LBB8_2:                                @ %.preheader
                                        @ =>This Loop Header: Depth=1
                                        @     Child Loop BB8_3 Depth 2
.Ltmp298:
	@DEBUG_VALUE: operator[]:__n <- %R1
	ldr	r0, [sp]                @ 4-byte Reload
	mov	r12, #8
	mov	lr, #0
	ldr	r11, [r0, r1, lsl #2]
	.loc	43 199 13               @ /root/Bela/projects/SOFAlizer-for-Bela/bela_sofa.cpp:199:13
	ldr	r0, [sp, #4]            @ 4-byte Reload
	ldr	r7, [r0, r1, lsl #2]
	.loc	43 189 36               @ /root/Bela/projects/SOFAlizer-for-Bela/bela_sofa.cpp:189:36
	ldr	r0, [sp, #20]           @ 4-byte Reload
	ldr	r4, [r0, r1, lsl #2]
.Ltmp299:
	@DEBUG_VALUE: fdr:this <- %R4
	@DEBUG_VALUE: fdr:this <- %R4
	@DEBUG_VALUE: fdr:this <- %R4
	@DEBUG_VALUE: fdr:this <- %R4
	@DEBUG_VALUE: fdi:this <- %R4
	@DEBUG_VALUE: fdi:this <- %R4
	@DEBUG_VALUE: fdi:this <- %R4
	@DEBUG_VALUE: fdi:this <- %R4
	.loc	43 199 37               @ /root/Bela/projects/SOFAlizer-for-Bela/bela_sofa.cpp:199:37
	ldr	r0, [sp, #16]           @ 4-byte Reload
	ldr	r3, [r0, r1, lsl #2]
.Ltmp300:
	@DEBUG_VALUE: fdr:this <- %R3
	@DEBUG_VALUE: fdr:this <- %R3
	@DEBUG_VALUE: fdr:this <- %R3
	@DEBUG_VALUE: fdr:this <- %R3
	@DEBUG_VALUE: fdi:this <- %R3
	@DEBUG_VALUE: fdi:this <- %R3
	@DEBUG_VALUE: fdi:this <- %R3
	@DEBUG_VALUE: fdi:this <- %R3
	.loc	43 194 13               @ /root/Bela/projects/SOFAlizer-for-Bela/bela_sofa.cpp:194:13
	ldr	r0, [sp, #8]            @ 4-byte Reload
	ldr	r2, [r0, r1, lsl #2]
	.loc	43 189 13               @ /root/Bela/projects/SOFAlizer-for-Bela/bela_sofa.cpp:189:13
	ldr	r0, [sp, #12]           @ 4-byte Reload
	str	r1, [sp, #28]           @ 4-byte Spill
.Ltmp301:
	@DEBUG_VALUE: operator[]:__n <- [%SP+28]
	.loc	7 50 38                 @ /root/Bela/projects/SOFAlizer-for-Bela/fft.h:50:38
	ldr	r3, [r3, #4]
.Ltmp302:
	.loc	43 189 13               @ /root/Bela/projects/SOFAlizer-for-Bela/bela_sofa.cpp:189:13
	ldr	r1, [r0, r1, lsl #2]
.Ltmp303:
	.loc	7 50 38                 @ /root/Bela/projects/SOFAlizer-for-Bela/fft.h:50:38
	ldr	r4, [r4, #4]
.Ltmp304:
.LBB8_3:                                @   Parent Loop BB8_2 Depth=1
                                        @ =>  This Inner Loop Header: Depth=2
	.loc	43 189 50               @ /root/Bela/projects/SOFAlizer-for-Bela/bela_sofa.cpp:189:50
	add	r9, r4, r12
	.loc	43 189 13 is_stmt 0     @ /root/Bela/projects/SOFAlizer-for-Bela/bela_sofa.cpp:189:13
	ldr	r8, [r1, lr]
	.loc	43 194 52 is_stmt 1     @ /root/Bela/projects/SOFAlizer-for-Bela/bela_sofa.cpp:194:52
	add	r5, r4, lr, lsl #2
	.loc	43 189 50               @ /root/Bela/projects/SOFAlizer-for-Bela/bela_sofa.cpp:189:50
	ldr	r10, [r9, #-8]
	.loc	43 189 34 is_stmt 0     @ /root/Bela/projects/SOFAlizer-for-Bela/bela_sofa.cpp:189:34
	str	r10, [r8]
	.loc	43 190 50 is_stmt 1     @ /root/Bela/projects/SOFAlizer-for-Bela/bela_sofa.cpp:190:50
	ldr	r0, [r9, #-8]
	.loc	43 190 34 is_stmt 0     @ /root/Bela/projects/SOFAlizer-for-Bela/bela_sofa.cpp:190:34
	str	r0, [r8, #4]
	.loc	43 191 50 is_stmt 1     @ /root/Bela/projects/SOFAlizer-for-Bela/bela_sofa.cpp:191:50
	ldr	r0, [r4, r12]
	.loc	43 191 34 is_stmt 0     @ /root/Bela/projects/SOFAlizer-for-Bela/bela_sofa.cpp:191:34
	str	r0, [r8, #8]
	.loc	43 192 50 is_stmt 1     @ /root/Bela/projects/SOFAlizer-for-Bela/bela_sofa.cpp:192:50
	ldr	r0, [r4, r12]
	.loc	43 192 34 is_stmt 0     @ /root/Bela/projects/SOFAlizer-for-Bela/bela_sofa.cpp:192:34
	str	r0, [r8, #12]
	.loc	43 194 52 is_stmt 1     @ /root/Bela/projects/SOFAlizer-for-Bela/bela_sofa.cpp:194:52
	vldr	s0, [r5, #4]
	.loc	43 194 13 is_stmt 0     @ /root/Bela/projects/SOFAlizer-for-Bela/bela_sofa.cpp:194:13
	ldr	r0, [r2, lr]
	.loc	43 194 36               @ /root/Bela/projects/SOFAlizer-for-Bela/bela_sofa.cpp:194:36
	vneg.f32	d0, d0
	.loc	43 194 34               @ /root/Bela/projects/SOFAlizer-for-Bela/bela_sofa.cpp:194:34
	vstr	s0, [r0]
	.loc	43 195 50 is_stmt 1     @ /root/Bela/projects/SOFAlizer-for-Bela/bela_sofa.cpp:195:50
	ldr	r6, [r5, #4]
	.loc	43 195 34 is_stmt 0     @ /root/Bela/projects/SOFAlizer-for-Bela/bela_sofa.cpp:195:34
	str	r6, [r0, #4]
	.loc	43 196 52 is_stmt 1     @ /root/Bela/projects/SOFAlizer-for-Bela/bela_sofa.cpp:196:52
	vldr	s0, [r5, #12]
	.loc	43 196 36 is_stmt 0     @ /root/Bela/projects/SOFAlizer-for-Bela/bela_sofa.cpp:196:36
	vneg.f32	d0, d0
	.loc	43 196 34               @ /root/Bela/projects/SOFAlizer-for-Bela/bela_sofa.cpp:196:34
	vstr	s0, [r0, #8]
	.loc	43 197 50 is_stmt 1     @ /root/Bela/projects/SOFAlizer-for-Bela/bela_sofa.cpp:197:50
	ldr	r5, [r5, #12]
	.loc	43 197 34 is_stmt 0     @ /root/Bela/projects/SOFAlizer-for-Bela/bela_sofa.cpp:197:34
	str	r5, [r0, #12]
	.loc	43 199 52 is_stmt 1     @ /root/Bela/projects/SOFAlizer-for-Bela/bela_sofa.cpp:199:52
	add	r5, r3, r12
	.loc	43 199 13 is_stmt 0     @ /root/Bela/projects/SOFAlizer-for-Bela/bela_sofa.cpp:199:13
	ldr	r0, [r7, lr]
	.loc	43 199 52               @ /root/Bela/projects/SOFAlizer-for-Bela/bela_sofa.cpp:199:52
	ldr	r6, [r5, #-8]
	.loc	43 199 35               @ /root/Bela/projects/SOFAlizer-for-Bela/bela_sofa.cpp:199:35
	str	r6, [r0]
	.loc	43 200 52 is_stmt 1     @ /root/Bela/projects/SOFAlizer-for-Bela/bela_sofa.cpp:200:52
	ldr	r5, [r5, #-8]
	.loc	43 200 35 is_stmt 0     @ /root/Bela/projects/SOFAlizer-for-Bela/bela_sofa.cpp:200:35
	str	r5, [r0, #4]
	.loc	43 201 52 is_stmt 1     @ /root/Bela/projects/SOFAlizer-for-Bela/bela_sofa.cpp:201:52
	ldr	r5, [r3, r12]
	.loc	43 201 35 is_stmt 0     @ /root/Bela/projects/SOFAlizer-for-Bela/bela_sofa.cpp:201:35
	str	r5, [r0, #8]
	.loc	43 202 52 is_stmt 1     @ /root/Bela/projects/SOFAlizer-for-Bela/bela_sofa.cpp:202:52
	ldr	r5, [r3, r12]
.Ltmp305:
	.loc	43 187 9 discriminator 1 @ /root/Bela/projects/SOFAlizer-for-Bela/bela_sofa.cpp:187:9
	add	r12, r12, #16
.Ltmp306:
	.loc	43 202 35               @ /root/Bela/projects/SOFAlizer-for-Bela/bela_sofa.cpp:202:35
	str	r5, [r0, #12]
	.loc	43 204 54               @ /root/Bela/projects/SOFAlizer-for-Bela/bela_sofa.cpp:204:54
	add	r5, r3, lr, lsl #2
	.loc	43 204 13 is_stmt 0     @ /root/Bela/projects/SOFAlizer-for-Bela/bela_sofa.cpp:204:13
	ldr	r0, [r11, lr]
.Ltmp307:
	.loc	43 187 9 is_stmt 1 discriminator 1 @ /root/Bela/projects/SOFAlizer-for-Bela/bela_sofa.cpp:187:9
	add	lr, lr, #4
.Ltmp308:
	.loc	43 204 54               @ /root/Bela/projects/SOFAlizer-for-Bela/bela_sofa.cpp:204:54
	vldr	s0, [r5, #4]
.Ltmp309:
	.loc	43 187 9 discriminator 1 @ /root/Bela/projects/SOFAlizer-for-Bela/bela_sofa.cpp:187:9
	cmp	lr, #1024
.Ltmp310:
	.loc	43 204 37               @ /root/Bela/projects/SOFAlizer-for-Bela/bela_sofa.cpp:204:37
	vneg.f32	d0, d0
	.loc	43 204 35 is_stmt 0     @ /root/Bela/projects/SOFAlizer-for-Bela/bela_sofa.cpp:204:35
	vstr	s0, [r0]
	.loc	43 205 52 is_stmt 1     @ /root/Bela/projects/SOFAlizer-for-Bela/bela_sofa.cpp:205:52
	ldr	r6, [r5, #4]
	.loc	43 205 35 is_stmt 0     @ /root/Bela/projects/SOFAlizer-for-Bela/bela_sofa.cpp:205:35
	str	r6, [r0, #4]
	.loc	43 206 54 is_stmt 1     @ /root/Bela/projects/SOFAlizer-for-Bela/bela_sofa.cpp:206:54
	vldr	s0, [r5, #12]
	.loc	43 206 37 is_stmt 0     @ /root/Bela/projects/SOFAlizer-for-Bela/bela_sofa.cpp:206:37
	vneg.f32	d0, d0
	.loc	43 206 35               @ /root/Bela/projects/SOFAlizer-for-Bela/bela_sofa.cpp:206:35
	vstr	s0, [r0, #8]
	.loc	43 207 52 is_stmt 1     @ /root/Bela/projects/SOFAlizer-for-Bela/bela_sofa.cpp:207:52
	ldr	r5, [r5, #12]
	.loc	43 207 35 is_stmt 0     @ /root/Bela/projects/SOFAlizer-for-Bela/bela_sofa.cpp:207:35
	str	r5, [r0, #12]
.Ltmp311:
	.loc	43 187 9 is_stmt 1 discriminator 1 @ /root/Bela/projects/SOFAlizer-for-Bela/bela_sofa.cpp:187:9
	bne	.LBB8_3
.Ltmp312:
@ BB#4:                                 @   in Loop: Header=BB8_2 Depth=1
	@DEBUG_VALUE: prepareNeonFDdata:cnt <- 0
	ldr	r1, [sp, #28]           @ 4-byte Reload
	.loc	43 186 5 discriminator 1 @ /root/Bela/projects/SOFAlizer-for-Bela/bela_sofa.cpp:186:5
	ldr	r0, [sp, #24]           @ 4-byte Reload
	.loc	43 186 46 is_stmt 0 discriminator 3 @ /root/Bela/projects/SOFAlizer-for-Bela/bela_sofa.cpp:186:46
	add	r1, r1, #1
.Ltmp313:
	@DEBUG_VALUE: m <- %R1
	.loc	43 186 5 discriminator 1 @ /root/Bela/projects/SOFAlizer-for-Bela/bela_sofa.cpp:186:5
	cmp	r1, r0
	blo	.LBB8_2
.Ltmp314:
.LBB8_5:                                @ %._crit_edge
	.loc	43 214 1 is_stmt 1      @ /root/Bela/projects/SOFAlizer-for-Bela/bela_sofa.cpp:214:1
	add	sp, sp, #32
	pop	{r4, r5, r6, r7, r8, r9, r10, r11, pc}
.Ltmp315:
.Lfunc_end8:
	.size	_ZN8HRTFData17prepareNeonFDdataEv, .Lfunc_end8-_ZN8HRTFData17prepareNeonFDdataEv
	.cfi_endproc
	.fnend

	.globl	_ZN8HRTFData11freeFFTdataEv
	.p2align	2
	.type	_ZN8HRTFData11freeFFTdataEv,%function
_ZN8HRTFData11freeFFTdataEv:            @ @_ZN8HRTFData11freeFFTdataEv
.Lfunc_begin9:
	.loc	43 219 0                @ /root/Bela/projects/SOFAlizer-for-Bela/bela_sofa.cpp:219:0
	.fnstart
	.cfi_startproc
@ BB#0:
	.save	{r4, r5, r6, r10, r11, lr}
	push	{r4, r5, r6, r10, r11, lr}
.Ltmp322:
	.cfi_def_cfa_offset 24
.Ltmp323:
	.cfi_offset lr, -4
.Ltmp324:
	.cfi_offset r11, -8
.Ltmp325:
	.cfi_offset r10, -12
.Ltmp326:
	.cfi_offset r6, -16
.Ltmp327:
	.cfi_offset r5, -20
.Ltmp328:
	.cfi_offset r4, -24
	.setfp	r11, sp, #16
	add	r11, sp, #16
.Ltmp329:
	.cfi_def_cfa r11, 8
	@DEBUG_VALUE: freeFFTdata:this <- %R0
	mov	r4, r0
.Ltmp330:
	@DEBUG_VALUE: i <- 0
	@DEBUG_VALUE: freeFFTdata:this <- %R4
	.loc	13 656 66 prologue_end  @ /usr/bin/../lib/gcc/arm-linux-gnueabihf/6.3.0/../../../../include/c++/6.3.0/bits/stl_vector.h:656:66
	ldr	r1, [r4, #120]
	.loc	13 656 40 is_stmt 0     @ /usr/bin/../lib/gcc/arm-linux-gnueabihf/6.3.0/../../../../include/c++/6.3.0/bits/stl_vector.h:656:40
	ldr	r0, [r4, #124]
.Ltmp331:
	.loc	43 224 5 is_stmt 1 discriminator 1 @ /root/Bela/projects/SOFAlizer-for-Bela/bela_sofa.cpp:224:5
	cmp	r0, r1
	beq	.LBB9_9
.Ltmp332:
@ BB#1:                                 @ %.lr.ph
	@DEBUG_VALUE: freeFFTdata:this <- %R4
	mov	r6, #0
	mov	r0, r1
.Ltmp333:
.LBB9_2:                                @ =>This Inner Loop Header: Depth=1
	@DEBUG_VALUE: operator[]:__n <- %R6
	.loc	43 225 9                @ /root/Bela/projects/SOFAlizer-for-Bela/bela_sofa.cpp:225:9
	ldr	r0, [r0, r6, lsl #2]
	.loc	43 225 23 is_stmt 0 discriminator 1 @ /root/Bela/projects/SOFAlizer-for-Bela/bela_sofa.cpp:225:23
	bl	_ZN3Fft7cleanupEv
.Ltmp334:
	.loc	13 781 32 is_stmt 1     @ /usr/bin/../lib/gcc/arm-linux-gnueabihf/6.3.0/../../../../include/c++/6.3.0/bits/stl_vector.h:781:32
	ldr	r0, [r4, #132]
.Ltmp335:
	.loc	43 226 9                @ /root/Bela/projects/SOFAlizer-for-Bela/bela_sofa.cpp:226:9
	ldr	r0, [r0, r6, lsl #2]
	.loc	43 226 24 is_stmt 0 discriminator 1 @ /root/Bela/projects/SOFAlizer-for-Bela/bela_sofa.cpp:226:24
	bl	_ZN3Fft7cleanupEv
.Ltmp336:
	.loc	13 781 32 is_stmt 1     @ /usr/bin/../lib/gcc/arm-linux-gnueabihf/6.3.0/../../../../include/c++/6.3.0/bits/stl_vector.h:781:32
	ldr	r0, [r4, #120]
.Ltmp337:
	.loc	43 227 16               @ /root/Bela/projects/SOFAlizer-for-Bela/bela_sofa.cpp:227:16
	ldr	r5, [r0, r6, lsl #2]
.Ltmp338:
	@DEBUG_VALUE: ~Fft:this <- %R5
	.loc	43 227 9 is_stmt 0      @ /root/Bela/projects/SOFAlizer-for-Bela/bela_sofa.cpp:227:9
	cmp	r5, #0
	beq	.LBB9_5
.Ltmp339:
@ BB#3:                                 @   in Loop: Header=BB9_2 Depth=1
	@DEBUG_VALUE: ~Fft:this <- %R5
	@DEBUG_VALUE: operator[]:__n <- %R6
	.loc	7 23 10 is_stmt 1       @ /root/Bela/projects/SOFAlizer-for-Bela/fft.h:23:10
.Ltmp316:
	mov	r0, r5
	bl	_ZN3Fft7cleanupEv
.Ltmp317:
.Ltmp340:
@ BB#4:                                 @ %_ZN3FftD2Ev.exit7
                                        @   in Loop: Header=BB9_2 Depth=1
	@DEBUG_VALUE: ~Fft:this <- %R5
	@DEBUG_VALUE: operator[]:__n <- %R6
	.loc	43 227 9 discriminator 2 @ /root/Bela/projects/SOFAlizer-for-Bela/bela_sofa.cpp:227:9
	mov	r0, r5
	bl	_ZdlPv
.Ltmp341:
.LBB9_5:                                @   in Loop: Header=BB9_2 Depth=1
	@DEBUG_VALUE: ~Fft:this <- %R5
	@DEBUG_VALUE: operator[]:__n <- %R6
	.loc	13 781 32               @ /usr/bin/../lib/gcc/arm-linux-gnueabihf/6.3.0/../../../../include/c++/6.3.0/bits/stl_vector.h:781:32
	ldr	r0, [r4, #132]
.Ltmp342:
	.loc	43 228 16               @ /root/Bela/projects/SOFAlizer-for-Bela/bela_sofa.cpp:228:16
	ldr	r5, [r0, r6, lsl #2]
.Ltmp343:
	@DEBUG_VALUE: ~Fft:this <- %R5
	.loc	43 228 9 is_stmt 0      @ /root/Bela/projects/SOFAlizer-for-Bela/bela_sofa.cpp:228:9
	cmp	r5, #0
	beq	.LBB9_8
.Ltmp344:
@ BB#6:                                 @   in Loop: Header=BB9_2 Depth=1
	@DEBUG_VALUE: ~Fft:this <- %R5
	@DEBUG_VALUE: operator[]:__n <- %R6
	.loc	7 23 10 is_stmt 1       @ /root/Bela/projects/SOFAlizer-for-Bela/fft.h:23:10
.Ltmp319:
	mov	r0, r5
	bl	_ZN3Fft7cleanupEv
.Ltmp320:
.Ltmp345:
@ BB#7:                                 @ %_ZN3FftD2Ev.exit
                                        @   in Loop: Header=BB9_2 Depth=1
	@DEBUG_VALUE: ~Fft:this <- %R5
	@DEBUG_VALUE: operator[]:__n <- %R6
	.loc	43 228 9 discriminator 2 @ /root/Bela/projects/SOFAlizer-for-Bela/bela_sofa.cpp:228:9
	mov	r0, r5
	bl	_ZdlPv
.Ltmp346:
.LBB9_8:                                @   in Loop: Header=BB9_2 Depth=1
	@DEBUG_VALUE: ~Fft:this <- %R5
	@DEBUG_VALUE: operator[]:__n <- %R6
	.loc	13 656 66               @ /usr/bin/../lib/gcc/arm-linux-gnueabihf/6.3.0/../../../../include/c++/6.3.0/bits/stl_vector.h:656:66
	ldr	r0, [r4, #120]
.Ltmp347:
	.loc	43 224 53 discriminator 3 @ /root/Bela/projects/SOFAlizer-for-Bela/bela_sofa.cpp:224:53
	add	r6, r6, #1
.Ltmp348:
	@DEBUG_VALUE: i <- %R6
	.loc	13 656 40               @ /usr/bin/../lib/gcc/arm-linux-gnueabihf/6.3.0/../../../../include/c++/6.3.0/bits/stl_vector.h:656:40
	ldr	r1, [r4, #124]
	.loc	13 656 50 is_stmt 0     @ /usr/bin/../lib/gcc/arm-linux-gnueabihf/6.3.0/../../../../include/c++/6.3.0/bits/stl_vector.h:656:50
	sub	r1, r1, r0
.Ltmp349:
	.loc	43 224 5 is_stmt 1 discriminator 1 @ /root/Bela/projects/SOFAlizer-for-Bela/bela_sofa.cpp:224:5
	cmp	r6, r1, asr #2
	blo	.LBB9_2
.Ltmp350:
.LBB9_9:                                @ %._crit_edge
	.loc	13 1437 26              @ /usr/bin/../lib/gcc/arm-linux-gnueabihf/6.3.0/../../../../include/c++/6.3.0/bits/stl_vector.h:1437:26
	str	r0, [r4, #124]
.Ltmp351:
	.loc	13 1210 39              @ /usr/bin/../lib/gcc/arm-linux-gnueabihf/6.3.0/../../../../include/c++/6.3.0/bits/stl_vector.h:1210:39
	ldr	r0, [r4, #132]
.Ltmp352:
	.loc	13 1437 26              @ /usr/bin/../lib/gcc/arm-linux-gnueabihf/6.3.0/../../../../include/c++/6.3.0/bits/stl_vector.h:1437:26
	str	r0, [r4, #136]
.Ltmp353:
	.loc	43 233 1                @ /root/Bela/projects/SOFAlizer-for-Bela/bela_sofa.cpp:233:1
	pop	{r4, r5, r6, r10, r11, pc}
.LBB9_10:
.Ltmp354:
	@DEBUG_VALUE: ~Fft:this <- %R5
	@DEBUG_VALUE: operator[]:__n <- %R6
.Ltmp321:
.Ltmp355:
	.loc	7 23 10 discriminator 2 @ /root/Bela/projects/SOFAlizer-for-Bela/fft.h:23:10
	mov	lr, pc
	b	__clang_call_terminate
.Ltmp356:
.LBB9_11:
	@DEBUG_VALUE: ~Fft:this <- %R5
	@DEBUG_VALUE: operator[]:__n <- %R6
.Ltmp318:
.Ltmp357:
	.loc	7 23 10 is_stmt 0 discriminator 2 @ /root/Bela/projects/SOFAlizer-for-Bela/fft.h:23:10
	mov	lr, pc
	b	__clang_call_terminate
.Ltmp358:
.Lfunc_end9:
	.size	_ZN8HRTFData11freeFFTdataEv, .Lfunc_end9-_ZN8HRTFData11freeFFTdataEv
	.cfi_endproc
	.globl	__gxx_personality_v0
	.personality __gxx_personality_v0
	.handlerdata
	.p2align	2
GCC_except_table9:
.Lexception2:
	.byte	255                     @ @LPStart Encoding = omit
	.byte	0                       @ @TType Encoding = absptr
	.asciz	"\257\200"              @ @TType base offset
	.byte	3                       @ Call site Encoding = udata4
	.byte	39                      @ Call site table length
	.long	.Lfunc_begin9-.Lfunc_begin9 @ >> Call Site 1 <<
	.long	.Ltmp316-.Lfunc_begin9  @   Call between .Lfunc_begin9 and .Ltmp316
	.long	0                       @     has no landing pad
	.byte	0                       @   On action: cleanup
	.long	.Ltmp316-.Lfunc_begin9  @ >> Call Site 2 <<
	.long	.Ltmp317-.Ltmp316       @   Call between .Ltmp316 and .Ltmp317
	.long	.Ltmp318-.Lfunc_begin9  @     jumps to .Ltmp318
	.byte	1                       @   On action: 1
	.long	.Ltmp319-.Lfunc_begin9  @ >> Call Site 3 <<
	.long	.Ltmp320-.Ltmp319       @   Call between .Ltmp319 and .Ltmp320
	.long	.Ltmp321-.Lfunc_begin9  @     jumps to .Ltmp321
	.byte	1                       @   On action: 1
	.byte	1                       @ >> Action Record 1 <<
                                        @   Catch TypeInfo 1
	.byte	0                       @   No further actions
                                        @ >> Catch TypeInfos <<
	.long	0                       @ TypeInfo 1
	.p2align	2
	.fnend

	.globl	_ZN8HRTFData7sofaFFTEv
	.p2align	2
	.type	_ZN8HRTFData7sofaFFTEv,%function
_ZN8HRTFData7sofaFFTEv:                 @ @_ZN8HRTFData7sofaFFTEv
.Lfunc_begin10:
	.loc	43 316 0 is_stmt 1      @ /root/Bela/projects/SOFAlizer-for-Bela/bela_sofa.cpp:316:0
	.fnstart
	.cfi_startproc
@ BB#0:
	.save	{r4, r5, r6, r7, r8, r9, r10, r11, lr}
	push	{r4, r5, r6, r7, r8, r9, r10, r11, lr}
.Ltmp377:
	.cfi_def_cfa_offset 36
.Ltmp378:
	.cfi_offset lr, -4
.Ltmp379:
	.cfi_offset r11, -8
.Ltmp380:
	.cfi_offset r10, -12
.Ltmp381:
	.cfi_offset r9, -16
.Ltmp382:
	.cfi_offset r8, -20
.Ltmp383:
	.cfi_offset r7, -24
.Ltmp384:
	.cfi_offset r6, -28
.Ltmp385:
	.cfi_offset r5, -32
.Ltmp386:
	.cfi_offset r4, -36
	.setfp	r11, sp, #28
	add	r11, sp, #28
.Ltmp387:
	.cfi_def_cfa r11, 8
	.pad	#20
	sub	sp, sp, #20
	@DEBUG_VALUE: sofaFFT:this <- %R0
	mov	r4, r0
.Ltmp388:
	@DEBUG_VALUE: sofaFFT:this <- %R4
	mov	r0, #0
.Ltmp389:
	@DEBUG_VALUE: _Vector_base:__n <- 512
	@DEBUG_VALUE: vector:__n <- 512
	.loc	13 91 25 prologue_end   @ /usr/bin/../lib/gcc/arm-linux-gnueabihf/6.3.0/../../../../include/c++/6.3.0/bits/stl_vector.h:91:25
	str	r0, [sp, #8]
	.loc	13 91 37 is_stmt 0      @ /usr/bin/../lib/gcc/arm-linux-gnueabihf/6.3.0/../../../../include/c++/6.3.0/bits/stl_vector.h:91:37
	str	r0, [sp, #12]
	.loc	13 91 50                @ /usr/bin/../lib/gcc/arm-linux-gnueabihf/6.3.0/../../../../include/c++/6.3.0/bits/stl_vector.h:91:50
	str	r0, [sp, #16]
.Ltmp390:
	@DEBUG_VALUE: allocate:__n <- 512
	@DEBUG_VALUE: allocate:__n <- 512
	@DEBUG_VALUE: _M_allocate:__n <- 512
	@DEBUG_VALUE: _M_create_storage:__n <- 512
	.loc	9 104 27 is_stmt 1      @ /usr/bin/../lib/gcc/arm-linux-gnueabihf/6.3.0/../../../../include/c++/6.3.0/ext/new_allocator.h:104:27
.Ltmp359:
	mov	r0, #2048
	bl	_Znwj
.Ltmp360:
.Ltmp391:
@ BB#1:                                 @ %.noexc
	@DEBUG_VALUE: sofaFFT:this <- %R4
	.file	45 "/usr/bin/../lib/gcc/arm-linux-gnueabihf/6.3.0/../../../../include/c++/6.3.0/bits" "stl_algobase.h"
	.loc	45 754 11               @ /usr/bin/../lib/gcc/arm-linux-gnueabihf/6.3.0/../../../../include/c++/6.3.0/bits/stl_algobase.h:754:11
	mov	r1, #0
	mov	r2, #2048
.Ltmp392:
	.loc	13 185 25               @ /usr/bin/../lib/gcc/arm-linux-gnueabihf/6.3.0/../../../../include/c++/6.3.0/bits/stl_vector.h:185:25
	str	r0, [sp, #8]
	.loc	13 187 59               @ /usr/bin/../lib/gcc/arm-linux-gnueabihf/6.3.0/../../../../include/c++/6.3.0/bits/stl_vector.h:187:59
	add	r5, r0, #2048
	.loc	13 187 34 is_stmt 0     @ /usr/bin/../lib/gcc/arm-linux-gnueabihf/6.3.0/../../../../include/c++/6.3.0/bits/stl_vector.h:187:34
	str	r5, [sp, #16]
.Ltmp393:
	@DEBUG_VALUE: __niter <- 512
	@DEBUG_VALUE: __fill_n_a<float *, unsigned int, float>:__n <- 512
	@DEBUG_VALUE: fill_n<float *, unsigned int, float>:__n <- 512
	@DEBUG_VALUE: __uninit_fill_n<float *, unsigned int, float>:__n <- 512
	@DEBUG_VALUE: uninitialized_fill_n<float *, unsigned int, float>:__assignable <- 1
	@DEBUG_VALUE: uninitialized_fill_n<float *, unsigned int, float>:__n <- 512
	@DEBUG_VALUE: __uninitialized_fill_n_a<float *, unsigned int, float, float>:__n <- 512
	@DEBUG_VALUE: _M_fill_initialize:__n <- 512
	.loc	45 754 11 is_stmt 1     @ /usr/bin/../lib/gcc/arm-linux-gnueabihf/6.3.0/../../../../include/c++/6.3.0/bits/stl_algobase.h:754:11
	bl	memset
.Ltmp394:
	@DEBUG_VALUE: sofaFFT:r <- 0
	@DEBUG_VALUE: sofaFFT:m <- 0
	.loc	13 1298 26              @ /usr/bin/../lib/gcc/arm-linux-gnueabihf/6.3.0/../../../../include/c++/6.3.0/bits/stl_vector.h:1298:26
	str	r5, [sp, #12]
.Ltmp395:
	.loc	13 656 66               @ /usr/bin/../lib/gcc/arm-linux-gnueabihf/6.3.0/../../../../include/c++/6.3.0/bits/stl_vector.h:656:66
	mov	r5, r4
	ldr	r1, [r5, #120]!
.Ltmp396:
	.loc	43 327 22               @ /root/Bela/projects/SOFAlizer-for-Bela/bela_sofa.cpp:327:22
	ldr	r2, [r5, #-20]
.Ltmp397:
	.loc	13 656 40               @ /usr/bin/../lib/gcc/arm-linux-gnueabihf/6.3.0/../../../../include/c++/6.3.0/bits/stl_vector.h:656:40
	ldr	r0, [r5, #4]
	.loc	13 656 50 is_stmt 0     @ /usr/bin/../lib/gcc/arm-linux-gnueabihf/6.3.0/../../../../include/c++/6.3.0/bits/stl_vector.h:656:50
	sub	r7, r0, r1
.Ltmp398:
	.loc	43 327 30 is_stmt 1     @ /root/Bela/projects/SOFAlizer-for-Bela/bela_sofa.cpp:327:30
	ldr	r0, [r2, #20]
.Ltmp399:
	@DEBUG_VALUE: resize:__new_size <- %R0
	.loc	13 656 50               @ /usr/bin/../lib/gcc/arm-linux-gnueabihf/6.3.0/../../../../include/c++/6.3.0/bits/stl_vector.h:656:50
	asr	r3, r7, #2
.Ltmp400:
	.loc	13 676 6                @ /usr/bin/../lib/gcc/arm-linux-gnueabihf/6.3.0/../../../../include/c++/6.3.0/bits/stl_vector.h:676:6
	cmp	r0, r7, asr #2
.Ltmp401:
	@DEBUG_VALUE: resize:this <- %R5
	@DEBUG_VALUE: size:this <- %R5
	@DEBUG_VALUE: size:this <- %R5
	@DEBUG_VALUE: _M_erase_at_end:this <- %R5
	@DEBUG_VALUE: operator[]:this <- %R5
	bls	.LBB10_4
.Ltmp402:
@ BB#2:
	@DEBUG_VALUE: operator[]:this <- %R5
	@DEBUG_VALUE: _M_erase_at_end:this <- %R5
	@DEBUG_VALUE: size:this <- %R5
	@DEBUG_VALUE: size:this <- %R5
	@DEBUG_VALUE: resize:this <- %R5
	@DEBUG_VALUE: resize:__new_size <- %R0
	@DEBUG_VALUE: sofaFFT:this <- %R4
	.loc	13 677 33               @ /usr/bin/../lib/gcc/arm-linux-gnueabihf/6.3.0/../../../../include/c++/6.3.0/bits/stl_vector.h:677:33
	sub	r1, r0, r3
	.loc	13 677 4 is_stmt 0 discriminator 1 @ /usr/bin/../lib/gcc/arm-linux-gnueabihf/6.3.0/../../../../include/c++/6.3.0/bits/stl_vector.h:677:4
.Ltmp362:
	mov	r0, r5
.Ltmp403:
	bl	_ZNSt6vectorIP3FftSaIS1_EE17_M_default_appendEj
.Ltmp363:
.Ltmp404:
@ BB#3:                                 @ %._ZNSt6vectorIP3FftSaIS1_EE6resizeEj.exit_crit_edge
	@DEBUG_VALUE: operator[]:this <- %R5
	@DEBUG_VALUE: _M_erase_at_end:this <- %R5
	@DEBUG_VALUE: size:this <- %R5
	@DEBUG_VALUE: size:this <- %R5
	@DEBUG_VALUE: resize:this <- %R5
	@DEBUG_VALUE: sofaFFT:this <- %R4
	.loc	43 328 23 is_stmt 1     @ /root/Bela/projects/SOFAlizer-for-Bela/bela_sofa.cpp:328:23
	ldr	r2, [r4, #100]
	.loc	43 328 31 is_stmt 0     @ /root/Bela/projects/SOFAlizer-for-Bela/bela_sofa.cpp:328:31
	ldr	r0, [r2, #20]
	b	.LBB10_5
.Ltmp405:
.LBB10_4:
	@DEBUG_VALUE: operator[]:this <- %R5
	@DEBUG_VALUE: _M_erase_at_end:this <- %R5
	@DEBUG_VALUE: size:this <- %R5
	@DEBUG_VALUE: size:this <- %R5
	@DEBUG_VALUE: resize:this <- %R5
	@DEBUG_VALUE: resize:__new_size <- %R0
	@DEBUG_VALUE: sofaFFT:this <- %R4
	.loc	13 678 11 is_stmt 1     @ /usr/bin/../lib/gcc/arm-linux-gnueabihf/6.3.0/../../../../include/c++/6.3.0/bits/stl_vector.h:678:11
	cmp	r0, r3
.Ltmp406:
	.loc	13 679 43               @ /usr/bin/../lib/gcc/arm-linux-gnueabihf/6.3.0/../../../../include/c++/6.3.0/bits/stl_vector.h:679:43
	addlo	r1, r1, r0, lsl #2
.Ltmp407:
	@DEBUG_VALUE: _M_erase_at_end:__pos <- %R1
	.loc	13 1437 26              @ /usr/bin/../lib/gcc/arm-linux-gnueabihf/6.3.0/../../../../include/c++/6.3.0/bits/stl_vector.h:1437:26
	strlo	r1, [r4, #124]
.Ltmp408:
.LBB10_5:                               @ %_ZNSt6vectorIP3FftSaIS1_EE6resizeEj.exit
	@DEBUG_VALUE: operator[]:this <- %R5
	@DEBUG_VALUE: _M_erase_at_end:this <- %R5
	@DEBUG_VALUE: size:this <- %R5
	@DEBUG_VALUE: size:this <- %R5
	@DEBUG_VALUE: resize:this <- %R5
	@DEBUG_VALUE: sofaFFT:this <- %R4
	@DEBUG_VALUE: resize:__new_size <- %R0
	.loc	13 656 66               @ /usr/bin/../lib/gcc/arm-linux-gnueabihf/6.3.0/../../../../include/c++/6.3.0/bits/stl_vector.h:656:66
	mov	r6, r4
.Ltmp409:
	@DEBUG_VALUE: size:this <- %R6
	@DEBUG_VALUE: resize:this <- %R6
	@DEBUG_VALUE: size:this <- %R6
	@DEBUG_VALUE: _M_erase_at_end:this <- %R6
	@DEBUG_VALUE: operator[]:this <- %R6
	ldr	r1, [r6, #132]!
.Ltmp410:
	.loc	13 656 40 is_stmt 0     @ /usr/bin/../lib/gcc/arm-linux-gnueabihf/6.3.0/../../../../include/c++/6.3.0/bits/stl_vector.h:656:40
	ldr	r3, [r6, #4]
	.loc	13 656 50               @ /usr/bin/../lib/gcc/arm-linux-gnueabihf/6.3.0/../../../../include/c++/6.3.0/bits/stl_vector.h:656:50
	sub	r7, r3, r1
	asr	r3, r7, #2
.Ltmp411:
	.loc	13 676 6 is_stmt 1      @ /usr/bin/../lib/gcc/arm-linux-gnueabihf/6.3.0/../../../../include/c++/6.3.0/bits/stl_vector.h:676:6
	cmp	r0, r7, asr #2
	bls	.LBB10_8
.Ltmp412:
@ BB#6:
	@DEBUG_VALUE: resize:__new_size <- %R0
	@DEBUG_VALUE: operator[]:this <- %R5
	@DEBUG_VALUE: _M_erase_at_end:this <- %R5
	@DEBUG_VALUE: size:this <- %R5
	@DEBUG_VALUE: size:this <- %R5
	@DEBUG_VALUE: resize:this <- %R5
	@DEBUG_VALUE: sofaFFT:this <- %R4
	.loc	13 677 33               @ /usr/bin/../lib/gcc/arm-linux-gnueabihf/6.3.0/../../../../include/c++/6.3.0/bits/stl_vector.h:677:33
	sub	r1, r0, r3
	.loc	13 677 4 is_stmt 0 discriminator 1 @ /usr/bin/../lib/gcc/arm-linux-gnueabihf/6.3.0/../../../../include/c++/6.3.0/bits/stl_vector.h:677:4
.Ltmp364:
	mov	r0, r6
.Ltmp413:
	bl	_ZNSt6vectorIP3FftSaIS1_EE17_M_default_appendEj
.Ltmp365:
.Ltmp414:
@ BB#7:                                 @ %._ZNSt6vectorIP3FftSaIS1_EE6resizeEj.exit40_crit_edge
	@DEBUG_VALUE: operator[]:this <- %R5
	@DEBUG_VALUE: _M_erase_at_end:this <- %R5
	@DEBUG_VALUE: size:this <- %R5
	@DEBUG_VALUE: size:this <- %R5
	@DEBUG_VALUE: resize:this <- %R5
	@DEBUG_VALUE: sofaFFT:this <- %R4
	.loc	43 333 9 is_stmt 1      @ /root/Bela/projects/SOFAlizer-for-Bela/bela_sofa.cpp:333:9
	ldr	r2, [r4, #100]
	b	.LBB10_9
.Ltmp415:
.LBB10_8:
	@DEBUG_VALUE: resize:__new_size <- %R0
	@DEBUG_VALUE: operator[]:this <- %R5
	@DEBUG_VALUE: _M_erase_at_end:this <- %R5
	@DEBUG_VALUE: size:this <- %R5
	@DEBUG_VALUE: size:this <- %R5
	@DEBUG_VALUE: resize:this <- %R5
	@DEBUG_VALUE: sofaFFT:this <- %R4
	.loc	13 678 11               @ /usr/bin/../lib/gcc/arm-linux-gnueabihf/6.3.0/../../../../include/c++/6.3.0/bits/stl_vector.h:678:11
	cmp	r0, r3
.Ltmp416:
	.loc	13 679 43               @ /usr/bin/../lib/gcc/arm-linux-gnueabihf/6.3.0/../../../../include/c++/6.3.0/bits/stl_vector.h:679:43
	addlo	r0, r1, r0, lsl #2
.Ltmp417:
	@DEBUG_VALUE: _M_erase_at_end:__pos <- %R0
	.loc	13 1437 26              @ /usr/bin/../lib/gcc/arm-linux-gnueabihf/6.3.0/../../../../include/c++/6.3.0/bits/stl_vector.h:1437:26
	strlo	r0, [r4, #136]
.Ltmp418:
.LBB10_9:                               @ %_ZNSt6vectorIP3FftSaIS1_EE6resizeEj.exit40
	@DEBUG_VALUE: operator[]:this <- %R5
	@DEBUG_VALUE: _M_erase_at_end:this <- %R5
	@DEBUG_VALUE: size:this <- %R5
	@DEBUG_VALUE: size:this <- %R5
	@DEBUG_VALUE: resize:this <- %R5
	@DEBUG_VALUE: sofaFFT:this <- %R4
	.loc	43 333 17               @ /root/Bela/projects/SOFAlizer-for-Bela/bela_sofa.cpp:333:17
	ldr	r0, [r2, #16]
.Ltmp419:
	.loc	43 333 9 is_stmt 0      @ /root/Bela/projects/SOFAlizer-for-Bela/bela_sofa.cpp:333:9
	cmp	r0, #256
	blo	.LBB10_12
.Ltmp420:
@ BB#10:
	@DEBUG_VALUE: operator[]:this <- %R5
	@DEBUG_VALUE: _M_erase_at_end:this <- %R5
	@DEBUG_VALUE: size:this <- %R5
	@DEBUG_VALUE: size:this <- %R5
	@DEBUG_VALUE: resize:this <- %R5
	@DEBUG_VALUE: sofaFFT:this <- %R4
	.loc	43 335 9 is_stmt 1      @ /root/Bela/projects/SOFAlizer-for-Bela/bela_sofa.cpp:335:9
.Ltmp366:
.Ltmp421:
	@DEBUG_VALUE: sofaFFT:newN <- 255
	movw	r0, :lower16:.L.str.4
	movt	r0, :upper16:.L.str.4
	bl	rt_printf
.Ltmp367:
.Ltmp422:
@ BB#11:                                @ %._crit_edge52
	@DEBUG_VALUE: operator[]:this <- %R5
	@DEBUG_VALUE: _M_erase_at_end:this <- %R5
	@DEBUG_VALUE: size:this <- %R5
	@DEBUG_VALUE: size:this <- %R5
	@DEBUG_VALUE: resize:this <- %R5
	@DEBUG_VALUE: sofaFFT:this <- %R4
	.loc	43 347 34 discriminator 1 @ /root/Bela/projects/SOFAlizer-for-Bela/bela_sofa.cpp:347:34
	ldr	r2, [r4, #100]
	mov	r7, #1024
	b	.LBB10_13
.Ltmp423:
.LBB10_12:
	@DEBUG_VALUE: operator[]:this <- %R5
	@DEBUG_VALUE: _M_erase_at_end:this <- %R5
	@DEBUG_VALUE: size:this <- %R5
	@DEBUG_VALUE: size:this <- %R5
	@DEBUG_VALUE: resize:this <- %R5
	@DEBUG_VALUE: sofaFFT:this <- %R4
	lsl	r7, r0, #2
.Ltmp424:
.LBB10_13:
	@DEBUG_VALUE: operator[]:this <- %R5
	@DEBUG_VALUE: _M_erase_at_end:this <- %R5
	@DEBUG_VALUE: size:this <- %R5
	@DEBUG_VALUE: size:this <- %R5
	@DEBUG_VALUE: resize:this <- %R5
	@DEBUG_VALUE: sofaFFT:this <- %R4
	@DEBUG_VALUE: i <- 0
	.loc	13 781 32               @ /usr/bin/../lib/gcc/arm-linux-gnueabihf/6.3.0/../../../../include/c++/6.3.0/bits/stl_vector.h:781:32
	ldr	r0, [sp, #8]
.Ltmp425:
	.loc	43 347 49 discriminator 1 @ /root/Bela/projects/SOFAlizer-for-Bela/bela_sofa.cpp:347:49
	ldr	r1, [r2, #100]
	.loc	43 347 5 is_stmt 0 discriminator 1 @ /root/Bela/projects/SOFAlizer-for-Bela/bela_sofa.cpp:347:5
	cmp	r1, #0
	beq	.LBB10_22
.Ltmp426:
@ BB#14:                                @ %.lr.ph
	@DEBUG_VALUE: operator[]:this <- %R5
	@DEBUG_VALUE: _M_erase_at_end:this <- %R5
	@DEBUG_VALUE: size:this <- %R5
	@DEBUG_VALUE: size:this <- %R5
	@DEBUG_VALUE: resize:this <- %R5
	@DEBUG_VALUE: sofaFFT:this <- %R4
	stm	sp, {r5, r6}
	mov	r6, #0
	mov	r8, #0
	mov	r10, #0
	mov	r9, #0
.Ltmp427:
.LBB10_15:                              @ =>This Inner Loop Header: Depth=1
	@DEBUG_VALUE: operator[]:__n <- 0
	.loc	43 348 43 is_stmt 1     @ /root/Bela/projects/SOFAlizer-for-Bela/bela_sofa.cpp:348:43
	ldr	r1, [r2, #96]
	.loc	43 348 9 is_stmt 0 discriminator 1 @ /root/Bela/projects/SOFAlizer-for-Bela/bela_sofa.cpp:348:9
	mov	r2, r7
	.loc	43 348 28               @ /root/Bela/projects/SOFAlizer-for-Bela/bela_sofa.cpp:348:28
	add	r1, r1, r8, lsl #2
	.loc	43 348 9 discriminator 1 @ /root/Bela/projects/SOFAlizer-for-Bela/bela_sofa.cpp:348:9
	bl	memcpy
	.loc	43 350 23 is_stmt 1     @ /root/Bela/projects/SOFAlizer-for-Bela/bela_sofa.cpp:350:23
.Ltmp369:
	mov	r0, #16
	bl	_Znwj
	mov	r5, r0
.Ltmp370:
@ BB#16:                                @   in Loop: Header=BB10_15 Depth=1
.Ltmp428:
	@DEBUG_VALUE: fftobj <- %R5
	@DEBUG_VALUE: Fft:this <- %R5
	.loc	7 68 18                 @ /root/Bela/projects/SOFAlizer-for-Bela/fft.h:68:18
	str	r6, [r5]
	.loc	7 69 26                 @ /root/Bela/projects/SOFAlizer-for-Bela/fft.h:69:26
	str	r6, [r5, #4]
	.loc	7 70 29                 @ /root/Bela/projects/SOFAlizer-for-Bela/fft.h:70:29
	str	r6, [r5, #8]
.Ltmp429:
	.loc	43 351 17               @ /root/Bela/projects/SOFAlizer-for-Bela/bela_sofa.cpp:351:17
.Ltmp372:
	mov	r0, r5
	mov	r1, #512
	bl	_ZN3Fft5setupEj
.Ltmp373:
.Ltmp430:
@ BB#17:                                @   in Loop: Header=BB10_15 Depth=1
	@DEBUG_VALUE: Fft:this <- %R5
	@DEBUG_VALUE: fftobj <- %R5
	.loc	43 353 17               @ /root/Bela/projects/SOFAlizer-for-Bela/bela_sofa.cpp:353:17
.Ltmp374:
.Ltmp431:
	@DEBUG_VALUE: operator[]:this <- undef
	add	r1, sp, #8
	mov	r0, r5
	bl	_ZN3Fft3fftERKSt6vectorIfSaIfEE
.Ltmp375:
.Ltmp432:
@ BB#18:                                @   in Loop: Header=BB10_15 Depth=1
	@DEBUG_VALUE: Fft:this <- %R5
	@DEBUG_VALUE: fftobj <- %R5
	.loc	43 356 13               @ /root/Bela/projects/SOFAlizer-for-Bela/bela_sofa.cpp:356:13
	cmp	r10, #0
	beq	.LBB10_20
.Ltmp433:
@ BB#19:                                @   in Loop: Header=BB10_15 Depth=1
	@DEBUG_VALUE: Fft:this <- %R5
	@DEBUG_VALUE: fftobj <- %R5
	@DEBUG_VALUE: operator[]:__n <- %R9
	.loc	13 781 32               @ /usr/bin/../lib/gcc/arm-linux-gnueabihf/6.3.0/../../../../include/c++/6.3.0/bits/stl_vector.h:781:32
	ldr	r0, [sp, #4]            @ 4-byte Reload
	mov	r10, #0
	ldr	r0, [r0]
.Ltmp434:
	.loc	43 371 27               @ /root/Bela/projects/SOFAlizer-for-Bela/bela_sofa.cpp:371:27
	str	r5, [r0, r9, lsl #2]
	@DEBUG_VALUE: sofaFFT:r <- 0
	.loc	43 373 14               @ /root/Bela/projects/SOFAlizer-for-Bela/bela_sofa.cpp:373:14
	add	r9, r9, #1
.Ltmp435:
	@DEBUG_VALUE: sofaFFT:m <- %R9
	b	.LBB10_21
.Ltmp436:
.LBB10_20:                              @   in Loop: Header=BB10_15 Depth=1
	@DEBUG_VALUE: Fft:this <- %R5
	@DEBUG_VALUE: fftobj <- %R5
	.loc	13 781 32               @ /usr/bin/../lib/gcc/arm-linux-gnueabihf/6.3.0/../../../../include/c++/6.3.0/bits/stl_vector.h:781:32
	ldr	r0, [sp]                @ 4-byte Reload
	mov	r10, #1
	ldr	r0, [r0]
.Ltmp437:
	.loc	43 362 26               @ /root/Bela/projects/SOFAlizer-for-Bela/bela_sofa.cpp:362:26
	str	r5, [r0, r9, lsl #2]
.Ltmp438:
.LBB10_21:                              @   in Loop: Header=BB10_15 Depth=1
	@DEBUG_VALUE: Fft:this <- %R5
	@DEBUG_VALUE: fftobj <- %R5
	.loc	43 347 63 discriminator 3 @ /root/Bela/projects/SOFAlizer-for-Bela/bela_sofa.cpp:347:63
	ldr	r2, [r4, #100]
.Ltmp439:
	.loc	13 781 32               @ /usr/bin/../lib/gcc/arm-linux-gnueabihf/6.3.0/../../../../include/c++/6.3.0/bits/stl_vector.h:781:32
	ldr	r0, [sp, #8]
.Ltmp440:
	.loc	43 347 71 discriminator 3 @ /root/Bela/projects/SOFAlizer-for-Bela/bela_sofa.cpp:347:71
	ldr	r1, [r2, #16]
	.loc	43 347 49 is_stmt 0 discriminator 1 @ /root/Bela/projects/SOFAlizer-for-Bela/bela_sofa.cpp:347:49
	ldr	r3, [r2, #100]
	.loc	43 347 60 discriminator 3 @ /root/Bela/projects/SOFAlizer-for-Bela/bela_sofa.cpp:347:60
	add	r8, r1, r8
.Ltmp441:
	@DEBUG_VALUE: i <- %R8
	.loc	43 347 5 discriminator 1 @ /root/Bela/projects/SOFAlizer-for-Bela/bela_sofa.cpp:347:5
	cmp	r8, r3
	blo	.LBB10_15
.Ltmp442:
.LBB10_22:                              @ %._crit_edge
	.loc	13 177 6 is_stmt 1      @ /usr/bin/../lib/gcc/arm-linux-gnueabihf/6.3.0/../../../../include/c++/6.3.0/bits/stl_vector.h:177:6
	cmp	r0, #0
	beq	.LBB10_24
@ BB#23:
.Ltmp443:
	.loc	9 110 9                 @ /usr/bin/../lib/gcc/arm-linux-gnueabihf/6.3.0/../../../../include/c++/6.3.0/ext/new_allocator.h:110:9
	bl	_ZdlPv
.Ltmp444:
.LBB10_24:                              @ %_ZNSt6vectorIfSaIfEED2Ev.exit37
	.loc	43 379 1 discriminator 5 @ /root/Bela/projects/SOFAlizer-for-Bela/bela_sofa.cpp:379:1
	sub	sp, r11, #28
	pop	{r4, r5, r6, r7, r8, r9, r10, r11, pc}
.LBB10_25:
.Ltmp445:
	@DEBUG_VALUE: sofaFFT:this <- %R4
.Ltmp361:
	mov	lr, pc
	b	_Unwind_Resume
.Ltmp446:
.LBB10_26:
	@DEBUG_VALUE: operator[]:this <- %R5
	@DEBUG_VALUE: _M_erase_at_end:this <- %R5
	@DEBUG_VALUE: size:this <- %R5
	@DEBUG_VALUE: size:this <- %R5
	@DEBUG_VALUE: resize:this <- %R5
	@DEBUG_VALUE: sofaFFT:this <- %R4
.Ltmp368:
	b	.LBB10_29
.Ltmp447:
.LBB10_27:
.Ltmp371:
	b	.LBB10_29
.LBB10_28:
.Ltmp448:
	@DEBUG_VALUE: Fft:this <- %R5
	@DEBUG_VALUE: fftobj <- %R5
.Ltmp376:
.Ltmp449:
.LBB10_29:
	mov	r4, r0
.Ltmp450:
	.loc	13 160 37               @ /usr/bin/../lib/gcc/arm-linux-gnueabihf/6.3.0/../../../../include/c++/6.3.0/bits/stl_vector.h:160:37
	ldr	r0, [sp, #8]
.Ltmp451:
	@DEBUG_VALUE: _M_deallocate:__p <- %R0
	@DEBUG_VALUE: deallocate:__p <- %R0
	@DEBUG_VALUE: deallocate:__p <- %R0
	.loc	13 177 6                @ /usr/bin/../lib/gcc/arm-linux-gnueabihf/6.3.0/../../../../include/c++/6.3.0/bits/stl_vector.h:177:6
	cmp	r0, #0
	beq	.LBB10_31
.Ltmp452:
@ BB#30:
	@DEBUG_VALUE: deallocate:__p <- %R0
	@DEBUG_VALUE: deallocate:__p <- %R0
	@DEBUG_VALUE: _M_deallocate:__p <- %R0
	.loc	9 110 9                 @ /usr/bin/../lib/gcc/arm-linux-gnueabihf/6.3.0/../../../../include/c++/6.3.0/ext/new_allocator.h:110:9
	bl	_ZdlPv
.Ltmp453:
.LBB10_31:
	mov	r0, r4
	mov	lr, pc
	b	_Unwind_Resume
.Lfunc_end10:
	.size	_ZN8HRTFData7sofaFFTEv, .Lfunc_end10-_ZN8HRTFData7sofaFFTEv
	.cfi_endproc
	.file	46 "/usr/bin/../lib/gcc/arm-linux-gnueabihf/6.3.0/../../../../include/c++/6.3.0/ext" "type_traits.h"
	.file	47 "/usr/bin/../lib/gcc/arm-linux-gnueabihf/6.3.0/../../../../include/c++/6.3.0/bits" "stl_uninitialized.h"
	.globl	__gxx_personality_v0
	.personality __gxx_personality_v0
	.handlerdata
	.p2align	2
GCC_except_table10:
.Lexception3:
	.byte	255                     @ @LPStart Encoding = omit
	.byte	0                       @ @TType Encoding = absptr
	.byte	93                      @ @TType base offset
	.byte	3                       @ Call site Encoding = udata4
	.byte	91                      @ Call site table length
	.long	.Ltmp359-.Lfunc_begin10 @ >> Call Site 1 <<
	.long	.Ltmp360-.Ltmp359       @   Call between .Ltmp359 and .Ltmp360
	.long	.Ltmp361-.Lfunc_begin10 @     jumps to .Ltmp361
	.byte	0                       @   On action: cleanup
	.long	.Ltmp360-.Lfunc_begin10 @ >> Call Site 2 <<
	.long	.Ltmp362-.Ltmp360       @   Call between .Ltmp360 and .Ltmp362
	.long	0                       @     has no landing pad
	.byte	0                       @   On action: cleanup
	.long	.Ltmp362-.Lfunc_begin10 @ >> Call Site 3 <<
	.long	.Ltmp367-.Ltmp362       @   Call between .Ltmp362 and .Ltmp367
	.long	.Ltmp368-.Lfunc_begin10 @     jumps to .Ltmp368
	.byte	0                       @   On action: cleanup
	.long	.Ltmp367-.Lfunc_begin10 @ >> Call Site 4 <<
	.long	.Ltmp369-.Ltmp367       @   Call between .Ltmp367 and .Ltmp369
	.long	0                       @     has no landing pad
	.byte	0                       @   On action: cleanup
	.long	.Ltmp369-.Lfunc_begin10 @ >> Call Site 5 <<
	.long	.Ltmp370-.Ltmp369       @   Call between .Ltmp369 and .Ltmp370
	.long	.Ltmp371-.Lfunc_begin10 @     jumps to .Ltmp371
	.byte	0                       @   On action: cleanup
	.long	.Ltmp372-.Lfunc_begin10 @ >> Call Site 6 <<
	.long	.Ltmp375-.Ltmp372       @   Call between .Ltmp372 and .Ltmp375
	.long	.Ltmp376-.Lfunc_begin10 @     jumps to .Ltmp376
	.byte	0                       @   On action: cleanup
	.long	.Ltmp375-.Lfunc_begin10 @ >> Call Site 7 <<
	.long	.Lfunc_end10-.Ltmp375   @   Call between .Ltmp375 and .Lfunc_end10
	.long	0                       @     has no landing pad
	.byte	0                       @   On action: cleanup
	.p2align	2
	.fnend

	.globl	_ZN8HRTFData11unload_sofaEv
	.p2align	2
	.type	_ZN8HRTFData11unload_sofaEv,%function
_ZN8HRTFData11unload_sofaEv:            @ @_ZN8HRTFData11unload_sofaEv
.Lfunc_begin11:
	.loc	43 386 0                @ /root/Bela/projects/SOFAlizer-for-Bela/bela_sofa.cpp:386:0
	.fnstart
	.cfi_startproc
@ BB#0:
	.save	{r4, r10, r11, lr}
	push	{r4, r10, r11, lr}
.Ltmp454:
	.cfi_def_cfa_offset 16
.Ltmp455:
	.cfi_offset lr, -4
.Ltmp456:
	.cfi_offset r11, -8
.Ltmp457:
	.cfi_offset r10, -12
.Ltmp458:
	.cfi_offset r4, -16
	.setfp	r11, sp, #8
	add	r11, sp, #8
.Ltmp459:
	.cfi_def_cfa r11, 8
	@DEBUG_VALUE: unload_sofa:this <- %R0
	mov	r4, r0
.Ltmp460:
	@DEBUG_VALUE: unload_sofa:this <- %R4
	.loc	43 387 17 prologue_end  @ /root/Bela/projects/SOFAlizer-for-Bela/bela_sofa.cpp:387:17
	ldr	r0, [r4, #100]
	.loc	43 387 5 is_stmt 0      @ /root/Bela/projects/SOFAlizer-for-Bela/bela_sofa.cpp:387:5
	bl	mysofa_free
	.loc	43 388 24 is_stmt 1     @ /root/Bela/projects/SOFAlizer-for-Bela/bela_sofa.cpp:388:24
	ldr	r0, [r4, #104]
	.loc	43 388 5 is_stmt 0      @ /root/Bela/projects/SOFAlizer-for-Bela/bela_sofa.cpp:388:5
	bl	mysofa_lookup_free
	.loc	43 389 30 is_stmt 1     @ /root/Bela/projects/SOFAlizer-for-Bela/bela_sofa.cpp:389:30
	ldr	r0, [r4, #108]
	.loc	43 389 5 is_stmt 0      @ /root/Bela/projects/SOFAlizer-for-Bela/bela_sofa.cpp:389:5
	pop	{r4, r10, r11, lr}
.Ltmp461:
	b	mysofa_neighborhood_free
.Ltmp462:
.Lfunc_end11:
	.size	_ZN8HRTFData11unload_sofaEv, .Lfunc_end11-_ZN8HRTFData11unload_sofaEv
	.cfi_endproc
	.fnend

	.globl	_ZN8HRTFData15normalizeTDdataEf
	.p2align	2
	.type	_ZN8HRTFData15normalizeTDdataEf,%function
_ZN8HRTFData15normalizeTDdataEf:        @ @_ZN8HRTFData15normalizeTDdataEf
.Lfunc_begin12:
	.loc	43 401 0 is_stmt 1      @ /root/Bela/projects/SOFAlizer-for-Bela/bela_sofa.cpp:401:0
	.fnstart
	.cfi_startproc
@ BB#0:
	.save	{r4, r5, r11, lr}
	push	{r4, r5, r11, lr}
.Ltmp463:
	.cfi_def_cfa_offset 16
.Ltmp464:
	.cfi_offset lr, -4
.Ltmp465:
	.cfi_offset r11, -8
.Ltmp466:
	.cfi_offset r5, -12
.Ltmp467:
	.cfi_offset r4, -16
	@DEBUG_VALUE: normalizeTDdata:this <- %R0
	@DEBUG_VALUE: normalizeTDdata:normalization_percentage <- %S0
.Ltmp468:
	.loc	43 404 34 prologue_end  @ /root/Bela/projects/SOFAlizer-for-Bela/bela_sofa.cpp:404:34
	vmov.f32	d1, #1.000000e+00
	mov	r1, r0
.Ltmp469:
	@DEBUG_VALUE: normalizeTDdata:this <- %R1
	mvn	r0, #0
	.loc	43 404 38 is_stmt 0     @ /root/Bela/projects/SOFAlizer-for-Bela/bela_sofa.cpp:404:38
	vcmpe.f32	s0, s2
	vmrs	APSR_nzcv, fpscr
	bgt	.LBB12_20
.Ltmp470:
@ BB#1:
	@DEBUG_VALUE: normalizeTDdata:this <- %R1
	@DEBUG_VALUE: normalizeTDdata:normalization_percentage <- %S0
	vcmpe.f32	s0, #0
	vmrs	APSR_nzcv, fpscr
	blt	.LBB12_20
.Ltmp471:
@ BB#2:
	@DEBUG_VALUE: normalizeTDdata:this <- %R1
	@DEBUG_VALUE: normalizeTDdata:normalization_percentage <- %S0
	mov	r0, #0
	beq	.LBB12_20
.Ltmp472:
@ BB#3:
	@DEBUG_VALUE: normalizeTDdata:this <- %R1
	@DEBUG_VALUE: normalizeTDdata:normalization_percentage <- %S0
	@DEBUG_VALUE: max <- 0.000000e+00
	.loc	43 428 38 is_stmt 1 discriminator 1 @ /root/Bela/projects/SOFAlizer-for-Bela/bela_sofa.cpp:428:38
	ldr	r2, [r1, #100]
.Ltmp473:
	.loc	43 417 28               @ /root/Bela/projects/SOFAlizer-for-Bela/bela_sofa.cpp:417:28
	ldr	r0, [r1, #160]
	.loc	43 417 61 is_stmt 0     @ /root/Bela/projects/SOFAlizer-for-Bela/bela_sofa.cpp:417:61
	ldr	r3, [r2, #16]
	.loc	43 417 73               @ /root/Bela/projects/SOFAlizer-for-Bela/bela_sofa.cpp:417:73
	ldr	r1, [r2, #8]
.Ltmp474:
	.loc	43 417 51               @ /root/Bela/projects/SOFAlizer-for-Bela/bela_sofa.cpp:417:51
	mul	r5, r3, r0
	.loc	43 418 85 is_stmt 1     @ /root/Bela/projects/SOFAlizer-for-Bela/bela_sofa.cpp:418:85
	mul	r3, r1, r3
	.loc	43 418 73 is_stmt 0     @ /root/Bela/projects/SOFAlizer-for-Bela/bela_sofa.cpp:418:73
	mla	r0, r5, r1, r3
.Ltmp475:
	@DEBUG_VALUE: search_end <- %R0
	.loc	43 417 63 is_stmt 1     @ /root/Bela/projects/SOFAlizer-for-Bela/bela_sofa.cpp:417:63
	mul	r4, r5, r1
.Ltmp476:
	@DEBUG_VALUE: search_start <- %R4
	@DEBUG_VALUE: i <- %R4
	.loc	43 420 9 discriminator 1 @ /root/Bela/projects/SOFAlizer-for-Bela/bela_sofa.cpp:420:9
	cmp	r4, r0
	bhs	.LBB12_9
.Ltmp477:
@ BB#4:                                 @ %.lr.ph36
	@DEBUG_VALUE: i <- %R4
	@DEBUG_VALUE: search_start <- %R4
	@DEBUG_VALUE: search_end <- %R0
	@DEBUG_VALUE: normalizeTDdata:normalization_percentage <- %S0
	.loc	43 421 38               @ /root/Bela/projects/SOFAlizer-for-Bela/bela_sofa.cpp:421:38
	ldr	r12, [r2, #96]
.Ltmp478:
	.loc	43 420 9 discriminator 1 @ /root/Bela/projects/SOFAlizer-for-Bela/bela_sofa.cpp:420:9
	cmp	r3, #3
	bls	.LBB12_10
.Ltmp479:
@ BB#5:                                 @ %min.iters.checked
	@DEBUG_VALUE: i <- %R4
	@DEBUG_VALUE: search_start <- %R4
	@DEBUG_VALUE: search_end <- %R0
	@DEBUG_VALUE: normalizeTDdata:normalization_percentage <- %S0
	mov	r1, r3
	bfc	r1, #0, #2
	cmp	r1, #0
	beq	.LBB12_10
.Ltmp480:
@ BB#6:                                 @ %vector.body.preheader
	@DEBUG_VALUE: i <- %R4
	@DEBUG_VALUE: search_start <- %R4
	@DEBUG_VALUE: search_end <- %R0
	@DEBUG_VALUE: normalizeTDdata:normalization_percentage <- %S0
	vmov.i32	q8, #0x0
	add	lr, r4, r1
	add	r4, r12, r4, lsl #2
.Ltmp481:
	mov	r5, r1
.Ltmp482:
.LBB12_7:                               @ %vector.body
                                        @ =>This Inner Loop Header: Depth=1
	.loc	43 421 23               @ /root/Bela/projects/SOFAlizer-for-Bela/bela_sofa.cpp:421:23
	vld1.32	{d18, d19}, [r4]!
.Ltmp483:
	.loc	43 420 9 discriminator 1 @ /root/Bela/projects/SOFAlizer-for-Bela/bela_sofa.cpp:420:9
	subs	r5, r5, #4
.Ltmp484:
	.loc	43 421 17               @ /root/Bela/projects/SOFAlizer-for-Bela/bela_sofa.cpp:421:17
	vabs.f32	q9, q9
.Ltmp485:
	.loc	43 421 17 is_stmt 0     @ /root/Bela/projects/SOFAlizer-for-Bela/bela_sofa.cpp:421:17
	vmax.f32	q8, q9, q8
.Ltmp486:
	.loc	43 420 9 is_stmt 1 discriminator 1 @ /root/Bela/projects/SOFAlizer-for-Bela/bela_sofa.cpp:420:9
	bne	.LBB12_7
@ BB#8:                                 @ %middle.block
.Ltmp487:
	.loc	43 421 17               @ /root/Bela/projects/SOFAlizer-for-Bela/bela_sofa.cpp:421:17
	vext.32	q9, q8, q8, #2
	vmax.f32	q1, q8, q9
	vdup.32	q8, d2[1]
	vcgt.f32	q8, q1, q8
	vmovn.i32	d16, q8
	vmov.u16	r4, d16[0]
	tst	r4, #1
	vmovne.f32	s5, s4
.Ltmp488:
	.loc	43 420 9 discriminator 1 @ /root/Bela/projects/SOFAlizer-for-Bela/bela_sofa.cpp:420:9
	cmp	r3, r1
	vmov.f32	s2, s5
	bne	.LBB12_11
	b	.LBB12_13
.LBB12_9:
.Ltmp489:
	@DEBUG_VALUE: i <- %R4
	@DEBUG_VALUE: search_start <- %R4
	@DEBUG_VALUE: search_end <- %R0
	@DEBUG_VALUE: normalizeTDdata:normalization_percentage <- %S0
	vmov.i32	d1, #0x0
	b	.LBB12_13
.Ltmp490:
.LBB12_10:
	@DEBUG_VALUE: i <- %R4
	@DEBUG_VALUE: search_start <- %R4
	@DEBUG_VALUE: search_end <- %R0
	@DEBUG_VALUE: normalizeTDdata:normalization_percentage <- %S0
	vmov.i32	d1, #0x0
	mov	lr, r4
	vmov.f32	s5, s2
.Ltmp491:
.LBB12_11:                              @ %scalar.ph.preheader
	vmov.f32	s2, s5
.Ltmp492:
	.loc	43 421 23               @ /root/Bela/projects/SOFAlizer-for-Bela/bela_sofa.cpp:421:23
	sub	r0, r0, lr
	add	r1, r12, lr, lsl #2
.LBB12_12:                              @ %scalar.ph
                                        @ =>This Inner Loop Header: Depth=1
	vldr	s4, [r1]
.Ltmp493:
	.loc	43 420 9 discriminator 1 @ /root/Bela/projects/SOFAlizer-for-Bela/bela_sofa.cpp:420:9
	subs	r0, r0, #1
.Ltmp494:
	@DEBUG_VALUE: max <- undef
	add	r1, r1, #4
.Ltmp495:
	.loc	43 421 17               @ /root/Bela/projects/SOFAlizer-for-Bela/bela_sofa.cpp:421:17
	vabs.f32	d16, d2
.Ltmp496:
	.loc	43 421 17 is_stmt 0     @ /root/Bela/projects/SOFAlizer-for-Bela/bela_sofa.cpp:421:17
	vmax.f32	d1, d16, d1
	bne	.LBB12_12
.Ltmp497:
.LBB12_13:                              @ %._crit_edge
	@DEBUG_VALUE: i <- 0
	.loc	43 428 53 is_stmt 1 discriminator 1 @ /root/Bela/projects/SOFAlizer-for-Bela/bela_sofa.cpp:428:53
	ldr	r1, [r2, #100]
	mov	r0, #1
	.loc	43 428 9 is_stmt 0 discriminator 1 @ /root/Bela/projects/SOFAlizer-for-Bela/bela_sofa.cpp:428:9
	cmp	r1, #0
.Ltmp498:
	.loc	43 434 1 is_stmt 1      @ /root/Bela/projects/SOFAlizer-for-Bela/bela_sofa.cpp:434:1
	popeq	{r4, r5, r11, pc}
.Ltmp499:
	.loc	43 426 43               @ /root/Bela/projects/SOFAlizer-for-Bela/bela_sofa.cpp:426:43
	vdiv.f32	s0, s0, s2
.Ltmp500:
	@DEBUG_VALUE: factor <- %S0
	.loc	43 429 55               @ /root/Bela/projects/SOFAlizer-for-Bela/bela_sofa.cpp:429:55
	ldr	r12, [r2, #96]
	mov	r3, #0
.Ltmp501:
	.loc	43 428 9 discriminator 1 @ /root/Bela/projects/SOFAlizer-for-Bela/bela_sofa.cpp:428:9
	cmp	r1, #3
	bls	.LBB12_18
.Ltmp502:
@ BB#14:                                @ %min.iters.checked46
	@DEBUG_VALUE: factor <- %S0
	mov	r2, r1
	bfc	r2, #0, #2
	cmp	r2, #0
	beq	.LBB12_18
.Ltmp503:
@ BB#15:                                @ %vector.ph50
	@DEBUG_VALUE: factor <- %S0
	vdup.32	q8, d0[0]
	.loc	43 428 64 is_stmt 0 discriminator 3 @ /root/Bela/projects/SOFAlizer-for-Bela/bela_sofa.cpp:428:64
	mov	r3, r2
	mov	r5, r12
.Ltmp504:
.LBB12_16:                              @ %vector.body42
                                        @ =>This Inner Loop Header: Depth=1
	.loc	43 429 40 is_stmt 1     @ /root/Bela/projects/SOFAlizer-for-Bela/bela_sofa.cpp:429:40
	vld1.32	{d18, d19}, [r5]
.Ltmp505:
	.loc	43 428 9 discriminator 1 @ /root/Bela/projects/SOFAlizer-for-Bela/bela_sofa.cpp:428:9
	subs	r3, r3, #4
.Ltmp506:
	.loc	43 429 65               @ /root/Bela/projects/SOFAlizer-for-Bela/bela_sofa.cpp:429:65
	vmul.f32	q9, q9, q8
	.loc	43 429 38 is_stmt 0     @ /root/Bela/projects/SOFAlizer-for-Bela/bela_sofa.cpp:429:38
	vst1.32	{d18, d19}, [r5]!
.Ltmp507:
	.loc	43 428 9 is_stmt 1 discriminator 1 @ /root/Bela/projects/SOFAlizer-for-Bela/bela_sofa.cpp:428:9
	bne	.LBB12_16
@ BB#17:                                @ %middle.block43
	mov	r3, r2
	cmp	r1, r2
	beq	.LBB12_20
.LBB12_18:                              @ %scalar.ph44.preheader
.Ltmp508:
	.loc	43 429 40               @ /root/Bela/projects/SOFAlizer-for-Bela/bela_sofa.cpp:429:40
	add	r2, r12, r3, lsl #2
.LBB12_19:                              @ %scalar.ph44
                                        @ =>This Inner Loop Header: Depth=1
	vldr	s2, [r2]
.Ltmp509:
	.loc	43 428 64 discriminator 3 @ /root/Bela/projects/SOFAlizer-for-Bela/bela_sofa.cpp:428:64
	add	r3, r3, #1
.Ltmp510:
	@DEBUG_VALUE: i <- %R3
	.loc	43 428 9 is_stmt 0 discriminator 1 @ /root/Bela/projects/SOFAlizer-for-Bela/bela_sofa.cpp:428:9
	cmp	r3, r1
.Ltmp511:
	.loc	43 429 65 is_stmt 1     @ /root/Bela/projects/SOFAlizer-for-Bela/bela_sofa.cpp:429:65
	vmul.f32	d1, d1, d0
	.loc	43 429 38 is_stmt 0     @ /root/Bela/projects/SOFAlizer-for-Bela/bela_sofa.cpp:429:38
	vstmia	r2!, {s2}
	blo	.LBB12_19
.Ltmp512:
.LBB12_20:                              @ %.loopexit
	.loc	43 434 1 is_stmt 1      @ /root/Bela/projects/SOFAlizer-for-Bela/bela_sofa.cpp:434:1
	pop	{r4, r5, r11, pc}
.Ltmp513:
.Lfunc_end12:
	.size	_ZN8HRTFData15normalizeTDdataEf, .Lfunc_end12-_ZN8HRTFData15normalizeTDdataEf
	.cfi_endproc
	.fnend

	.section	.text.__clang_call_terminate,"axG",%progbits,__clang_call_terminate,comdat
	.hidden	__clang_call_terminate
	.weak	__clang_call_terminate
	.p2align	2
	.type	__clang_call_terminate,%function
__clang_call_terminate:                 @ @__clang_call_terminate
.Lfunc_begin13:
	.fnstart
	.cfi_startproc
@ BB#0:
	.save	{r11, lr}
	push	{r11, lr}
.Ltmp514:
	.cfi_def_cfa_offset 8
.Ltmp515:
	.cfi_offset lr, -4
.Ltmp516:
	.cfi_offset r11, -8
	bl	__cxa_begin_catch
	mov	lr, pc
	b	_ZSt9terminatev
.Lfunc_end13:
	.size	__clang_call_terminate, .Lfunc_end13-__clang_call_terminate
	.cfi_endproc
	.cantunwind
	.fnend

	.section	.text._ZNSt6vectorI8HRTFDataSaIS0_EE19_M_emplace_back_auxIJRKS0_EEEvDpOT_,"axG",%progbits,_ZNSt6vectorI8HRTFDataSaIS0_EE19_M_emplace_back_auxIJRKS0_EEEvDpOT_,comdat
	.weak	_ZNSt6vectorI8HRTFDataSaIS0_EE19_M_emplace_back_auxIJRKS0_EEEvDpOT_
	.p2align	2
	.type	_ZNSt6vectorI8HRTFDataSaIS0_EE19_M_emplace_back_auxIJRKS0_EEEvDpOT_,%function
_ZNSt6vectorI8HRTFDataSaIS0_EE19_M_emplace_back_auxIJRKS0_EEEvDpOT_: @ @_ZNSt6vectorI8HRTFDataSaIS0_EE19_M_emplace_back_auxIJRKS0_EEEvDpOT_
.Lfunc_begin14:
	.file	48 "/usr/bin/../lib/gcc/arm-linux-gnueabihf/6.3.0/../../../../include/c++/6.3.0/bits" "vector.tcc"
	.loc	48 409 0                @ /usr/bin/../lib/gcc/arm-linux-gnueabihf/6.3.0/../../../../include/c++/6.3.0/bits/vector.tcc:409:0
	.fnstart
	.cfi_startproc
@ BB#0:                                 @ %_ZNKSt6vectorI8HRTFDataSaIS0_EE12_M_check_lenEjPKc.exit
	.save	{r4, r5, r6, r7, r8, r9, r10, r11, lr}
	push	{r4, r5, r6, r7, r8, r9, r10, r11, lr}
.Ltmp528:
	.cfi_def_cfa_offset 36
.Ltmp529:
	.cfi_offset lr, -4
.Ltmp530:
	.cfi_offset r11, -8
.Ltmp531:
	.cfi_offset r10, -12
.Ltmp532:
	.cfi_offset r9, -16
.Ltmp533:
	.cfi_offset r8, -20
.Ltmp534:
	.cfi_offset r7, -24
.Ltmp535:
	.cfi_offset r6, -28
.Ltmp536:
	.cfi_offset r5, -32
.Ltmp537:
	.cfi_offset r4, -36
	.setfp	r11, sp, #28
	add	r11, sp, #28
.Ltmp538:
	.cfi_def_cfa r11, 8
	.pad	#4
	sub	sp, sp, #4
	@DEBUG_VALUE: _M_emplace_back_aux<const HRTFData &>:this <- %R0
	@DEBUG_VALUE: _M_emplace_back_aux<const HRTFData &>:__args <- %R1
	mov	r5, r0
.Ltmp539:
	@DEBUG_VALUE: size:this <- %R5
	@DEBUG_VALUE: _M_check_len:__n <- 1
	@DEBUG_VALUE: _M_check_len:this <- %R5
	@DEBUG_VALUE: _M_emplace_back_aux<const HRTFData &>:this <- %R5
	mov	r6, r1
.Ltmp540:
	@DEBUG_VALUE: _M_emplace_back_aux<const HRTFData &>:__args <- %R6
	.loc	13 656 66 prologue_end  @ /usr/bin/../lib/gcc/arm-linux-gnueabihf/6.3.0/../../../../include/c++/6.3.0/bits/stl_vector.h:656:66
	ldm	r5, {r0, r1}
	.loc	13 656 50 is_stmt 0     @ /usr/bin/../lib/gcc/arm-linux-gnueabihf/6.3.0/../../../../include/c++/6.3.0/bits/stl_vector.h:656:50
	movw	r4, #39961
	movt	r4, #49551
	subs	r2, r1, r0
	mov	r10, #0
	asr	r2, r2, #2
	mul	r3, r2, r4
.Ltmp541:
	@DEBUG_VALUE: size:this <- %R5
	@DEBUG_VALUE: size:this <- %R5
	.loc	13 1425 35 is_stmt 1    @ /usr/bin/../lib/gcc/arm-linux-gnueabihf/6.3.0/../../../../include/c++/6.3.0/bits/stl_vector.h:1425:35
	movweq	r3, #1
	mla	r7, r2, r4, r3
	movw	r2, #39960
	movt	r2, #399
.Ltmp542:
	@DEBUG_VALUE: size:this <- %R5
	.loc	13 1426 25              @ /usr/bin/../lib/gcc/arm-linux-gnueabihf/6.3.0/../../../../include/c++/6.3.0/bits/stl_vector.h:1426:25
	cmp	r7, r2
	mov	r9, r7
	movwhi	r9, #39960
	movthi	r9, #399
	cmp	r7, r3
	movlo	r9, r2
.Ltmp543:
	@DEBUG_VALUE: _M_allocate:__n <- %R9
	@DEBUG_VALUE: _M_emplace_back_aux<const HRTFData &>:__len <- %R9
	@DEBUG_VALUE: allocate:__n <- %R9
	@DEBUG_VALUE: allocate:__n <- %R9
	@DEBUG_VALUE: _M_deallocate:__n <- %R9
	@DEBUG_VALUE: deallocate:__n <- %R9
	@DEBUG_VALUE: deallocate: <- %R9
	.loc	13 170 9                @ /usr/bin/../lib/gcc/arm-linux-gnueabihf/6.3.0/../../../../include/c++/6.3.0/bits/stl_vector.h:170:9
	cmp	r9, #0
.Ltmp544:
	@DEBUG_VALUE: _M_check_len:__len <- %R7
	beq	.LBB14_3
.Ltmp545:
@ BB#1:
	@DEBUG_VALUE: _M_check_len:__len <- %R7
	@DEBUG_VALUE: deallocate: <- %R9
	@DEBUG_VALUE: deallocate:__n <- %R9
	@DEBUG_VALUE: _M_deallocate:__n <- %R9
	@DEBUG_VALUE: allocate:__n <- %R9
	@DEBUG_VALUE: allocate:__n <- %R9
	@DEBUG_VALUE: _M_emplace_back_aux<const HRTFData &>:__len <- %R9
	@DEBUG_VALUE: _M_allocate:__n <- %R9
	@DEBUG_VALUE: size:this <- %R5
	@DEBUG_VALUE: size:this <- %R5
	@DEBUG_VALUE: size:this <- %R5
	@DEBUG_VALUE: _M_emplace_back_aux<const HRTFData &>:__args <- %R6
	@DEBUG_VALUE: _M_emplace_back_aux<const HRTFData &>:this <- %R5
	@DEBUG_VALUE: _M_check_len:this <- %R5
	@DEBUG_VALUE: size:this <- %R5
	.loc	9 101 6                 @ /usr/bin/../lib/gcc/arm-linux-gnueabihf/6.3.0/../../../../include/c++/6.3.0/ext/new_allocator.h:101:6
	cmp	r9, r2
	bhi	.LBB14_15
.Ltmp546:
@ BB#2:                                 @ %_ZNSt16allocator_traitsISaI8HRTFDataEE8allocateERS1_j.exit.i
	@DEBUG_VALUE: _M_check_len:__len <- %R7
	@DEBUG_VALUE: deallocate: <- %R9
	@DEBUG_VALUE: deallocate:__n <- %R9
	@DEBUG_VALUE: _M_deallocate:__n <- %R9
	@DEBUG_VALUE: allocate:__n <- %R9
	@DEBUG_VALUE: allocate:__n <- %R9
	@DEBUG_VALUE: _M_emplace_back_aux<const HRTFData &>:__len <- %R9
	@DEBUG_VALUE: _M_allocate:__n <- %R9
	@DEBUG_VALUE: size:this <- %R5
	@DEBUG_VALUE: size:this <- %R5
	@DEBUG_VALUE: size:this <- %R5
	@DEBUG_VALUE: _M_emplace_back_aux<const HRTFData &>:__args <- %R6
	@DEBUG_VALUE: _M_emplace_back_aux<const HRTFData &>:this <- %R5
	@DEBUG_VALUE: _M_check_len:this <- %R5
	@DEBUG_VALUE: size:this <- %R5
	.loc	9 104 46                @ /usr/bin/../lib/gcc/arm-linux-gnueabihf/6.3.0/../../../../include/c++/6.3.0/ext/new_allocator.h:104:46
	mov	r0, #164
	mul	r0, r9, r0
	.loc	9 104 27 is_stmt 0      @ /usr/bin/../lib/gcc/arm-linux-gnueabihf/6.3.0/../../../../include/c++/6.3.0/ext/new_allocator.h:104:27
	bl	_Znwj
	mov	r10, r0
.Ltmp547:
	.loc	13 656 66 is_stmt 1     @ /usr/bin/../lib/gcc/arm-linux-gnueabihf/6.3.0/../../../../include/c++/6.3.0/bits/stl_vector.h:656:66
	ldm	r5, {r0, r1}
.Ltmp548:
.LBB14_3:                               @ %_ZNSt12_Vector_baseI8HRTFDataSaIS0_EE11_M_allocateEj.exit
	@DEBUG_VALUE: _M_check_len:__len <- %R7
	@DEBUG_VALUE: deallocate: <- %R9
	@DEBUG_VALUE: deallocate:__n <- %R9
	@DEBUG_VALUE: _M_deallocate:__n <- %R9
	@DEBUG_VALUE: allocate:__n <- %R9
	@DEBUG_VALUE: allocate:__n <- %R9
	@DEBUG_VALUE: _M_emplace_back_aux<const HRTFData &>:__len <- %R9
	@DEBUG_VALUE: _M_allocate:__n <- %R9
	@DEBUG_VALUE: size:this <- %R5
	@DEBUG_VALUE: size:this <- %R5
	@DEBUG_VALUE: size:this <- %R5
	@DEBUG_VALUE: _M_emplace_back_aux<const HRTFData &>:__args <- %R6
	@DEBUG_VALUE: _M_emplace_back_aux<const HRTFData &>:this <- %R5
	@DEBUG_VALUE: _M_check_len:this <- %R5
	@DEBUG_VALUE: size:this <- %R5
	@DEBUG_VALUE: _M_emplace_back_aux<const HRTFData &>:__new_finish <- %R10
	.loc	13 656 50 is_stmt 0     @ /usr/bin/../lib/gcc/arm-linux-gnueabihf/6.3.0/../../../../include/c++/6.3.0/bits/stl_vector.h:656:50
	sub	r0, r1, r0
	mov	r7, r4
.Ltmp549:
	.loc	48 416 58 is_stmt 1     @ /usr/bin/../lib/gcc/arm-linux-gnueabihf/6.3.0/../../../../include/c++/6.3.0/bits/vector.tcc:416:58
	add	r0, r10, r0
.Ltmp550:
	@DEBUG_VALUE: construct<HRTFData, const HRTFData &>:__p <- %R0
	@DEBUG_VALUE: construct<HRTFData, const HRTFData &>:__p <- %R0
	.loc	9 120 23 discriminator 1 @ /usr/bin/../lib/gcc/arm-linux-gnueabihf/6.3.0/../../../../include/c++/6.3.0/ext/new_allocator.h:120:23
.Ltmp517:
	mov	r1, r6
	mov	r4, r10
.Ltmp551:
	@DEBUG_VALUE: construct<HRTFData, const HRTFData &>:__args <- %R6
	bl	_ZN8HRTFDataC2ERKS_
.Ltmp552:
.Ltmp518:
.Ltmp553:
@ BB#4:                                 @ %_ZNSt16allocator_traitsISaI8HRTFDataEE9constructIS0_JRKS0_EEEvRS1_PT_DpOT0_.exit
	@DEBUG_VALUE: construct<HRTFData, const HRTFData &>:__args <- %R6
	@DEBUG_VALUE: _M_emplace_back_aux<const HRTFData &>:__new_finish <- %R10
	@DEBUG_VALUE: deallocate: <- %R9
	@DEBUG_VALUE: deallocate:__n <- %R9
	@DEBUG_VALUE: _M_deallocate:__n <- %R9
	@DEBUG_VALUE: allocate:__n <- %R9
	@DEBUG_VALUE: allocate:__n <- %R9
	@DEBUG_VALUE: _M_emplace_back_aux<const HRTFData &>:__len <- %R9
	@DEBUG_VALUE: _M_allocate:__n <- %R9
	@DEBUG_VALUE: size:this <- %R5
	@DEBUG_VALUE: size:this <- %R5
	@DEBUG_VALUE: size:this <- %R5
	@DEBUG_VALUE: _M_emplace_back_aux<const HRTFData &>:__args <- %R6
	@DEBUG_VALUE: _M_emplace_back_aux<const HRTFData &>:this <- %R5
	@DEBUG_VALUE: _M_check_len:this <- %R5
	@DEBUG_VALUE: size:this <- %R5
	.loc	48 422 23               @ /usr/bin/../lib/gcc/arm-linux-gnueabihf/6.3.0/../../../../include/c++/6.3.0/bits/vector.tcc:422:23
	ldm	r5, {r0, r1}
	mov	r4, #0
.Ltmp554:
	@DEBUG_VALUE: uninitialized_copy<const HRTFData *, HRTFData *>:__last <- %R1
	@DEBUG_VALUE: size:this <- %R5
	@DEBUG_VALUE: __uninitialized_copy_a<const HRTFData *, HRTFData *, HRTFData>:__last <- %R1
	@DEBUG_VALUE: __uninitialized_move_if_noexcept_a<HRTFData *, HRTFData *, std::allocator<HRTFData> >:__last <- %R1
	@DEBUG_VALUE: __uninitialized_move_if_noexcept_a<HRTFData *, HRTFData *, std::allocator<HRTFData> >:__first <- %R0
	@DEBUG_VALUE: __uninitialized_copy_a<const HRTFData *, HRTFData *, HRTFData>:__first <- %R0
	@DEBUG_VALUE: uninitialized_copy<const HRTFData *, HRTFData *>:__first <- %R0
	@DEBUG_VALUE: _M_emplace_back_aux<const HRTFData &>:__new_finish <- %R4
	.loc	47 123 14               @ /usr/bin/../lib/gcc/arm-linux-gnueabihf/6.3.0/../../../../include/c++/6.3.0/bits/stl_uninitialized.h:123:14
.Ltmp519:
	mov	r2, r10
	bl	_ZNSt20__uninitialized_copyILb0EE13__uninit_copyIPK8HRTFDataPS2_EET0_T_S7_S6_
.Ltmp555:
	mov	r8, r0
.Ltmp520:
.Ltmp556:
	@DEBUG_VALUE: uninitialized_copy<const HRTFData *, HRTFData *>:__assignable <- 1
@ BB#5:                                 @ %_ZSt34__uninitialized_move_if_noexcept_aIP8HRTFDataS1_SaIS0_EET0_T_S4_S3_RT1_.exit
	@DEBUG_VALUE: _M_emplace_back_aux<const HRTFData &>:__new_finish <- %R4
	@DEBUG_VALUE: size:this <- %R5
	@DEBUG_VALUE: construct<HRTFData, const HRTFData &>:__args <- %R6
	@DEBUG_VALUE: deallocate: <- %R9
	@DEBUG_VALUE: deallocate:__n <- %R9
	@DEBUG_VALUE: _M_deallocate:__n <- %R9
	@DEBUG_VALUE: allocate:__n <- %R9
	@DEBUG_VALUE: allocate:__n <- %R9
	@DEBUG_VALUE: _M_emplace_back_aux<const HRTFData &>:__len <- %R9
	@DEBUG_VALUE: _M_allocate:__n <- %R9
	@DEBUG_VALUE: size:this <- %R5
	@DEBUG_VALUE: size:this <- %R5
	@DEBUG_VALUE: size:this <- %R5
	@DEBUG_VALUE: _M_emplace_back_aux<const HRTFData &>:__args <- %R6
	@DEBUG_VALUE: _M_emplace_back_aux<const HRTFData &>:this <- %R5
	@DEBUG_VALUE: _M_check_len:this <- %R5
	@DEBUG_VALUE: size:this <- %R5
	@DEBUG_VALUE: _M_emplace_back_aux<const HRTFData &>:__new_finish <- undef
	@DEBUG_VALUE: __destroy<HRTFData *>:__first <- %R6
	@DEBUG_VALUE: _Destroy<HRTFData *>:__first <- %R6
	@DEBUG_VALUE: _Destroy<HRTFData *, HRTFData>:__first <- %R6
	@DEBUG_VALUE: _Destroy<HRTFData *, HRTFData>:__last <- %R4
	@DEBUG_VALUE: _Destroy<HRTFData *>:__last <- %R4
	@DEBUG_VALUE: __destroy<HRTFData *>:__last <- %R4
	.loc	48 436 30               @ /usr/bin/../lib/gcc/arm-linux-gnueabihf/6.3.0/../../../../include/c++/6.3.0/bits/vector.tcc:436:30
	ldr	r6, [r5]
.Ltmp557:
	.loc	48 436 54 is_stmt 0     @ /usr/bin/../lib/gcc/arm-linux-gnueabihf/6.3.0/../../../../include/c++/6.3.0/bits/vector.tcc:436:54
	ldr	r4, [r5, #4]
.Ltmp558:
	.file	49 "/usr/bin/../lib/gcc/arm-linux-gnueabihf/6.3.0/../../../../include/c++/6.3.0/bits" "stl_construct.h"
	.loc	49 102 4 is_stmt 1 discriminator 1 @ /usr/bin/../lib/gcc/arm-linux-gnueabihf/6.3.0/../../../../include/c++/6.3.0/bits/stl_construct.h:102:4
	cmp	r6, r4
	beq	.LBB14_12
.Ltmp559:
.LBB14_6:                               @ %.lr.ph.i.i.i28
                                        @ =>This Inner Loop Header: Depth=1
	@DEBUG_VALUE: __addressof<HRTFData>:__r <- %R6
	.loc	13 160 37               @ /usr/bin/../lib/gcc/arm-linux-gnueabihf/6.3.0/../../../../include/c++/6.3.0/bits/stl_vector.h:160:37
	ldr	r0, [r6, #132]
.Ltmp560:
	@DEBUG_VALUE: _M_deallocate:__p <- %R0
	@DEBUG_VALUE: deallocate:__p <- %R0
	@DEBUG_VALUE: deallocate:__p <- %R0
	.loc	13 177 6                @ /usr/bin/../lib/gcc/arm-linux-gnueabihf/6.3.0/../../../../include/c++/6.3.0/bits/stl_vector.h:177:6
	cmp	r0, #0
	beq	.LBB14_8
.Ltmp561:
@ BB#7:                                 @   in Loop: Header=BB14_6 Depth=1
	@DEBUG_VALUE: deallocate:__p <- %R0
	@DEBUG_VALUE: deallocate:__p <- %R0
	@DEBUG_VALUE: _M_deallocate:__p <- %R0
	@DEBUG_VALUE: __addressof<HRTFData>:__r <- %R6
	.loc	9 110 9                 @ /usr/bin/../lib/gcc/arm-linux-gnueabihf/6.3.0/../../../../include/c++/6.3.0/ext/new_allocator.h:110:9
	bl	_ZdlPv
.Ltmp562:
.LBB14_8:                               @ %_ZNSt6vectorIP3FftSaIS1_EED2Ev.exit.i.i.i.i.i29
                                        @   in Loop: Header=BB14_6 Depth=1
	@DEBUG_VALUE: __addressof<HRTFData>:__r <- %R6
	.loc	13 160 37               @ /usr/bin/../lib/gcc/arm-linux-gnueabihf/6.3.0/../../../../include/c++/6.3.0/bits/stl_vector.h:160:37
	ldr	r0, [r6, #120]
.Ltmp563:
	@DEBUG_VALUE: _M_deallocate:__p <- %R0
	@DEBUG_VALUE: deallocate:__p <- %R0
	@DEBUG_VALUE: deallocate:__p <- %R0
	.loc	13 177 6                @ /usr/bin/../lib/gcc/arm-linux-gnueabihf/6.3.0/../../../../include/c++/6.3.0/bits/stl_vector.h:177:6
	cmp	r0, #0
	beq	.LBB14_10
.Ltmp564:
@ BB#9:                                 @   in Loop: Header=BB14_6 Depth=1
	@DEBUG_VALUE: deallocate:__p <- %R0
	@DEBUG_VALUE: deallocate:__p <- %R0
	@DEBUG_VALUE: _M_deallocate:__p <- %R0
	@DEBUG_VALUE: __addressof<HRTFData>:__r <- %R6
	.loc	9 110 9                 @ /usr/bin/../lib/gcc/arm-linux-gnueabihf/6.3.0/../../../../include/c++/6.3.0/ext/new_allocator.h:110:9
	bl	_ZdlPv
.Ltmp565:
.LBB14_10:                              @ %_ZSt8_DestroyI8HRTFDataEvPT_.exit.i.i.i30
                                        @   in Loop: Header=BB14_6 Depth=1
	@DEBUG_VALUE: __addressof<HRTFData>:__r <- %R6
	.loc	49 102 30 discriminator 2 @ /usr/bin/../lib/gcc/arm-linux-gnueabihf/6.3.0/../../../../include/c++/6.3.0/bits/stl_construct.h:102:30
	add	r6, r6, #164
.Ltmp566:
	@DEBUG_VALUE: __destroy<HRTFData *>:__first <- %R6
	.loc	49 102 4 is_stmt 0 discriminator 1 @ /usr/bin/../lib/gcc/arm-linux-gnueabihf/6.3.0/../../../../include/c++/6.3.0/bits/stl_construct.h:102:4
	cmp	r4, r6
	bne	.LBB14_6
.Ltmp567:
@ BB#11:                                @ %_ZSt8_DestroyIP8HRTFDataS0_EvT_S2_RSaIT0_E.exit31thread-pre-split
	@DEBUG_VALUE: __destroy<HRTFData *>:__first <- %R6
	.loc	48 438 30 is_stmt 1     @ /usr/bin/../lib/gcc/arm-linux-gnueabihf/6.3.0/../../../../include/c++/6.3.0/bits/vector.tcc:438:30
	ldr	r6, [r5]
.Ltmp568:
.LBB14_12:                              @ %_ZSt8_DestroyIP8HRTFDataS0_EvT_S2_RSaIT0_E.exit31
	.loc	48 425 6                @ /usr/bin/../lib/gcc/arm-linux-gnueabihf/6.3.0/../../../../include/c++/6.3.0/bits/vector.tcc:425:6
	add	r4, r8, #164
.Ltmp569:
	@DEBUG_VALUE: _M_deallocate:__p <- %R6
	@DEBUG_VALUE: _M_emplace_back_aux<const HRTFData &>:__new_finish <- %R4
	.loc	13 177 6                @ /usr/bin/../lib/gcc/arm-linux-gnueabihf/6.3.0/../../../../include/c++/6.3.0/bits/stl_vector.h:177:6
	cmp	r6, #0
	beq	.LBB14_14
.Ltmp570:
@ BB#13:
	@DEBUG_VALUE: _M_deallocate:__p <- %R6
	@DEBUG_VALUE: _M_emplace_back_aux<const HRTFData &>:__new_finish <- %R4
	.loc	9 110 9                 @ /usr/bin/../lib/gcc/arm-linux-gnueabihf/6.3.0/../../../../include/c++/6.3.0/ext/new_allocator.h:110:9
	mov	r0, r6
	bl	_ZdlPv
.Ltmp571:
.LBB14_14:                              @ %_ZNSt12_Vector_baseI8HRTFDataSaIS0_EE13_M_deallocateEPS0_j.exit32
	@DEBUG_VALUE: _M_deallocate:__p <- %R6
	@DEBUG_VALUE: _M_emplace_back_aux<const HRTFData &>:__new_finish <- %R4
	.loc	48 443 48               @ /usr/bin/../lib/gcc/arm-linux-gnueabihf/6.3.0/../../../../include/c++/6.3.0/bits/vector.tcc:443:48
	mov	r0, #164
	.loc	48 441 25               @ /usr/bin/../lib/gcc/arm-linux-gnueabihf/6.3.0/../../../../include/c++/6.3.0/bits/vector.tcc:441:25
	str	r10, [r5]
	.loc	48 443 48               @ /usr/bin/../lib/gcc/arm-linux-gnueabihf/6.3.0/../../../../include/c++/6.3.0/bits/vector.tcc:443:48
	mla	r0, r9, r0, r10
	.loc	48 442 26               @ /usr/bin/../lib/gcc/arm-linux-gnueabihf/6.3.0/../../../../include/c++/6.3.0/bits/vector.tcc:442:26
	str	r4, [r5, #4]
	.loc	48 443 34               @ /usr/bin/../lib/gcc/arm-linux-gnueabihf/6.3.0/../../../../include/c++/6.3.0/bits/vector.tcc:443:34
	str	r0, [r5, #8]
	.loc	48 444 7 discriminator 3 @ /usr/bin/../lib/gcc/arm-linux-gnueabihf/6.3.0/../../../../include/c++/6.3.0/bits/vector.tcc:444:7
	sub	sp, r11, #28
	pop	{r4, r5, r6, r7, r8, r9, r10, r11, pc}
.Ltmp572:
.LBB14_15:
	@DEBUG_VALUE: _M_check_len:__len <- %R7
	@DEBUG_VALUE: deallocate: <- %R9
	@DEBUG_VALUE: deallocate:__n <- %R9
	@DEBUG_VALUE: _M_deallocate:__n <- %R9
	@DEBUG_VALUE: allocate:__n <- %R9
	@DEBUG_VALUE: allocate:__n <- %R9
	@DEBUG_VALUE: _M_emplace_back_aux<const HRTFData &>:__len <- %R9
	@DEBUG_VALUE: _M_allocate:__n <- %R9
	@DEBUG_VALUE: size:this <- %R5
	@DEBUG_VALUE: size:this <- %R5
	@DEBUG_VALUE: size:this <- %R5
	@DEBUG_VALUE: _M_emplace_back_aux<const HRTFData &>:__args <- %R6
	@DEBUG_VALUE: _M_emplace_back_aux<const HRTFData &>:this <- %R5
	@DEBUG_VALUE: _M_check_len:this <- %R5
	@DEBUG_VALUE: size:this <- %R5
	.loc	9 102 4                 @ /usr/bin/../lib/gcc/arm-linux-gnueabihf/6.3.0/../../../../include/c++/6.3.0/ext/new_allocator.h:102:4
	mov	lr, pc
	b	_ZSt17__throw_bad_allocv
.Ltmp573:
.LBB14_16:
	@DEBUG_VALUE: construct<HRTFData, const HRTFData &>:__args <- %R6
	@DEBUG_VALUE: deallocate: <- %R9
	@DEBUG_VALUE: deallocate:__n <- %R9
	@DEBUG_VALUE: _M_deallocate:__n <- %R9
	@DEBUG_VALUE: allocate:__n <- %R9
	@DEBUG_VALUE: allocate:__n <- %R9
	@DEBUG_VALUE: _M_emplace_back_aux<const HRTFData &>:__len <- %R9
	@DEBUG_VALUE: _M_allocate:__n <- %R9
	@DEBUG_VALUE: size:this <- %R5
	@DEBUG_VALUE: size:this <- %R5
	@DEBUG_VALUE: size:this <- %R5
	@DEBUG_VALUE: _M_emplace_back_aux<const HRTFData &>:__args <- %R6
	@DEBUG_VALUE: _M_emplace_back_aux<const HRTFData &>:this <- %R5
	@DEBUG_VALUE: _M_check_len:this <- %R5
	@DEBUG_VALUE: size:this <- %R5
.Ltmp521:
.Ltmp574:
	@DEBUG_VALUE: _Destroy<HRTFData *, HRTFData>:__last <- %R4
	.loc	48 426 4 discriminator 1 @ /usr/bin/../lib/gcc/arm-linux-gnueabihf/6.3.0/../../../../include/c++/6.3.0/bits/vector.tcc:426:4
	bl	__cxa_begin_catch
.Ltmp575:
	.loc	48 429 10               @ /usr/bin/../lib/gcc/arm-linux-gnueabihf/6.3.0/../../../../include/c++/6.3.0/bits/vector.tcc:429:10
	cmp	r4, #0
	beq	.LBB14_25
.Ltmp576:
@ BB#17:
	@DEBUG_VALUE: _Destroy<HRTFData *, HRTFData>:__last <- %R4
	@DEBUG_VALUE: construct<HRTFData, const HRTFData &>:__args <- %R6
	@DEBUG_VALUE: deallocate: <- %R9
	@DEBUG_VALUE: deallocate:__n <- %R9
	@DEBUG_VALUE: _M_deallocate:__n <- %R9
	@DEBUG_VALUE: allocate:__n <- %R9
	@DEBUG_VALUE: allocate:__n <- %R9
	@DEBUG_VALUE: _M_emplace_back_aux<const HRTFData &>:__len <- %R9
	@DEBUG_VALUE: _M_allocate:__n <- %R9
	@DEBUG_VALUE: size:this <- %R5
	@DEBUG_VALUE: size:this <- %R5
	@DEBUG_VALUE: size:this <- %R5
	@DEBUG_VALUE: _M_emplace_back_aux<const HRTFData &>:__args <- %R6
	@DEBUG_VALUE: _M_emplace_back_aux<const HRTFData &>:this <- %R5
	@DEBUG_VALUE: _M_check_len:this <- %R5
	@DEBUG_VALUE: size:this <- %R5
	.loc	49 102 4 discriminator 1 @ /usr/bin/../lib/gcc/arm-linux-gnueabihf/6.3.0/../../../../include/c++/6.3.0/bits/stl_construct.h:102:4
	cmp	r10, r4
	beq	.LBB14_24
.Ltmp577:
@ BB#18:                                @ %.lr.ph.i.i.i.preheader
	@DEBUG_VALUE: _Destroy<HRTFData *, HRTFData>:__last <- %R4
	@DEBUG_VALUE: construct<HRTFData, const HRTFData &>:__args <- %R6
	@DEBUG_VALUE: deallocate: <- %R9
	@DEBUG_VALUE: deallocate:__n <- %R9
	@DEBUG_VALUE: _M_deallocate:__n <- %R9
	@DEBUG_VALUE: allocate:__n <- %R9
	@DEBUG_VALUE: allocate:__n <- %R9
	@DEBUG_VALUE: _M_emplace_back_aux<const HRTFData &>:__len <- %R9
	@DEBUG_VALUE: _M_allocate:__n <- %R9
	@DEBUG_VALUE: size:this <- %R5
	@DEBUG_VALUE: size:this <- %R5
	@DEBUG_VALUE: size:this <- %R5
	@DEBUG_VALUE: _M_emplace_back_aux<const HRTFData &>:__args <- %R6
	@DEBUG_VALUE: _M_emplace_back_aux<const HRTFData &>:this <- %R5
	@DEBUG_VALUE: _M_check_len:this <- %R5
	@DEBUG_VALUE: size:this <- %R5
	.loc	49 126 7                @ /usr/bin/../lib/gcc/arm-linux-gnueabihf/6.3.0/../../../../include/c++/6.3.0/bits/stl_construct.h:126:7
	mov	r5, r10
.Ltmp578:
.LBB14_19:                              @ %.lr.ph.i.i.i
                                        @ =>This Inner Loop Header: Depth=1
	@DEBUG_VALUE: __addressof<HRTFData>:__r <- %R5
	.loc	13 160 37               @ /usr/bin/../lib/gcc/arm-linux-gnueabihf/6.3.0/../../../../include/c++/6.3.0/bits/stl_vector.h:160:37
	ldr	r0, [r5, #132]
.Ltmp579:
	@DEBUG_VALUE: _M_deallocate:__p <- %R0
	@DEBUG_VALUE: deallocate:__p <- %R0
	@DEBUG_VALUE: deallocate:__p <- %R0
	.loc	13 177 6                @ /usr/bin/../lib/gcc/arm-linux-gnueabihf/6.3.0/../../../../include/c++/6.3.0/bits/stl_vector.h:177:6
	cmp	r0, #0
	beq	.LBB14_21
.Ltmp580:
@ BB#20:                                @   in Loop: Header=BB14_19 Depth=1
	@DEBUG_VALUE: deallocate:__p <- %R0
	@DEBUG_VALUE: deallocate:__p <- %R0
	@DEBUG_VALUE: _M_deallocate:__p <- %R0
	@DEBUG_VALUE: __addressof<HRTFData>:__r <- %R5
	.loc	9 110 9                 @ /usr/bin/../lib/gcc/arm-linux-gnueabihf/6.3.0/../../../../include/c++/6.3.0/ext/new_allocator.h:110:9
	bl	_ZdlPv
.Ltmp581:
.LBB14_21:                              @ %_ZNSt6vectorIP3FftSaIS1_EED2Ev.exit.i.i.i.i.i
                                        @   in Loop: Header=BB14_19 Depth=1
	@DEBUG_VALUE: __addressof<HRTFData>:__r <- %R5
	.loc	13 160 37               @ /usr/bin/../lib/gcc/arm-linux-gnueabihf/6.3.0/../../../../include/c++/6.3.0/bits/stl_vector.h:160:37
	ldr	r0, [r5, #120]
.Ltmp582:
	@DEBUG_VALUE: _M_deallocate:__p <- %R0
	@DEBUG_VALUE: deallocate:__p <- %R0
	@DEBUG_VALUE: deallocate:__p <- %R0
	.loc	13 177 6                @ /usr/bin/../lib/gcc/arm-linux-gnueabihf/6.3.0/../../../../include/c++/6.3.0/bits/stl_vector.h:177:6
	cmp	r0, #0
	beq	.LBB14_23
.Ltmp583:
@ BB#22:                                @   in Loop: Header=BB14_19 Depth=1
	@DEBUG_VALUE: deallocate:__p <- %R0
	@DEBUG_VALUE: deallocate:__p <- %R0
	@DEBUG_VALUE: _M_deallocate:__p <- %R0
	@DEBUG_VALUE: __addressof<HRTFData>:__r <- %R5
	.loc	9 110 9                 @ /usr/bin/../lib/gcc/arm-linux-gnueabihf/6.3.0/../../../../include/c++/6.3.0/ext/new_allocator.h:110:9
	bl	_ZdlPv
.Ltmp584:
.LBB14_23:                              @ %_ZSt8_DestroyI8HRTFDataEvPT_.exit.i.i.i
                                        @   in Loop: Header=BB14_19 Depth=1
	@DEBUG_VALUE: __addressof<HRTFData>:__r <- %R5
	.loc	49 102 30 discriminator 2 @ /usr/bin/../lib/gcc/arm-linux-gnueabihf/6.3.0/../../../../include/c++/6.3.0/bits/stl_construct.h:102:30
	add	r5, r5, #164
.Ltmp585:
	@DEBUG_VALUE: __destroy<HRTFData *>:__first <- %R5
	.loc	49 102 4 is_stmt 0 discriminator 1 @ /usr/bin/../lib/gcc/arm-linux-gnueabihf/6.3.0/../../../../include/c++/6.3.0/bits/stl_construct.h:102:4
	cmp	r4, r5
	bne	.LBB14_19
.Ltmp586:
.LBB14_24:                              @ %_ZNSt16allocator_traitsISaI8HRTFDataEE7destroyIS0_EEvRS1_PT_.exit
	.loc	13 177 6 is_stmt 1      @ /usr/bin/../lib/gcc/arm-linux-gnueabihf/6.3.0/../../../../include/c++/6.3.0/bits/stl_vector.h:177:6
	cmp	r10, #0
	bne	.LBB14_29
	b	.LBB14_30
.Ltmp587:
.LBB14_25:
	@DEBUG_VALUE: _Destroy<HRTFData *, HRTFData>:__last <- %R4
	@DEBUG_VALUE: construct<HRTFData, const HRTFData &>:__args <- %R6
	@DEBUG_VALUE: deallocate: <- %R9
	@DEBUG_VALUE: deallocate:__n <- %R9
	@DEBUG_VALUE: _M_deallocate:__n <- %R9
	@DEBUG_VALUE: allocate:__n <- %R9
	@DEBUG_VALUE: allocate:__n <- %R9
	@DEBUG_VALUE: _M_emplace_back_aux<const HRTFData &>:__len <- %R9
	@DEBUG_VALUE: _M_allocate:__n <- %R9
	@DEBUG_VALUE: size:this <- %R5
	@DEBUG_VALUE: size:this <- %R5
	@DEBUG_VALUE: size:this <- %R5
	@DEBUG_VALUE: _M_emplace_back_aux<const HRTFData &>:__args <- %R6
	@DEBUG_VALUE: _M_emplace_back_aux<const HRTFData &>:this <- %R5
	@DEBUG_VALUE: _M_check_len:this <- %R5
	@DEBUG_VALUE: size:this <- %R5
	@DEBUG_VALUE: size:this <- %R5
	.loc	13 656 66               @ /usr/bin/../lib/gcc/arm-linux-gnueabihf/6.3.0/../../../../include/c++/6.3.0/bits/stl_vector.h:656:66
	ldm	r5, {r0, r1}
	.loc	13 656 50 is_stmt 0     @ /usr/bin/../lib/gcc/arm-linux-gnueabihf/6.3.0/../../../../include/c++/6.3.0/bits/stl_vector.h:656:50
	sub	r0, r1, r0
	asr	r1, r0, #2
.Ltmp588:
	.loc	13 160 37 is_stmt 1     @ /usr/bin/../lib/gcc/arm-linux-gnueabihf/6.3.0/../../../../include/c++/6.3.0/bits/stl_vector.h:160:37
	add	r0, r10, r0
.Ltmp589:
	.loc	13 656 50               @ /usr/bin/../lib/gcc/arm-linux-gnueabihf/6.3.0/../../../../include/c++/6.3.0/bits/stl_vector.h:656:50
	mul	r4, r1, r7
.Ltmp590:
	.loc	13 160 37               @ /usr/bin/../lib/gcc/arm-linux-gnueabihf/6.3.0/../../../../include/c++/6.3.0/bits/stl_vector.h:160:37
	ldr	r0, [r0, #132]
.Ltmp591:
	@DEBUG_VALUE: _M_deallocate:__p <- %R0
	@DEBUG_VALUE: deallocate:__p <- %R0
	@DEBUG_VALUE: deallocate:__p <- %R0
	.loc	13 177 6                @ /usr/bin/../lib/gcc/arm-linux-gnueabihf/6.3.0/../../../../include/c++/6.3.0/bits/stl_vector.h:177:6
	cmp	r0, #0
	beq	.LBB14_27
.Ltmp592:
@ BB#26:
	@DEBUG_VALUE: deallocate:__p <- %R0
	@DEBUG_VALUE: deallocate:__p <- %R0
	@DEBUG_VALUE: _M_deallocate:__p <- %R0
	@DEBUG_VALUE: size:this <- %R5
	@DEBUG_VALUE: construct<HRTFData, const HRTFData &>:__args <- %R6
	@DEBUG_VALUE: deallocate: <- %R9
	@DEBUG_VALUE: deallocate:__n <- %R9
	@DEBUG_VALUE: _M_deallocate:__n <- %R9
	@DEBUG_VALUE: allocate:__n <- %R9
	@DEBUG_VALUE: allocate:__n <- %R9
	@DEBUG_VALUE: _M_emplace_back_aux<const HRTFData &>:__len <- %R9
	@DEBUG_VALUE: _M_allocate:__n <- %R9
	@DEBUG_VALUE: size:this <- %R5
	@DEBUG_VALUE: size:this <- %R5
	@DEBUG_VALUE: size:this <- %R5
	@DEBUG_VALUE: _M_emplace_back_aux<const HRTFData &>:__args <- %R6
	@DEBUG_VALUE: _M_emplace_back_aux<const HRTFData &>:this <- %R5
	@DEBUG_VALUE: _M_check_len:this <- %R5
	@DEBUG_VALUE: size:this <- %R5
	.loc	9 110 9                 @ /usr/bin/../lib/gcc/arm-linux-gnueabihf/6.3.0/../../../../include/c++/6.3.0/ext/new_allocator.h:110:9
	bl	_ZdlPv
.Ltmp593:
.LBB14_27:                              @ %_ZNSt6vectorIP3FftSaIS1_EED2Ev.exit.i.i.i
	@DEBUG_VALUE: size:this <- %R5
	@DEBUG_VALUE: construct<HRTFData, const HRTFData &>:__args <- %R6
	@DEBUG_VALUE: deallocate: <- %R9
	@DEBUG_VALUE: deallocate:__n <- %R9
	@DEBUG_VALUE: _M_deallocate:__n <- %R9
	@DEBUG_VALUE: allocate:__n <- %R9
	@DEBUG_VALUE: allocate:__n <- %R9
	@DEBUG_VALUE: _M_emplace_back_aux<const HRTFData &>:__len <- %R9
	@DEBUG_VALUE: _M_allocate:__n <- %R9
	@DEBUG_VALUE: size:this <- %R5
	@DEBUG_VALUE: size:this <- %R5
	@DEBUG_VALUE: size:this <- %R5
	@DEBUG_VALUE: _M_emplace_back_aux<const HRTFData &>:__args <- %R6
	@DEBUG_VALUE: _M_emplace_back_aux<const HRTFData &>:this <- %R5
	@DEBUG_VALUE: _M_check_len:this <- %R5
	@DEBUG_VALUE: size:this <- %R5
	.loc	13 160 37               @ /usr/bin/../lib/gcc/arm-linux-gnueabihf/6.3.0/../../../../include/c++/6.3.0/bits/stl_vector.h:160:37
	mov	r0, #164
	mla	r0, r4, r0, r10
	ldr	r0, [r0, #120]
.Ltmp594:
	@DEBUG_VALUE: _M_deallocate:__p <- %R0
	@DEBUG_VALUE: deallocate:__p <- %R0
	@DEBUG_VALUE: deallocate:__p <- %R0
	.loc	13 177 6                @ /usr/bin/../lib/gcc/arm-linux-gnueabihf/6.3.0/../../../../include/c++/6.3.0/bits/stl_vector.h:177:6
	cmp	r0, #0
	beq	.LBB14_29
.Ltmp595:
@ BB#28:
	@DEBUG_VALUE: deallocate:__p <- %R0
	@DEBUG_VALUE: deallocate:__p <- %R0
	@DEBUG_VALUE: _M_deallocate:__p <- %R0
	@DEBUG_VALUE: size:this <- %R5
	@DEBUG_VALUE: construct<HRTFData, const HRTFData &>:__args <- %R6
	@DEBUG_VALUE: deallocate: <- %R9
	@DEBUG_VALUE: deallocate:__n <- %R9
	@DEBUG_VALUE: _M_deallocate:__n <- %R9
	@DEBUG_VALUE: allocate:__n <- %R9
	@DEBUG_VALUE: allocate:__n <- %R9
	@DEBUG_VALUE: _M_emplace_back_aux<const HRTFData &>:__len <- %R9
	@DEBUG_VALUE: _M_allocate:__n <- %R9
	@DEBUG_VALUE: size:this <- %R5
	@DEBUG_VALUE: size:this <- %R5
	@DEBUG_VALUE: size:this <- %R5
	@DEBUG_VALUE: _M_emplace_back_aux<const HRTFData &>:__args <- %R6
	@DEBUG_VALUE: _M_emplace_back_aux<const HRTFData &>:this <- %R5
	@DEBUG_VALUE: _M_check_len:this <- %R5
	@DEBUG_VALUE: size:this <- %R5
	.loc	9 110 9                 @ /usr/bin/../lib/gcc/arm-linux-gnueabihf/6.3.0/../../../../include/c++/6.3.0/ext/new_allocator.h:110:9
	bl	_ZdlPv
.Ltmp596:
.LBB14_29:                              @ %_ZNSt16allocator_traitsISaI8HRTFDataEE7destroyIS0_EEvRS1_PT_.exit.thread
	.loc	9 110 9 is_stmt 0       @ /usr/bin/../lib/gcc/arm-linux-gnueabihf/6.3.0/../../../../include/c++/6.3.0/ext/new_allocator.h:110:9
	mov	r0, r10
	bl	_ZdlPv
.Ltmp597:
.LBB14_30:                              @ %_ZNSt12_Vector_baseI8HRTFDataSaIS0_EE13_M_deallocateEPS0_j.exit
	.loc	48 434 6 is_stmt 1      @ /usr/bin/../lib/gcc/arm-linux-gnueabihf/6.3.0/../../../../include/c++/6.3.0/bits/vector.tcc:434:6
.Ltmp522:
	mov	lr, pc
	b	__cxa_rethrow
.Ltmp523:
@ BB#31:
.LBB14_32:
.Ltmp524:
	mov	r4, r0
	.loc	48 435 4                @ /usr/bin/../lib/gcc/arm-linux-gnueabihf/6.3.0/../../../../include/c++/6.3.0/bits/vector.tcc:435:4
.Ltmp525:
	bl	__cxa_end_catch
.Ltmp526:
@ BB#33:
	mov	r0, r4
	mov	lr, pc
	b	_Unwind_Resume
.LBB14_34:
.Ltmp527:
	.loc	48 435 4 is_stmt 0 discriminator 1 @ /usr/bin/../lib/gcc/arm-linux-gnueabihf/6.3.0/../../../../include/c++/6.3.0/bits/vector.tcc:435:4
	mov	lr, pc
	b	__clang_call_terminate
.Ltmp598:
.Lfunc_end14:
	.size	_ZNSt6vectorI8HRTFDataSaIS0_EE19_M_emplace_back_auxIJRKS0_EEEvDpOT_, .Lfunc_end14-_ZNSt6vectorI8HRTFDataSaIS0_EE19_M_emplace_back_auxIJRKS0_EEEvDpOT_
	.cfi_endproc
	.globl	__gxx_personality_v0
	.personality __gxx_personality_v0
	.handlerdata
	.p2align	2
GCC_except_table14:
.Lexception4:
	.byte	255                     @ @LPStart Encoding = omit
	.byte	0                       @ @TType Encoding = absptr
	.asciz	"\326\200\200"          @ @TType base offset
	.byte	3                       @ Call site Encoding = udata4
	.byte	78                      @ Call site table length
	.long	.Lfunc_begin14-.Lfunc_begin14 @ >> Call Site 1 <<
	.long	.Ltmp517-.Lfunc_begin14 @   Call between .Lfunc_begin14 and .Ltmp517
	.long	0                       @     has no landing pad
	.byte	0                       @   On action: cleanup
	.long	.Ltmp517-.Lfunc_begin14 @ >> Call Site 2 <<
	.long	.Ltmp520-.Ltmp517       @   Call between .Ltmp517 and .Ltmp520
	.long	.Ltmp521-.Lfunc_begin14 @     jumps to .Ltmp521
	.byte	1                       @   On action: 1
	.long	.Ltmp520-.Lfunc_begin14 @ >> Call Site 3 <<
	.long	.Ltmp522-.Ltmp520       @   Call between .Ltmp520 and .Ltmp522
	.long	0                       @     has no landing pad
	.byte	0                       @   On action: cleanup
	.long	.Ltmp522-.Lfunc_begin14 @ >> Call Site 4 <<
	.long	.Ltmp523-.Ltmp522       @   Call between .Ltmp522 and .Ltmp523
	.long	.Ltmp524-.Lfunc_begin14 @     jumps to .Ltmp524
	.byte	0                       @   On action: cleanup
	.long	.Ltmp525-.Lfunc_begin14 @ >> Call Site 5 <<
	.long	.Ltmp526-.Ltmp525       @   Call between .Ltmp525 and .Ltmp526
	.long	.Ltmp527-.Lfunc_begin14 @     jumps to .Ltmp527
	.byte	1                       @   On action: 1
	.long	.Ltmp526-.Lfunc_begin14 @ >> Call Site 6 <<
	.long	.Lfunc_end14-.Ltmp526   @   Call between .Ltmp526 and .Lfunc_end14
	.long	0                       @     has no landing pad
	.byte	0                       @   On action: cleanup
	.byte	1                       @ >> Action Record 1 <<
                                        @   Catch TypeInfo 1
	.byte	0                       @   No further actions
                                        @ >> Catch TypeInfos <<
	.long	0                       @ TypeInfo 1
	.p2align	2
	.fnend

	.section	.text._ZN8HRTFDataC2ERKS_,"axG",%progbits,_ZN8HRTFDataC2ERKS_,comdat
	.weak	_ZN8HRTFDataC2ERKS_
	.p2align	2
	.type	_ZN8HRTFDataC2ERKS_,%function
_ZN8HRTFDataC2ERKS_:                    @ @_ZN8HRTFDataC2ERKS_
.Lfunc_begin15:
	.loc	4 14 0 is_stmt 1        @ /root/Bela/projects/SOFAlizer-for-Bela/bela_sofa.h:14:0
	.fnstart
	.cfi_startproc
@ BB#0:
	.save	{r4, r5, r6, r7, r8, r10, r11, lr}
	push	{r4, r5, r6, r7, r8, r10, r11, lr}
.Ltmp604:
	.cfi_def_cfa_offset 32
.Ltmp605:
	.cfi_offset lr, -4
.Ltmp606:
	.cfi_offset r11, -8
.Ltmp607:
	.cfi_offset r10, -12
.Ltmp608:
	.cfi_offset r8, -16
.Ltmp609:
	.cfi_offset r7, -20
.Ltmp610:
	.cfi_offset r6, -24
.Ltmp611:
	.cfi_offset r5, -28
.Ltmp612:
	.cfi_offset r4, -32
	.setfp	r11, sp, #24
	add	r11, sp, #24
.Ltmp613:
	.cfi_def_cfa r11, 8
	@DEBUG_VALUE: HRTFData:this <- %R0
	@DEBUG_VALUE: HRTFData: <- %R1
.Ltmp614:
	.loc	4 14 7 prologue_end     @ /root/Bela/projects/SOFAlizer-for-Bela/bela_sofa.h:14:7
	mov	r2, #120
	mov	r5, r1
.Ltmp615:
	@DEBUG_VALUE: HRTFData: <- %R5
	mov	r4, r0
.Ltmp616:
	@DEBUG_VALUE: HRTFData:this <- %R4
	bl	memcpy
.Ltmp617:
	.loc	13 656 66               @ /usr/bin/../lib/gcc/arm-linux-gnueabihf/6.3.0/../../../../include/c++/6.3.0/bits/stl_vector.h:656:66
	ldr	r0, [r5, #120]
	mov	r8, #0
	.loc	13 656 40 is_stmt 0     @ /usr/bin/../lib/gcc/arm-linux-gnueabihf/6.3.0/../../../../include/c++/6.3.0/bits/stl_vector.h:656:40
	ldr	r1, [r5, #124]
.Ltmp618:
	.loc	13 170 9 is_stmt 1 discriminator 3 @ /usr/bin/../lib/gcc/arm-linux-gnueabihf/6.3.0/../../../../include/c++/6.3.0/bits/stl_vector.h:170:9
	mov	r6, #0
.Ltmp619:
	.loc	13 91 25                @ /usr/bin/../lib/gcc/arm-linux-gnueabihf/6.3.0/../../../../include/c++/6.3.0/bits/stl_vector.h:91:25
	str	r8, [r4, #120]
.Ltmp620:
	.loc	13 656 50               @ /usr/bin/../lib/gcc/arm-linux-gnueabihf/6.3.0/../../../../include/c++/6.3.0/bits/stl_vector.h:656:50
	sub	r0, r1, r0
.Ltmp621:
	.loc	13 91 37                @ /usr/bin/../lib/gcc/arm-linux-gnueabihf/6.3.0/../../../../include/c++/6.3.0/bits/stl_vector.h:91:37
	str	r8, [r4, #124]
	.loc	13 91 50 is_stmt 0      @ /usr/bin/../lib/gcc/arm-linux-gnueabihf/6.3.0/../../../../include/c++/6.3.0/bits/stl_vector.h:91:50
	str	r8, [r4, #128]
.Ltmp622:
	.loc	13 656 50 is_stmt 1     @ /usr/bin/../lib/gcc/arm-linux-gnueabihf/6.3.0/../../../../include/c++/6.3.0/bits/stl_vector.h:656:50
	asr	r7, r0, #2
.Ltmp623:
	@DEBUG_VALUE: _Vector_base:__n <- %R7
	@DEBUG_VALUE: _M_create_storage:__n <- %R7
	@DEBUG_VALUE: _M_allocate:__n <- %R7
	@DEBUG_VALUE: allocate:__n <- %R7
	@DEBUG_VALUE: allocate:__n <- %R7
	.loc	13 170 9                @ /usr/bin/../lib/gcc/arm-linux-gnueabihf/6.3.0/../../../../include/c++/6.3.0/bits/stl_vector.h:170:9
	cmp	r8, r0, asr #2
	beq	.LBB15_3
.Ltmp624:
@ BB#1:
	@DEBUG_VALUE: allocate:__n <- %R7
	@DEBUG_VALUE: allocate:__n <- %R7
	@DEBUG_VALUE: _M_allocate:__n <- %R7
	@DEBUG_VALUE: _M_create_storage:__n <- %R7
	@DEBUG_VALUE: _Vector_base:__n <- %R7
	@DEBUG_VALUE: HRTFData:this <- %R4
	@DEBUG_VALUE: HRTFData: <- %R5
	.loc	9 101 6                 @ /usr/bin/../lib/gcc/arm-linux-gnueabihf/6.3.0/../../../../include/c++/6.3.0/ext/new_allocator.h:101:6
	cmp	r7, #1073741824
	bhs	.LBB15_11
.Ltmp625:
@ BB#2:                                 @ %_ZNSt16allocator_traitsISaIP3FftEE8allocateERS2_j.exit.i.i.i.i
	@DEBUG_VALUE: allocate:__n <- %R7
	@DEBUG_VALUE: allocate:__n <- %R7
	@DEBUG_VALUE: _M_allocate:__n <- %R7
	@DEBUG_VALUE: _M_create_storage:__n <- %R7
	@DEBUG_VALUE: _Vector_base:__n <- %R7
	@DEBUG_VALUE: HRTFData:this <- %R4
	@DEBUG_VALUE: HRTFData: <- %R5
	.loc	9 104 27                @ /usr/bin/../lib/gcc/arm-linux-gnueabihf/6.3.0/../../../../include/c++/6.3.0/ext/new_allocator.h:104:27
	bl	_Znwj
	mov	r6, r0
.Ltmp626:
.LBB15_3:
	@DEBUG_VALUE: allocate:__n <- %R7
	@DEBUG_VALUE: allocate:__n <- %R7
	@DEBUG_VALUE: _M_allocate:__n <- %R7
	@DEBUG_VALUE: _M_create_storage:__n <- %R7
	@DEBUG_VALUE: _Vector_base:__n <- %R7
	@DEBUG_VALUE: HRTFData:this <- %R4
	@DEBUG_VALUE: HRTFData: <- %R5
	@DEBUG_VALUE: __uninitialized_copy_a<__gnu_cxx::__normal_iterator<Fft *const *, std::vector<Fft *, std::allocator<Fft *> > >, Fft **, Fft *>:__result <- %R6
	.loc	13 185 25               @ /usr/bin/../lib/gcc/arm-linux-gnueabihf/6.3.0/../../../../include/c++/6.3.0/bits/stl_vector.h:185:25
	str	r6, [r4, #120]
	.loc	13 187 59               @ /usr/bin/../lib/gcc/arm-linux-gnueabihf/6.3.0/../../../../include/c++/6.3.0/bits/stl_vector.h:187:59
	add	r0, r6, r7, lsl #2
.Ltmp627:
	@DEBUG_VALUE: __copy_move_a<false, Fft *const *, Fft **>:__simple <- 1
	@DEBUG_VALUE: uninitialized_copy<__gnu_cxx::__normal_iterator<Fft *const *, std::vector<Fft *, std::allocator<Fft *> > >, Fft **>:__assignable <- 1
	.loc	13 186 26               @ /usr/bin/../lib/gcc/arm-linux-gnueabihf/6.3.0/../../../../include/c++/6.3.0/bits/stl_vector.h:186:26
	str	r6, [r4, #124]
	.loc	13 187 34               @ /usr/bin/../lib/gcc/arm-linux-gnueabihf/6.3.0/../../../../include/c++/6.3.0/bits/stl_vector.h:187:34
	str	r0, [r4, #128]
.Ltmp628:
	.loc	13 558 45               @ /usr/bin/../lib/gcc/arm-linux-gnueabihf/6.3.0/../../../../include/c++/6.3.0/bits/stl_vector.h:558:45
	ldr	r1, [r5, #120]
.Ltmp629:
	.loc	13 576 45               @ /usr/bin/../lib/gcc/arm-linux-gnueabihf/6.3.0/../../../../include/c++/6.3.0/bits/stl_vector.h:576:45
	ldr	r0, [r5, #124]
.Ltmp630:
	.loc	45 366 34               @ /usr/bin/../lib/gcc/arm-linux-gnueabihf/6.3.0/../../../../include/c++/6.3.0/bits/stl_algobase.h:366:34
	sub	r2, r0, r1
	asr	r7, r2, #2
.Ltmp631:
	@DEBUG_VALUE: __copy_m<Fft *>:_Num <- %R7
	.loc	45 367 8                @ /usr/bin/../lib/gcc/arm-linux-gnueabihf/6.3.0/../../../../include/c++/6.3.0/bits/stl_algobase.h:367:8
	cmp	r8, r2, asr #2
	beq	.LBB15_5
.Ltmp632:
@ BB#4:
	@DEBUG_VALUE: __copy_m<Fft *>:_Num <- %R7
	@DEBUG_VALUE: __uninitialized_copy_a<__gnu_cxx::__normal_iterator<Fft *const *, std::vector<Fft *, std::allocator<Fft *> > >, Fft **, Fft *>:__result <- %R6
	@DEBUG_VALUE: HRTFData:this <- %R4
	@DEBUG_VALUE: HRTFData: <- %R5
	.loc	45 368 6                @ /usr/bin/../lib/gcc/arm-linux-gnueabihf/6.3.0/../../../../include/c++/6.3.0/bits/stl_algobase.h:368:6
	mov	r0, r6
	bl	memmove
.Ltmp633:
.LBB15_5:                               @ %_ZNSt6vectorIP3FftSaIS1_EEC2ERKS3_.exit
	@DEBUG_VALUE: __copy_m<Fft *>:_Num <- %R7
	@DEBUG_VALUE: __uninitialized_copy_a<__gnu_cxx::__normal_iterator<Fft *const *, std::vector<Fft *, std::allocator<Fft *> > >, Fft **, Fft *>:__result <- %R6
	@DEBUG_VALUE: HRTFData:this <- %R4
	@DEBUG_VALUE: HRTFData: <- %R5
	.loc	45 369 20               @ /usr/bin/../lib/gcc/arm-linux-gnueabihf/6.3.0/../../../../include/c++/6.3.0/bits/stl_algobase.h:369:20
	add	r0, r6, r7, lsl #2
.Ltmp634:
	.loc	13 323 33 discriminator 1 @ /usr/bin/../lib/gcc/arm-linux-gnueabihf/6.3.0/../../../../include/c++/6.3.0/bits/stl_vector.h:323:33
	str	r0, [r4, #124]
.Ltmp635:
	.loc	13 656 66               @ /usr/bin/../lib/gcc/arm-linux-gnueabihf/6.3.0/../../../../include/c++/6.3.0/bits/stl_vector.h:656:66
	ldr	r0, [r5, #132]
	mov	r8, #0
	.loc	13 656 40 is_stmt 0     @ /usr/bin/../lib/gcc/arm-linux-gnueabihf/6.3.0/../../../../include/c++/6.3.0/bits/stl_vector.h:656:40
	ldr	r1, [r5, #136]
.Ltmp636:
	.loc	13 170 9 is_stmt 1 discriminator 3 @ /usr/bin/../lib/gcc/arm-linux-gnueabihf/6.3.0/../../../../include/c++/6.3.0/bits/stl_vector.h:170:9
	mov	r6, #0
.Ltmp637:
	.loc	13 91 25                @ /usr/bin/../lib/gcc/arm-linux-gnueabihf/6.3.0/../../../../include/c++/6.3.0/bits/stl_vector.h:91:25
	str	r8, [r4, #132]
.Ltmp638:
	.loc	13 656 50               @ /usr/bin/../lib/gcc/arm-linux-gnueabihf/6.3.0/../../../../include/c++/6.3.0/bits/stl_vector.h:656:50
	sub	r0, r1, r0
.Ltmp639:
	.loc	13 91 37                @ /usr/bin/../lib/gcc/arm-linux-gnueabihf/6.3.0/../../../../include/c++/6.3.0/bits/stl_vector.h:91:37
	str	r8, [r4, #136]
	.loc	13 91 50 is_stmt 0      @ /usr/bin/../lib/gcc/arm-linux-gnueabihf/6.3.0/../../../../include/c++/6.3.0/bits/stl_vector.h:91:50
	str	r8, [r4, #140]
.Ltmp640:
	.loc	13 656 50 is_stmt 1     @ /usr/bin/../lib/gcc/arm-linux-gnueabihf/6.3.0/../../../../include/c++/6.3.0/bits/stl_vector.h:656:50
	asr	r7, r0, #2
.Ltmp641:
	@DEBUG_VALUE: _Vector_base:__n <- %R7
	@DEBUG_VALUE: _M_create_storage:__n <- %R7
	@DEBUG_VALUE: _M_allocate:__n <- %R7
	@DEBUG_VALUE: allocate:__n <- %R7
	@DEBUG_VALUE: allocate:__n <- %R7
	.loc	13 170 9                @ /usr/bin/../lib/gcc/arm-linux-gnueabihf/6.3.0/../../../../include/c++/6.3.0/bits/stl_vector.h:170:9
	cmp	r8, r0, asr #2
	beq	.LBB15_8
.Ltmp642:
@ BB#6:
	@DEBUG_VALUE: allocate:__n <- %R7
	@DEBUG_VALUE: allocate:__n <- %R7
	@DEBUG_VALUE: _M_allocate:__n <- %R7
	@DEBUG_VALUE: _M_create_storage:__n <- %R7
	@DEBUG_VALUE: _Vector_base:__n <- %R7
	@DEBUG_VALUE: HRTFData:this <- %R4
	@DEBUG_VALUE: HRTFData: <- %R5
	.loc	9 101 6                 @ /usr/bin/../lib/gcc/arm-linux-gnueabihf/6.3.0/../../../../include/c++/6.3.0/ext/new_allocator.h:101:6
	cmp	r7, #1073741824
	bhs	.LBB15_12
.Ltmp643:
@ BB#7:                                 @ %_ZNSt16allocator_traitsISaIP3FftEE8allocateERS2_j.exit.i.i.i.i7
	@DEBUG_VALUE: allocate:__n <- %R7
	@DEBUG_VALUE: allocate:__n <- %R7
	@DEBUG_VALUE: _M_allocate:__n <- %R7
	@DEBUG_VALUE: _M_create_storage:__n <- %R7
	@DEBUG_VALUE: _Vector_base:__n <- %R7
	@DEBUG_VALUE: HRTFData:this <- %R4
	@DEBUG_VALUE: HRTFData: <- %R5
	.loc	9 104 27                @ /usr/bin/../lib/gcc/arm-linux-gnueabihf/6.3.0/../../../../include/c++/6.3.0/ext/new_allocator.h:104:27
.Ltmp599:
	bl	_Znwj
	mov	r6, r0
.Ltmp600:
.Ltmp644:
.LBB15_8:
	@DEBUG_VALUE: allocate:__n <- %R7
	@DEBUG_VALUE: allocate:__n <- %R7
	@DEBUG_VALUE: _M_allocate:__n <- %R7
	@DEBUG_VALUE: _M_create_storage:__n <- %R7
	@DEBUG_VALUE: _Vector_base:__n <- %R7
	@DEBUG_VALUE: HRTFData:this <- %R4
	@DEBUG_VALUE: HRTFData: <- %R5
	@DEBUG_VALUE: __uninitialized_copy_a<__gnu_cxx::__normal_iterator<Fft *const *, std::vector<Fft *, std::allocator<Fft *> > >, Fft **, Fft *>:__result <- %R6
	.loc	13 185 25               @ /usr/bin/../lib/gcc/arm-linux-gnueabihf/6.3.0/../../../../include/c++/6.3.0/bits/stl_vector.h:185:25
	str	r6, [r4, #132]
	.loc	13 187 59               @ /usr/bin/../lib/gcc/arm-linux-gnueabihf/6.3.0/../../../../include/c++/6.3.0/bits/stl_vector.h:187:59
	add	r0, r6, r7, lsl #2
.Ltmp645:
	@DEBUG_VALUE: __copy_move_a<false, Fft *const *, Fft **>:__simple <- 1
	@DEBUG_VALUE: uninitialized_copy<__gnu_cxx::__normal_iterator<Fft *const *, std::vector<Fft *, std::allocator<Fft *> > >, Fft **>:__assignable <- 1
	.loc	13 186 26               @ /usr/bin/../lib/gcc/arm-linux-gnueabihf/6.3.0/../../../../include/c++/6.3.0/bits/stl_vector.h:186:26
	str	r6, [r4, #136]
	.loc	13 187 34               @ /usr/bin/../lib/gcc/arm-linux-gnueabihf/6.3.0/../../../../include/c++/6.3.0/bits/stl_vector.h:187:34
	str	r0, [r4, #140]
.Ltmp646:
	.loc	13 558 45               @ /usr/bin/../lib/gcc/arm-linux-gnueabihf/6.3.0/../../../../include/c++/6.3.0/bits/stl_vector.h:558:45
	ldr	r1, [r5, #132]
.Ltmp647:
	.loc	13 576 45               @ /usr/bin/../lib/gcc/arm-linux-gnueabihf/6.3.0/../../../../include/c++/6.3.0/bits/stl_vector.h:576:45
	ldr	r0, [r5, #136]
.Ltmp648:
	.loc	45 366 34               @ /usr/bin/../lib/gcc/arm-linux-gnueabihf/6.3.0/../../../../include/c++/6.3.0/bits/stl_algobase.h:366:34
	sub	r2, r0, r1
	asr	r7, r2, #2
.Ltmp649:
	@DEBUG_VALUE: __copy_m<Fft *>:_Num <- %R7
	.loc	45 367 8                @ /usr/bin/../lib/gcc/arm-linux-gnueabihf/6.3.0/../../../../include/c++/6.3.0/bits/stl_algobase.h:367:8
	cmp	r8, r2, asr #2
	beq	.LBB15_10
.Ltmp650:
@ BB#9:
	@DEBUG_VALUE: __copy_m<Fft *>:_Num <- %R7
	@DEBUG_VALUE: __uninitialized_copy_a<__gnu_cxx::__normal_iterator<Fft *const *, std::vector<Fft *, std::allocator<Fft *> > >, Fft **, Fft *>:__result <- %R6
	@DEBUG_VALUE: HRTFData:this <- %R4
	@DEBUG_VALUE: HRTFData: <- %R5
	.loc	45 368 6                @ /usr/bin/../lib/gcc/arm-linux-gnueabihf/6.3.0/../../../../include/c++/6.3.0/bits/stl_algobase.h:368:6
	mov	r0, r6
	bl	memmove
.Ltmp651:
.LBB15_10:
	@DEBUG_VALUE: __copy_m<Fft *>:_Num <- %R7
	@DEBUG_VALUE: __uninitialized_copy_a<__gnu_cxx::__normal_iterator<Fft *const *, std::vector<Fft *, std::allocator<Fft *> > >, Fft **, Fft *>:__result <- %R6
	@DEBUG_VALUE: HRTFData:this <- %R4
	@DEBUG_VALUE: HRTFData: <- %R5
	.loc	45 369 20               @ /usr/bin/../lib/gcc/arm-linux-gnueabihf/6.3.0/../../../../include/c++/6.3.0/bits/stl_algobase.h:369:20
	add	r0, r6, r7, lsl #2
.Ltmp652:
	.loc	13 323 33 discriminator 1 @ /usr/bin/../lib/gcc/arm-linux-gnueabihf/6.3.0/../../../../include/c++/6.3.0/bits/stl_vector.h:323:33
	str	r0, [r4, #136]
.Ltmp653:
	.loc	4 14 7 discriminator 1  @ /root/Bela/projects/SOFAlizer-for-Bela/bela_sofa.h:14:7
	add	r0, r5, #144
	vld1.32	{d16, d17}, [r0]
	ldr	r0, [r5, #160]
	str	r0, [r4, #160]
	add	r0, r4, #144
	vst1.32	{d16, d17}, [r0]
	mov	r0, r4
	pop	{r4, r5, r6, r7, r8, r10, r11, pc}
.Ltmp654:
.LBB15_11:                              @ %.noexc.i.i
	@DEBUG_VALUE: allocate:__n <- %R7
	@DEBUG_VALUE: allocate:__n <- %R7
	@DEBUG_VALUE: _M_allocate:__n <- %R7
	@DEBUG_VALUE: _M_create_storage:__n <- %R7
	@DEBUG_VALUE: _Vector_base:__n <- %R7
	@DEBUG_VALUE: HRTFData:this <- %R4
	@DEBUG_VALUE: HRTFData: <- %R5
	.loc	9 102 4                 @ /usr/bin/../lib/gcc/arm-linux-gnueabihf/6.3.0/../../../../include/c++/6.3.0/ext/new_allocator.h:102:4
	mov	lr, pc
	b	_ZSt17__throw_bad_allocv
.Ltmp655:
.LBB15_12:                              @ %.noexc.i.i6
	@DEBUG_VALUE: allocate:__n <- %R7
	@DEBUG_VALUE: allocate:__n <- %R7
	@DEBUG_VALUE: _M_allocate:__n <- %R7
	@DEBUG_VALUE: _M_create_storage:__n <- %R7
	@DEBUG_VALUE: _Vector_base:__n <- %R7
	@DEBUG_VALUE: HRTFData:this <- %R4
	@DEBUG_VALUE: HRTFData: <- %R5
	.loc	9 102 4 is_stmt 0       @ /usr/bin/../lib/gcc/arm-linux-gnueabihf/6.3.0/../../../../include/c++/6.3.0/ext/new_allocator.h:102:4
.Ltmp601:
	mov	lr, pc
	b	_ZSt17__throw_bad_allocv
.Ltmp602:
.Ltmp656:
@ BB#13:                                @ %.noexc
	@DEBUG_VALUE: allocate:__n <- %R7
	@DEBUG_VALUE: allocate:__n <- %R7
	@DEBUG_VALUE: _M_allocate:__n <- %R7
	@DEBUG_VALUE: _M_create_storage:__n <- %R7
	@DEBUG_VALUE: _Vector_base:__n <- %R7
	@DEBUG_VALUE: HRTFData:this <- %R4
	@DEBUG_VALUE: HRTFData: <- %R5
.LBB15_14:
	@DEBUG_VALUE: allocate:__n <- %R7
	@DEBUG_VALUE: allocate:__n <- %R7
	@DEBUG_VALUE: _M_allocate:__n <- %R7
	@DEBUG_VALUE: _M_create_storage:__n <- %R7
	@DEBUG_VALUE: _Vector_base:__n <- %R7
	@DEBUG_VALUE: HRTFData:this <- %R4
	@DEBUG_VALUE: HRTFData: <- %R5
.Ltmp603:
	mov	r5, r0
.Ltmp657:
	.loc	13 160 37 is_stmt 1     @ /usr/bin/../lib/gcc/arm-linux-gnueabihf/6.3.0/../../../../include/c++/6.3.0/bits/stl_vector.h:160:37
	ldr	r0, [r4, #120]
.Ltmp658:
	@DEBUG_VALUE: _M_deallocate:__p <- %R0
	@DEBUG_VALUE: deallocate:__p <- %R0
	@DEBUG_VALUE: deallocate:__p <- %R0
	.loc	13 177 6                @ /usr/bin/../lib/gcc/arm-linux-gnueabihf/6.3.0/../../../../include/c++/6.3.0/bits/stl_vector.h:177:6
	cmp	r0, #0
	beq	.LBB15_16
.Ltmp659:
@ BB#15:
	@DEBUG_VALUE: deallocate:__p <- %R0
	@DEBUG_VALUE: deallocate:__p <- %R0
	@DEBUG_VALUE: _M_deallocate:__p <- %R0
	@DEBUG_VALUE: allocate:__n <- %R7
	@DEBUG_VALUE: allocate:__n <- %R7
	@DEBUG_VALUE: _M_allocate:__n <- %R7
	@DEBUG_VALUE: _M_create_storage:__n <- %R7
	@DEBUG_VALUE: _Vector_base:__n <- %R7
	@DEBUG_VALUE: HRTFData:this <- %R4
	.loc	9 110 9                 @ /usr/bin/../lib/gcc/arm-linux-gnueabihf/6.3.0/../../../../include/c++/6.3.0/ext/new_allocator.h:110:9
	bl	_ZdlPv
.Ltmp660:
.LBB15_16:                              @ %_ZNSt6vectorIP3FftSaIS1_EED2Ev.exit
	@DEBUG_VALUE: allocate:__n <- %R7
	@DEBUG_VALUE: allocate:__n <- %R7
	@DEBUG_VALUE: _M_allocate:__n <- %R7
	@DEBUG_VALUE: _M_create_storage:__n <- %R7
	@DEBUG_VALUE: _Vector_base:__n <- %R7
	@DEBUG_VALUE: HRTFData:this <- %R4
	mov	r0, r5
	mov	lr, pc
	b	_Unwind_Resume
.Lfunc_end15:
	.size	_ZN8HRTFDataC2ERKS_, .Lfunc_end15-_ZN8HRTFDataC2ERKS_
	.cfi_endproc
	.globl	__gxx_personality_v0
	.personality __gxx_personality_v0
	.handlerdata
	.p2align	2
GCC_except_table15:
.Lexception5:
	.byte	255                     @ @LPStart Encoding = omit
	.byte	0                       @ @TType Encoding = absptr
	.asciz	"\303\200"              @ @TType base offset
	.byte	3                       @ Call site Encoding = udata4
	.byte	65                      @ Call site table length
	.long	.Lfunc_begin15-.Lfunc_begin15 @ >> Call Site 1 <<
	.long	.Ltmp599-.Lfunc_begin15 @   Call between .Lfunc_begin15 and .Ltmp599
	.long	0                       @     has no landing pad
	.byte	0                       @   On action: cleanup
	.long	.Ltmp599-.Lfunc_begin15 @ >> Call Site 2 <<
	.long	.Ltmp600-.Ltmp599       @   Call between .Ltmp599 and .Ltmp600
	.long	.Ltmp603-.Lfunc_begin15 @     jumps to .Ltmp603
	.byte	0                       @   On action: cleanup
	.long	.Ltmp600-.Lfunc_begin15 @ >> Call Site 3 <<
	.long	.Ltmp601-.Ltmp600       @   Call between .Ltmp600 and .Ltmp601
	.long	0                       @     has no landing pad
	.byte	0                       @   On action: cleanup
	.long	.Ltmp601-.Lfunc_begin15 @ >> Call Site 4 <<
	.long	.Ltmp602-.Ltmp601       @   Call between .Ltmp601 and .Ltmp602
	.long	.Ltmp603-.Lfunc_begin15 @     jumps to .Ltmp603
	.byte	0                       @   On action: cleanup
	.long	.Ltmp602-.Lfunc_begin15 @ >> Call Site 5 <<
	.long	.Lfunc_end15-.Ltmp602   @   Call between .Ltmp602 and .Lfunc_end15
	.long	0                       @     has no landing pad
	.byte	0                       @   On action: cleanup
	.p2align	2
	.fnend

	.section	.text._ZNSt20__uninitialized_copyILb0EE13__uninit_copyIPK8HRTFDataPS2_EET0_T_S7_S6_,"axG",%progbits,_ZNSt20__uninitialized_copyILb0EE13__uninit_copyIPK8HRTFDataPS2_EET0_T_S7_S6_,comdat
	.weak	_ZNSt20__uninitialized_copyILb0EE13__uninit_copyIPK8HRTFDataPS2_EET0_T_S7_S6_
	.p2align	2
	.type	_ZNSt20__uninitialized_copyILb0EE13__uninit_copyIPK8HRTFDataPS2_EET0_T_S7_S6_,%function
_ZNSt20__uninitialized_copyILb0EE13__uninit_copyIPK8HRTFDataPS2_EET0_T_S7_S6_: @ @_ZNSt20__uninitialized_copyILb0EE13__uninit_copyIPK8HRTFDataPS2_EET0_T_S7_S6_
.Lfunc_begin16:
	.loc	47 70 0                 @ /usr/bin/../lib/gcc/arm-linux-gnueabihf/6.3.0/../../../../include/c++/6.3.0/bits/stl_uninitialized.h:70:0
	.fnstart
	.cfi_startproc
@ BB#0:
	.save	{r4, r5, r6, r7, r11, lr}
	push	{r4, r5, r6, r7, r11, lr}
.Ltmp670:
	.cfi_def_cfa_offset 24
.Ltmp671:
	.cfi_offset lr, -4
.Ltmp672:
	.cfi_offset r11, -8
.Ltmp673:
	.cfi_offset r7, -12
.Ltmp674:
	.cfi_offset r6, -16
.Ltmp675:
	.cfi_offset r5, -20
.Ltmp676:
	.cfi_offset r4, -24
	.setfp	r11, sp, #16
	add	r11, sp, #16
.Ltmp677:
	.cfi_def_cfa r11, 8
	@DEBUG_VALUE: __uninit_copy<const HRTFData *, HRTFData *>:__first <- %R0
	@DEBUG_VALUE: __uninit_copy<const HRTFData *, HRTFData *>:__last <- %R1
	@DEBUG_VALUE: __uninit_copy<const HRTFData *, HRTFData *>:__result <- %R2
.Ltmp678:
	@DEBUG_VALUE: __uninit_copy<const HRTFData *, HRTFData *>:__cur <- %R2
	mov	r5, r0
.Ltmp679:
	@DEBUG_VALUE: __uninit_copy<const HRTFData *, HRTFData *>:__first <- %R5
	mov	r4, r2
.Ltmp680:
	@DEBUG_VALUE: __uninit_copy<const HRTFData *, HRTFData *>:__cur <- %R4
	@DEBUG_VALUE: __uninit_copy<const HRTFData *, HRTFData *>:__result <- %R4
	.loc	47 74 8 prologue_end discriminator 1 @ /usr/bin/../lib/gcc/arm-linux-gnueabihf/6.3.0/../../../../include/c++/6.3.0/bits/stl_uninitialized.h:74:8
	cmp	r5, r1
	beq	.LBB16_5
.Ltmp681:
@ BB#1:                                 @ %.lr.ph.preheader
	@DEBUG_VALUE: __uninit_copy<const HRTFData *, HRTFData *>:__result <- %R4
	@DEBUG_VALUE: __uninit_copy<const HRTFData *, HRTFData *>:__cur <- %R4
	@DEBUG_VALUE: __uninit_copy<const HRTFData *, HRTFData *>:__first <- %R5
	@DEBUG_VALUE: __uninit_copy<const HRTFData *, HRTFData *>:__last <- %R1
	.file	50 "/usr/bin/../lib/gcc/arm-linux-gnueabihf/6.3.0/../../../../include/c++/6.3.0/bits" "move.h"
	.loc	50 47 22                @ /usr/bin/../lib/gcc/arm-linux-gnueabihf/6.3.0/../../../../include/c++/6.3.0/bits/move.h:47:22
	sub	r7, r1, r5
	mov	r6, #0
.Ltmp682:
.LBB16_2:                               @ %.lr.ph
                                        @ =>This Inner Loop Header: Depth=1
	add	r0, r4, r6
	add	r1, r5, r6
.Ltmp683:
	.loc	49 75 38 discriminator 1 @ /usr/bin/../lib/gcc/arm-linux-gnueabihf/6.3.0/../../../../include/c++/6.3.0/bits/stl_construct.h:75:38
.Ltmp661:
	bl	_ZN8HRTFDataC2ERKS_
.Ltmp662:
.Ltmp684:
@ BB#3:                                 @ %_ZSt10_ConstructI8HRTFDataJRKS0_EEvPT_DpOT0_.exit
                                        @   in Loop: Header=BB16_2 Depth=1
	.loc	47 74 8 discriminator 1 @ /usr/bin/../lib/gcc/arm-linux-gnueabihf/6.3.0/../../../../include/c++/6.3.0/bits/stl_uninitialized.h:74:8
	add	r6, r6, #164
	cmp	r7, r6
	bne	.LBB16_2
.Ltmp685:
@ BB#4:                                 @ %._crit_edge.loopexit
	.loc	47 76 8                 @ /usr/bin/../lib/gcc/arm-linux-gnueabihf/6.3.0/../../../../include/c++/6.3.0/bits/stl_uninitialized.h:76:8
	add	r4, r4, r6
.LBB16_5:                               @ %._crit_edge
	mov	r0, r4
	pop	{r4, r5, r6, r7, r11, pc}
.LBB16_6:
.Ltmp663:
	.loc	47 77 6                 @ /usr/bin/../lib/gcc/arm-linux-gnueabihf/6.3.0/../../../../include/c++/6.3.0/bits/stl_uninitialized.h:77:6
	bl	__cxa_begin_catch
.Ltmp686:
	.loc	49 102 4 discriminator 1 @ /usr/bin/../lib/gcc/arm-linux-gnueabihf/6.3.0/../../../../include/c++/6.3.0/bits/stl_construct.h:102:4
	cmp	r6, #0
	beq	.LBB16_13
@ BB#7:                                 @ %.lr.ph.i.i.preheader
.Ltmp687:
	.loc	50 47 22                @ /usr/bin/../lib/gcc/arm-linux-gnueabihf/6.3.0/../../../../include/c++/6.3.0/bits/move.h:47:22
	add	r4, r4, #120
.Ltmp688:
	@DEBUG_VALUE: __destroy<HRTFData *>:__first <- %R4
.LBB16_8:                               @ %.lr.ph.i.i
                                        @ =>This Inner Loop Header: Depth=1
	.loc	13 160 37               @ /usr/bin/../lib/gcc/arm-linux-gnueabihf/6.3.0/../../../../include/c++/6.3.0/bits/stl_vector.h:160:37
	ldr	r0, [r4, #12]
.Ltmp689:
	@DEBUG_VALUE: _M_deallocate:__p <- %R0
	@DEBUG_VALUE: deallocate:__p <- %R0
	@DEBUG_VALUE: deallocate:__p <- %R0
	.loc	13 177 6                @ /usr/bin/../lib/gcc/arm-linux-gnueabihf/6.3.0/../../../../include/c++/6.3.0/bits/stl_vector.h:177:6
	cmp	r0, #0
	beq	.LBB16_10
.Ltmp690:
@ BB#9:                                 @   in Loop: Header=BB16_8 Depth=1
	@DEBUG_VALUE: deallocate:__p <- %R0
	@DEBUG_VALUE: deallocate:__p <- %R0
	@DEBUG_VALUE: _M_deallocate:__p <- %R0
	.loc	9 110 9                 @ /usr/bin/../lib/gcc/arm-linux-gnueabihf/6.3.0/../../../../include/c++/6.3.0/ext/new_allocator.h:110:9
	bl	_ZdlPv
.Ltmp691:
.LBB16_10:                              @ %_ZNSt6vectorIP3FftSaIS1_EED2Ev.exit.i.i.i.i
                                        @   in Loop: Header=BB16_8 Depth=1
	.loc	13 160 37               @ /usr/bin/../lib/gcc/arm-linux-gnueabihf/6.3.0/../../../../include/c++/6.3.0/bits/stl_vector.h:160:37
	ldr	r0, [r4]
.Ltmp692:
	@DEBUG_VALUE: _M_deallocate:__p <- %R0
	@DEBUG_VALUE: deallocate:__p <- %R0
	@DEBUG_VALUE: deallocate:__p <- %R0
	.loc	13 177 6                @ /usr/bin/../lib/gcc/arm-linux-gnueabihf/6.3.0/../../../../include/c++/6.3.0/bits/stl_vector.h:177:6
	cmp	r0, #0
	beq	.LBB16_12
.Ltmp693:
@ BB#11:                                @   in Loop: Header=BB16_8 Depth=1
	@DEBUG_VALUE: deallocate:__p <- %R0
	@DEBUG_VALUE: deallocate:__p <- %R0
	@DEBUG_VALUE: _M_deallocate:__p <- %R0
	.loc	9 110 9                 @ /usr/bin/../lib/gcc/arm-linux-gnueabihf/6.3.0/../../../../include/c++/6.3.0/ext/new_allocator.h:110:9
	bl	_ZdlPv
.Ltmp694:
.LBB16_12:                              @ %_ZSt8_DestroyI8HRTFDataEvPT_.exit.i.i
                                        @   in Loop: Header=BB16_8 Depth=1
	.loc	49 102 19 discriminator 1 @ /usr/bin/../lib/gcc/arm-linux-gnueabihf/6.3.0/../../../../include/c++/6.3.0/bits/stl_construct.h:102:19
	add	r4, r4, #164
	subs	r6, r6, #164
	bne	.LBB16_8
.Ltmp695:
.LBB16_13:                              @ %_ZSt8_DestroyIP8HRTFDataEvT_S2_.exit
	.loc	47 81 8                 @ /usr/bin/../lib/gcc/arm-linux-gnueabihf/6.3.0/../../../../include/c++/6.3.0/bits/stl_uninitialized.h:81:8
.Ltmp664:
	mov	lr, pc
	b	__cxa_rethrow
.Ltmp665:
@ BB#14:
.LBB16_15:
.Ltmp666:
	mov	r4, r0
	.loc	47 82 6                 @ /usr/bin/../lib/gcc/arm-linux-gnueabihf/6.3.0/../../../../include/c++/6.3.0/bits/stl_uninitialized.h:82:6
.Ltmp667:
	bl	__cxa_end_catch
.Ltmp668:
@ BB#16:
	mov	r0, r4
	mov	lr, pc
	b	_Unwind_Resume
.LBB16_17:
.Ltmp669:
	.loc	47 82 6 is_stmt 0 discriminator 2 @ /usr/bin/../lib/gcc/arm-linux-gnueabihf/6.3.0/../../../../include/c++/6.3.0/bits/stl_uninitialized.h:82:6
	mov	lr, pc
	b	__clang_call_terminate
.Ltmp696:
.Lfunc_end16:
	.size	_ZNSt20__uninitialized_copyILb0EE13__uninit_copyIPK8HRTFDataPS2_EET0_T_S7_S6_, .Lfunc_end16-_ZNSt20__uninitialized_copyILb0EE13__uninit_copyIPK8HRTFDataPS2_EET0_T_S7_S6_
	.cfi_endproc
	.globl	__gxx_personality_v0
	.personality __gxx_personality_v0
	.handlerdata
	.p2align	2
GCC_except_table16:
.Lexception6:
	.byte	255                     @ @LPStart Encoding = omit
	.byte	0                       @ @TType Encoding = absptr
	.byte	73                      @ @TType base offset
	.byte	3                       @ Call site Encoding = udata4
	.byte	65                      @ Call site table length
	.long	.Ltmp661-.Lfunc_begin16 @ >> Call Site 1 <<
	.long	.Ltmp662-.Ltmp661       @   Call between .Ltmp661 and .Ltmp662
	.long	.Ltmp663-.Lfunc_begin16 @     jumps to .Ltmp663
	.byte	1                       @   On action: 1
	.long	.Ltmp662-.Lfunc_begin16 @ >> Call Site 2 <<
	.long	.Ltmp664-.Ltmp662       @   Call between .Ltmp662 and .Ltmp664
	.long	0                       @     has no landing pad
	.byte	0                       @   On action: cleanup
	.long	.Ltmp664-.Lfunc_begin16 @ >> Call Site 3 <<
	.long	.Ltmp665-.Ltmp664       @   Call between .Ltmp664 and .Ltmp665
	.long	.Ltmp666-.Lfunc_begin16 @     jumps to .Ltmp666
	.byte	0                       @   On action: cleanup
	.long	.Ltmp667-.Lfunc_begin16 @ >> Call Site 4 <<
	.long	.Ltmp668-.Ltmp667       @   Call between .Ltmp667 and .Ltmp668
	.long	.Ltmp669-.Lfunc_begin16 @     jumps to .Ltmp669
	.byte	1                       @   On action: 1
	.long	.Ltmp668-.Lfunc_begin16 @ >> Call Site 5 <<
	.long	.Lfunc_end16-.Ltmp668   @   Call between .Ltmp668 and .Lfunc_end16
	.long	0                       @     has no landing pad
	.byte	0                       @   On action: cleanup
	.byte	1                       @ >> Action Record 1 <<
                                        @   Catch TypeInfo 1
	.byte	0                       @   No further actions
                                        @ >> Catch TypeInfos <<
	.long	0                       @ TypeInfo 1
	.p2align	2
	.fnend

	.section	.text._ZNSt6vectorIP3FftSaIS1_EE17_M_default_appendEj,"axG",%progbits,_ZNSt6vectorIP3FftSaIS1_EE17_M_default_appendEj,comdat
	.weak	_ZNSt6vectorIP3FftSaIS1_EE17_M_default_appendEj
	.p2align	2
	.type	_ZNSt6vectorIP3FftSaIS1_EE17_M_default_appendEj,%function
_ZNSt6vectorIP3FftSaIS1_EE17_M_default_appendEj: @ @_ZNSt6vectorIP3FftSaIS1_EE17_M_default_appendEj
.Lfunc_begin17:
	.loc	48 542 0 is_stmt 1      @ /usr/bin/../lib/gcc/arm-linux-gnueabihf/6.3.0/../../../../include/c++/6.3.0/bits/vector.tcc:542:0
	.fnstart
	.cfi_startproc
@ BB#0:
	.save	{r4, r5, r6, r7, r8, r10, r11, lr}
	push	{r4, r5, r6, r7, r8, r10, r11, lr}
.Ltmp697:
	.cfi_def_cfa_offset 32
.Ltmp698:
	.cfi_offset lr, -4
.Ltmp699:
	.cfi_offset r11, -8
.Ltmp700:
	.cfi_offset r10, -12
.Ltmp701:
	.cfi_offset r8, -16
.Ltmp702:
	.cfi_offset r7, -20
.Ltmp703:
	.cfi_offset r6, -24
.Ltmp704:
	.cfi_offset r5, -28
.Ltmp705:
	.cfi_offset r4, -32
	.setfp	r11, sp, #24
	add	r11, sp, #24
.Ltmp706:
	.cfi_def_cfa r11, 8
	@DEBUG_VALUE: _M_default_append:this <- %R0
	@DEBUG_VALUE: _M_default_append:__n <- %R1
	mov	r5, r1
.Ltmp707:
	@DEBUG_VALUE: _M_default_append:__n <- %R5
	mov	r4, r0
.Ltmp708:
	@DEBUG_VALUE: _M_default_append:this <- %R4
	.loc	48 543 11 prologue_end  @ /usr/bin/../lib/gcc/arm-linux-gnueabihf/6.3.0/../../../../include/c++/6.3.0/bits/vector.tcc:543:11
	cmp	r5, #0
	beq	.LBB17_11
.Ltmp709:
@ BB#1:
	@DEBUG_VALUE: _M_default_append:this <- %R4
	@DEBUG_VALUE: _M_default_append:__n <- %R5
	@DEBUG_VALUE: __fill_n_a<Fft **, unsigned int, Fft *>:__first <- %R7
	@DEBUG_VALUE: fill_n<Fft **, unsigned int, Fft *>:__first <- %R7
	@DEBUG_VALUE: __uninit_default_n<Fft **, unsigned int>:__first <- %R7
	@DEBUG_VALUE: __uninitialized_default_n<Fft **, unsigned int>:__first <- %R7
	@DEBUG_VALUE: __uninitialized_default_n_a<Fft **, unsigned int, Fft *>:__first <- %R7
	.loc	48 546 20               @ /usr/bin/../lib/gcc/arm-linux-gnueabihf/6.3.0/../../../../include/c++/6.3.0/bits/vector.tcc:546:20
	ldr	r7, [r4, #4]
.Ltmp710:
	.loc	48 545 32               @ /usr/bin/../lib/gcc/arm-linux-gnueabihf/6.3.0/../../../../include/c++/6.3.0/bits/vector.tcc:545:32
	ldr	r0, [r4, #8]
	.loc	48 546 4                @ /usr/bin/../lib/gcc/arm-linux-gnueabihf/6.3.0/../../../../include/c++/6.3.0/bits/vector.tcc:546:4
	sub	r0, r0, r7
	asr	r0, r0, #2
.Ltmp711:
	.loc	48 545 8                @ /usr/bin/../lib/gcc/arm-linux-gnueabihf/6.3.0/../../../../include/c++/6.3.0/bits/vector.tcc:545:8
	cmp	r0, r5
	bhs	.LBB17_12
.Ltmp712:
@ BB#2:
	@DEBUG_VALUE: _M_default_append:this <- %R4
	@DEBUG_VALUE: _M_default_append:__n <- %R5
	@DEBUG_VALUE: size:this <- %R4
	.loc	13 656 66               @ /usr/bin/../lib/gcc/arm-linux-gnueabihf/6.3.0/../../../../include/c++/6.3.0/bits/stl_vector.h:656:66
	ldr	r1, [r4]
.Ltmp713:
	.loc	13 1422 17              @ /usr/bin/../lib/gcc/arm-linux-gnueabihf/6.3.0/../../../../include/c++/6.3.0/bits/stl_vector.h:1422:17
	mvn	r8, #-1073741824
.Ltmp714:
	.loc	13 656 50               @ /usr/bin/../lib/gcc/arm-linux-gnueabihf/6.3.0/../../../../include/c++/6.3.0/bits/stl_vector.h:656:50
	sub	r0, r7, r1
.Ltmp715:
	.loc	13 1422 17              @ /usr/bin/../lib/gcc/arm-linux-gnueabihf/6.3.0/../../../../include/c++/6.3.0/bits/stl_vector.h:1422:17
	sub	r2, r8, r0, asr #2
.Ltmp716:
	@DEBUG_VALUE: _M_check_len:__n <- %R5
	.loc	13 1422 6 is_stmt 0     @ /usr/bin/../lib/gcc/arm-linux-gnueabihf/6.3.0/../../../../include/c++/6.3.0/bits/stl_vector.h:1422:6
	cmp	r2, r5
	blo	.LBB17_13
.Ltmp717:
@ BB#3:                                 @ %_ZNKSt6vectorIP3FftSaIS1_EE12_M_check_lenEjPKc.exit
	@DEBUG_VALUE: _M_check_len:__n <- %R5
	@DEBUG_VALUE: size:this <- %R4
	@DEBUG_VALUE: _M_default_append:this <- %R4
	@DEBUG_VALUE: _M_default_append:__n <- %R5
	.loc	13 656 50 is_stmt 1     @ /usr/bin/../lib/gcc/arm-linux-gnueabihf/6.3.0/../../../../include/c++/6.3.0/bits/stl_vector.h:656:50
	asr	r0, r0, #2
.Ltmp718:
	.loc	13 1425 35              @ /usr/bin/../lib/gcc/arm-linux-gnueabihf/6.3.0/../../../../include/c++/6.3.0/bits/stl_vector.h:1425:35
	cmp	r0, r5
	mov	r2, r0
	mov	r6, #0
	movlo	r2, r5
	add	r0, r2, r0
	.loc	13 1426 25              @ /usr/bin/../lib/gcc/arm-linux-gnueabihf/6.3.0/../../../../include/c++/6.3.0/bits/stl_vector.h:1426:25
	cmp	r6, r0, lsr #30
	mov	r3, r0
	mvnne	r3, #-1073741824
	cmp	r0, r2
	movhs	r8, r3
.Ltmp719:
	@DEBUG_VALUE: _M_allocate:__n <- %R8
	@DEBUG_VALUE: __len <- %R8
	@DEBUG_VALUE: allocate:__n <- %R8
	@DEBUG_VALUE: allocate:__n <- %R8
	.loc	13 170 9                @ /usr/bin/../lib/gcc/arm-linux-gnueabihf/6.3.0/../../../../include/c++/6.3.0/bits/stl_vector.h:170:9
	cmp	r8, #0
.Ltmp720:
	@DEBUG_VALUE: _M_check_len:__len <- %R0
	beq	.LBB17_6
.Ltmp721:
@ BB#4:
	@DEBUG_VALUE: _M_check_len:__len <- %R0
	@DEBUG_VALUE: allocate:__n <- %R8
	@DEBUG_VALUE: allocate:__n <- %R8
	@DEBUG_VALUE: __len <- %R8
	@DEBUG_VALUE: _M_allocate:__n <- %R8
	@DEBUG_VALUE: _M_check_len:__n <- %R5
	@DEBUG_VALUE: size:this <- %R4
	@DEBUG_VALUE: _M_default_append:this <- %R4
	@DEBUG_VALUE: _M_default_append:__n <- %R5
	.loc	9 101 6                 @ /usr/bin/../lib/gcc/arm-linux-gnueabihf/6.3.0/../../../../include/c++/6.3.0/ext/new_allocator.h:101:6
	cmp	r8, #1073741824
	bhs	.LBB17_14
.Ltmp722:
@ BB#5:                                 @ %_ZNSt16allocator_traitsISaIP3FftEE8allocateERS2_j.exit.i
	@DEBUG_VALUE: _M_check_len:__len <- %R0
	@DEBUG_VALUE: allocate:__n <- %R8
	@DEBUG_VALUE: allocate:__n <- %R8
	@DEBUG_VALUE: __len <- %R8
	@DEBUG_VALUE: _M_allocate:__n <- %R8
	@DEBUG_VALUE: _M_check_len:__n <- %R5
	@DEBUG_VALUE: size:this <- %R4
	@DEBUG_VALUE: _M_default_append:this <- %R4
	@DEBUG_VALUE: _M_default_append:__n <- %R5
	.loc	9 104 46                @ /usr/bin/../lib/gcc/arm-linux-gnueabihf/6.3.0/../../../../include/c++/6.3.0/ext/new_allocator.h:104:46
	lsl	r0, r8, #2
.Ltmp723:
	.loc	9 104 27 is_stmt 0      @ /usr/bin/../lib/gcc/arm-linux-gnueabihf/6.3.0/../../../../include/c++/6.3.0/ext/new_allocator.h:104:27
	bl	_Znwj
.Ltmp724:
	.loc	48 563 22 is_stmt 1     @ /usr/bin/../lib/gcc/arm-linux-gnueabihf/6.3.0/../../../../include/c++/6.3.0/bits/vector.tcc:563:22
	ldm	r4, {r1, r7}
.Ltmp725:
	@DEBUG_VALUE: size:this <- %R4
	.loc	9 104 27                @ /usr/bin/../lib/gcc/arm-linux-gnueabihf/6.3.0/../../../../include/c++/6.3.0/ext/new_allocator.h:104:27
	mov	r6, r0
.Ltmp726:
.LBB17_6:                               @ %_ZNSt12_Vector_baseIP3FftSaIS1_EE11_M_allocateEj.exit
	@DEBUG_VALUE: allocate:__n <- %R8
	@DEBUG_VALUE: allocate:__n <- %R8
	@DEBUG_VALUE: __len <- %R8
	@DEBUG_VALUE: _M_allocate:__n <- %R8
	@DEBUG_VALUE: _M_check_len:__n <- %R5
	@DEBUG_VALUE: size:this <- %R4
	@DEBUG_VALUE: _M_default_append:this <- %R4
	@DEBUG_VALUE: _M_default_append:__n <- %R5
	@DEBUG_VALUE: __uninitialized_move_if_noexcept_a<Fft **, Fft **, std::allocator<Fft *> >:__first <- %R1
	@DEBUG_VALUE: uninitialized_copy<std::move_iterator<Fft **>, Fft **>:__assignable <- 1
	@DEBUG_VALUE: __copy_move_a<true, Fft **, Fft **>:__simple <- 1
	.loc	45 366 34               @ /usr/bin/../lib/gcc/arm-linux-gnueabihf/6.3.0/../../../../include/c++/6.3.0/bits/stl_algobase.h:366:34
	sub	r2, r7, r1
	mov	r0, #0
	asr	r7, r2, #2
.Ltmp727:
	@DEBUG_VALUE: __copy_m<Fft *>:_Num <- %R7
	.loc	45 367 8                @ /usr/bin/../lib/gcc/arm-linux-gnueabihf/6.3.0/../../../../include/c++/6.3.0/bits/stl_algobase.h:367:8
	cmp	r0, r2, asr #2
	beq	.LBB17_8
.Ltmp728:
@ BB#7:
	@DEBUG_VALUE: __copy_m<Fft *>:_Num <- %R7
	@DEBUG_VALUE: __uninitialized_move_if_noexcept_a<Fft **, Fft **, std::allocator<Fft *> >:__first <- %R1
	@DEBUG_VALUE: allocate:__n <- %R8
	@DEBUG_VALUE: allocate:__n <- %R8
	@DEBUG_VALUE: __len <- %R8
	@DEBUG_VALUE: _M_allocate:__n <- %R8
	@DEBUG_VALUE: _M_check_len:__n <- %R5
	@DEBUG_VALUE: size:this <- %R4
	@DEBUG_VALUE: _M_default_append:this <- %R4
	@DEBUG_VALUE: _M_default_append:__n <- %R5
	.loc	45 368 6                @ /usr/bin/../lib/gcc/arm-linux-gnueabihf/6.3.0/../../../../include/c++/6.3.0/bits/stl_algobase.h:368:6
	mov	r0, r6
	bl	memmove
.Ltmp729:
	@DEBUG_VALUE: __uninitialized_move_if_noexcept_a<Fft **, Fft **, std::allocator<Fft *> >:__result <- %R6
.LBB17_8:
	@DEBUG_VALUE: __copy_m<Fft *>:_Num <- %R7
	@DEBUG_VALUE: allocate:__n <- %R8
	@DEBUG_VALUE: allocate:__n <- %R8
	@DEBUG_VALUE: __len <- %R8
	@DEBUG_VALUE: _M_allocate:__n <- %R8
	@DEBUG_VALUE: _M_check_len:__n <- %R5
	@DEBUG_VALUE: size:this <- %R4
	@DEBUG_VALUE: _M_default_append:this <- %R4
	@DEBUG_VALUE: _M_default_append:__n <- %R5
	.loc	45 369 20               @ /usr/bin/../lib/gcc/arm-linux-gnueabihf/6.3.0/../../../../include/c++/6.3.0/bits/stl_algobase.h:369:20
	add	r7, r6, r7, lsl #2
.Ltmp730:
	@DEBUG_VALUE: __niter <- %R5
	@DEBUG_VALUE: __fill_n_a<Fft **, unsigned int, Fft *>:__first <- %R7
	@DEBUG_VALUE: fill_n<Fft **, unsigned int, Fft *>:__first <- %R7
	@DEBUG_VALUE: __uninit_default_n<Fft **, unsigned int>:__first <- %R7
	@DEBUG_VALUE: __uninitialized_default_n<Fft **, unsigned int>:__assignable <- 1
	@DEBUG_VALUE: __uninitialized_default_n<Fft **, unsigned int>:__first <- %R7
	@DEBUG_VALUE: __uninitialized_default_n_a<Fft **, unsigned int, Fft *>:__first <- %R7
	@DEBUG_VALUE: __new_finish <- %R7
	.loc	45 754 11               @ /usr/bin/../lib/gcc/arm-linux-gnueabihf/6.3.0/../../../../include/c++/6.3.0/bits/stl_algobase.h:754:11
	lsl	r2, r5, #2
	mov	r1, #0
	mov	r0, r7
	bl	memset
.Ltmp731:
	.loc	48 578 36               @ /usr/bin/../lib/gcc/arm-linux-gnueabihf/6.3.0/../../../../include/c++/6.3.0/bits/vector.tcc:578:36
	ldr	r0, [r4]
.Ltmp732:
	@DEBUG_VALUE: _M_deallocate:__p <- %R0
	@DEBUG_VALUE: deallocate:__p <- %R0
	@DEBUG_VALUE: deallocate:__p <- %R0
	.loc	45 754 11               @ /usr/bin/../lib/gcc/arm-linux-gnueabihf/6.3.0/../../../../include/c++/6.3.0/bits/stl_algobase.h:754:11
	add	r5, r7, r5, lsl #2
.Ltmp733:
	@DEBUG_VALUE: __new_finish <- %R5
	.loc	13 177 6                @ /usr/bin/../lib/gcc/arm-linux-gnueabihf/6.3.0/../../../../include/c++/6.3.0/bits/stl_vector.h:177:6
	cmp	r0, #0
	beq	.LBB17_10
.Ltmp734:
@ BB#9:
	@DEBUG_VALUE: __new_finish <- %R5
	@DEBUG_VALUE: deallocate:__p <- %R0
	@DEBUG_VALUE: deallocate:__p <- %R0
	@DEBUG_VALUE: _M_deallocate:__p <- %R0
	@DEBUG_VALUE: __uninitialized_default_n_a<Fft **, unsigned int, Fft *>:__first <- %R7
	@DEBUG_VALUE: __uninitialized_default_n<Fft **, unsigned int>:__first <- %R7
	@DEBUG_VALUE: __uninit_default_n<Fft **, unsigned int>:__first <- %R7
	@DEBUG_VALUE: fill_n<Fft **, unsigned int, Fft *>:__first <- %R7
	@DEBUG_VALUE: __fill_n_a<Fft **, unsigned int, Fft *>:__first <- %R7
	@DEBUG_VALUE: allocate:__n <- %R8
	@DEBUG_VALUE: allocate:__n <- %R8
	@DEBUG_VALUE: __len <- %R8
	@DEBUG_VALUE: _M_allocate:__n <- %R8
	@DEBUG_VALUE: size:this <- %R4
	@DEBUG_VALUE: _M_default_append:this <- %R4
	.loc	9 110 9                 @ /usr/bin/../lib/gcc/arm-linux-gnueabihf/6.3.0/../../../../include/c++/6.3.0/ext/new_allocator.h:110:9
	bl	_ZdlPv
.Ltmp735:
.LBB17_10:                              @ %_ZNSt12_Vector_baseIP3FftSaIS1_EE13_M_deallocateEPS1_j.exit31
	@DEBUG_VALUE: __new_finish <- %R5
	@DEBUG_VALUE: __uninitialized_default_n_a<Fft **, unsigned int, Fft *>:__first <- %R7
	@DEBUG_VALUE: __uninitialized_default_n<Fft **, unsigned int>:__first <- %R7
	@DEBUG_VALUE: __uninit_default_n<Fft **, unsigned int>:__first <- %R7
	@DEBUG_VALUE: fill_n<Fft **, unsigned int, Fft *>:__first <- %R7
	@DEBUG_VALUE: __fill_n_a<Fft **, unsigned int, Fft *>:__first <- %R7
	@DEBUG_VALUE: allocate:__n <- %R8
	@DEBUG_VALUE: allocate:__n <- %R8
	@DEBUG_VALUE: __len <- %R8
	@DEBUG_VALUE: _M_allocate:__n <- %R8
	@DEBUG_VALUE: size:this <- %R4
	@DEBUG_VALUE: _M_default_append:this <- %R4
	.loc	48 581 31               @ /usr/bin/../lib/gcc/arm-linux-gnueabihf/6.3.0/../../../../include/c++/6.3.0/bits/vector.tcc:581:31
	str	r6, [r4]
	.loc	48 583 54               @ /usr/bin/../lib/gcc/arm-linux-gnueabihf/6.3.0/../../../../include/c++/6.3.0/bits/vector.tcc:583:54
	add	r0, r6, r8, lsl #2
	.loc	48 582 32               @ /usr/bin/../lib/gcc/arm-linux-gnueabihf/6.3.0/../../../../include/c++/6.3.0/bits/vector.tcc:582:32
	str	r5, [r4, #4]
	.loc	48 583 40               @ /usr/bin/../lib/gcc/arm-linux-gnueabihf/6.3.0/../../../../include/c++/6.3.0/bits/vector.tcc:583:40
	str	r0, [r4, #8]
.Ltmp736:
.LBB17_11:
	@DEBUG_VALUE: _M_default_append:this <- %R4
	.loc	48 586 5 discriminator 2 @ /usr/bin/../lib/gcc/arm-linux-gnueabihf/6.3.0/../../../../include/c++/6.3.0/bits/vector.tcc:586:5
	pop	{r4, r5, r6, r7, r8, r10, r11, pc}
.Ltmp737:
.LBB17_12:                              @ %_ZSt27__uninitialized_default_n_aIPP3FftjS1_ET_S3_T0_RSaIT1_E.exit
	@DEBUG_VALUE: _M_default_append:this <- %R4
	@DEBUG_VALUE: _M_default_append:__n <- %R5
	@DEBUG_VALUE: __uninitialized_default_n<Fft **, unsigned int>:__assignable <- 1
	@DEBUG_VALUE: __niter <- %R5
	.loc	45 754 11               @ /usr/bin/../lib/gcc/arm-linux-gnueabihf/6.3.0/../../../../include/c++/6.3.0/bits/stl_algobase.h:754:11
	lsl	r2, r5, #2
	mov	r0, r7
	mov	r1, #0
	bl	memset
	add	r0, r7, r5, lsl #2
.Ltmp738:
	.loc	48 548 32               @ /usr/bin/../lib/gcc/arm-linux-gnueabihf/6.3.0/../../../../include/c++/6.3.0/bits/vector.tcc:548:32
	str	r0, [r4, #4]
.Ltmp739:
	.loc	48 586 5 discriminator 2 @ /usr/bin/../lib/gcc/arm-linux-gnueabihf/6.3.0/../../../../include/c++/6.3.0/bits/vector.tcc:586:5
	pop	{r4, r5, r6, r7, r8, r10, r11, pc}
.Ltmp740:
.LBB17_13:
	@DEBUG_VALUE: _M_check_len:__n <- %R5
	@DEBUG_VALUE: size:this <- %R4
	@DEBUG_VALUE: _M_default_append:this <- %R4
	@DEBUG_VALUE: _M_default_append:__n <- %R5
	.loc	13 1423 4               @ /usr/bin/../lib/gcc/arm-linux-gnueabihf/6.3.0/../../../../include/c++/6.3.0/bits/stl_vector.h:1423:4
	movw	r0, :lower16:.L.str.10
	movt	r0, :upper16:.L.str.10
.Ltmp741:
	@DEBUG_VALUE: _M_check_len:__s <- %R0
	mov	lr, pc
	b	_ZSt20__throw_length_errorPKc
.Ltmp742:
.LBB17_14:
	@DEBUG_VALUE: _M_check_len:__len <- %R0
	@DEBUG_VALUE: allocate:__n <- %R8
	@DEBUG_VALUE: allocate:__n <- %R8
	@DEBUG_VALUE: __len <- %R8
	@DEBUG_VALUE: _M_allocate:__n <- %R8
	@DEBUG_VALUE: _M_check_len:__n <- %R5
	@DEBUG_VALUE: size:this <- %R4
	@DEBUG_VALUE: _M_default_append:this <- %R4
	@DEBUG_VALUE: _M_default_append:__n <- %R5
	.loc	9 102 4                 @ /usr/bin/../lib/gcc/arm-linux-gnueabihf/6.3.0/../../../../include/c++/6.3.0/ext/new_allocator.h:102:4
	mov	lr, pc
	b	_ZSt17__throw_bad_allocv
.Ltmp743:
.Lfunc_end17:
	.size	_ZNSt6vectorIP3FftSaIS1_EE17_M_default_appendEj, .Lfunc_end17-_ZNSt6vectorIP3FftSaIS1_EE17_M_default_appendEj
	.cfi_endproc
	.fnend

	.type	.L.str,%object          @ @.str
	.section	.rodata.str1.1,"aMS",%progbits,1
.L.str:
	.asciz	"sofa"
	.size	.L.str, 5

	.type	.L.str.1,%object        @ @.str.1
.L.str.1:
	.asciz	"spherical"
	.size	.L.str.1, 10

	.type	.L.str.2,%object        @ @.str.2
.L.str.2:
	.asciz	"degree, degree, meter"
	.size	.L.str.2, 22

	.type	.L.str.3,%object        @ @.str.3
.L.str.3:
	.asciz	"degree, degree, metre"
	.size	.L.str.3, 22

	.type	.L.str.4,%object        @ @.str.4
.L.str.4:
	.asciz	"triggering N>FFT/2-1\n"
	.size	.L.str.4, 22

	.type	.L.str.5,%object        @ @.str.5
.L.str.5:
	.asciz	"basic_string::_M_construct null not valid"
	.size	.L.str.5, 42

	.type	.L.str.6,%object        @ @.str.6
.L.str.6:
	.asciz	"basic_string::substr"
	.size	.L.str.6, 21

	.type	.L.str.7,%object        @ @.str.7
.L.str.7:
	.asciz	"%s: __pos (which is %zu) > this->size() (which is %zu)"
	.size	.L.str.7, 55

	.type	.L.str.10,%object       @ @.str.10
.L.str.10:
	.asciz	"vector::_M_default_append"
	.size	.L.str.10, 26

	.file	51 "<stdin>"
	.file	52 "/usr/bin/../lib/gcc/arm-linux-gnueabihf/6.3.0/../../../../include/c++/6.3.0/bits" "stringfwd.h"
	.file	53 "/usr/include" "dirent.h"
	.file	54 "/usr/include/arm-linux-gnueabihf/bits" "dirent.h"