	.text
	.syntax unified
	.eabi_attribute	67, "2.09"	@ Tag_conformance
	.cpu	cortex-a8
	.eabi_attribute	6, 10	@ Tag_CPU_arch
	.eabi_attribute	7, 65	@ Tag_CPU_arch_profile
	.eabi_attribute	8, 1	@ Tag_ARM_ISA_use
	.eabi_attribute	9, 2	@ Tag_THUMB_ISA_use
	.fpu	neon
	.eabi_attribute	17, 1	@ Tag_ABI_PCS_GOT_use
	.eabi_attribute	20, 2	@ Tag_ABI_FP_denormal
	.eabi_attribute	23, 1	@ Tag_ABI_FP_number_model
	.eabi_attribute	34, 1	@ Tag_CPU_unaligned_access
	.eabi_attribute	24, 1	@ Tag_ABI_align_needed
	.eabi_attribute	25, 1	@ Tag_ABI_align_preserved
	.eabi_attribute	28, 1	@ Tag_ABI_VFP_args
	.eabi_attribute	38, 1	@ Tag_ABI_FP_16bit_format
	.eabi_attribute	18, 4	@ Tag_ABI_PCS_wchar_t
	.eabi_attribute	26, 2	@ Tag_ABI_enum_size
	.eabi_attribute	14, 0	@ Tag_ABI_PCS_R9_use
	.eabi_attribute	68, 1	@ Tag_Virtualization_use
	.file	"/root/Bela/projects/SOFAlizer-for-Bela/build/debug_file_print.bc"
	.file	1 "/usr/bin/../lib/gcc/arm-linux-gnueabihf/6.3.0/../../../../include/arm-linux-gnueabihf/c++/6.3.0/bits" "c++config.h"
	.file	2 "/usr/bin/../lib/gcc/arm-linux-gnueabihf/6.3.0/../../../../include/arm-linux-gnueabihf/c++/6.3.0/bits" "atomic_word.h"
	.file	3 "/usr/bin/../lib/gcc/arm-linux-gnueabihf/6.3.0/../../../../include/c++/6.3.0/bits" "ios_base.h"
	.file	4 "/usr/bin/../lib/gcc/arm-linux-gnueabihf/6.3.0/../../../../include/c++/6.3.0" "iostream"
	.file	5 "/usr/bin/../lib/gcc/arm-linux-gnueabihf/6.3.0/../../../../include/c++/6.3.0/bits" "basic_string.h"
	.file	6 "/usr/bin/../lib/gcc/arm-linux-gnueabihf/6.3.0/../../../../include/c++/6.3.0/bits" "alloc_traits.h"
	.file	7 "/usr/bin/../lib/gcc/arm-linux-gnueabihf/6.3.0/../../../../include/c++/6.3.0/ext" "alloc_traits.h"
	.file	8 "/usr/bin/../lib/gcc/arm-linux-gnueabihf/6.3.0/../../../../include/c++/6.3.0/bits" "char_traits.h"
	.file	9 "/usr/bin/../lib/gcc/arm-linux-gnueabihf/6.3.0/../../../../include/c++/6.3.0/bits" "postypes.h"
	.file	10 "/usr/bin/../lib/gcc/arm-linux-gnueabihf/6.3.0/../../../../include/c++/6.3.0/bits" "stl_vector.h"
	.file	11 "/usr/include" "wchar.h"
	.file	12 "/usr/lib/llvm-3.9/bin/../lib/clang/3.9.1/include" "stddef.h"
	.file	13 "/usr/include" "libio.h"
	.file	14 "/usr/include/arm-linux-gnueabihf/bits" "types.h"
	.file	15 "/usr/include" "stdio.h"
	.file	16 "/usr/lib/llvm-3.9/bin/../lib/clang/3.9.1/include" "stdarg.h"
	.file	17 "/usr/include" "time.h"
	.file	18 "/usr/bin/../lib/gcc/arm-linux-gnueabihf/6.3.0/../../../../include/c++/6.3.0/bits" "exception_ptr.h"
	.file	19 "/usr/bin/../lib/gcc/arm-linux-gnueabihf/6.3.0/../../../../include/c++/6.3.0/debug" "debug.h"
	.file	20 "/usr/include" "stdint.h"
	.file	21 "/usr/include" "locale.h"
	.file	22 "/usr/include" "ctype.h"
	.file	23 "/usr/include" "stdlib.h"
	.file	24 "/usr/include/arm-linux-gnueabihf/bits" "stdlib-float.h"
	.file	25 "/usr/include/arm-linux-gnueabihf/bits" "stdlib-bsearch.h"
	.file	26 "/usr/bin/../lib/gcc/arm-linux-gnueabihf/6.3.0/../../../../include/c++/6.3.0" "cstdlib"
	.file	27 "/usr/include" "_G_config.h"
	.file	28 "/usr/include/arm-linux-gnueabihf/bits" "stdio.h"
	.file	29 "/usr/include" "wctype.h"
	.file	30 "/root/Bela/projects/SOFAlizer-for-Bela/build" "debug_file_print.cpp"
	.file	31 "/usr/include/arm-linux-gnueabihf/bits" "math-finite.h"
	.file	32 "/usr/include/arm-linux-gnueabihf/bits" "mathcalls.h"
	.file	33 "/usr/include/arm-linux-gnueabihf/bits" "mathdef.h"
	.globl	_Z9fftToFilePK8HRTFData
	.p2align	2
	.type	_Z9fftToFilePK8HRTFData,%function
_Z9fftToFilePK8HRTFData:                @ @_Z9fftToFilePK8HRTFData
.Lfunc_begin0:
	.file	34 "/root/Bela/projects/SOFAlizer-for-Bela" "debug_file_print.cpp"
	.loc	34 12 0                 @ /root/Bela/projects/SOFAlizer-for-Bela/debug_file_print.cpp:12:0
	.fnstart
	.cfi_startproc
@ BB#0:
	.save	{r4, r5, r6, r7, r8, r9, r10, r11, lr}
	push	{r4, r5, r6, r7, r8, r9, r10, r11, lr}
.Ltmp91:
	.cfi_def_cfa_offset 36
.Ltmp92:
	.cfi_offset lr, -4
.Ltmp93:
	.cfi_offset r11, -8
.Ltmp94:
	.cfi_offset r10, -12
.Ltmp95:
	.cfi_offset r9, -16
.Ltmp96:
	.cfi_offset r8, -20
.Ltmp97:
	.cfi_offset r7, -24
.Ltmp98:
	.cfi_offset r6, -28
.Ltmp99:
	.cfi_offset r5, -32
.Ltmp100:
	.cfi_offset r4, -36
	.setfp	r11, sp, #28
	add	r11, sp, #28
.Ltmp101:
	.cfi_def_cfa r11, 8
	.pad	#372
	sub	sp, sp, #372
	@DEBUG_VALUE: fftToFile:hrtfdata <- %R0
	mov	r8, r0
.Ltmp102:
	@DEBUG_VALUE: fftToFile:hrtfdata <- %R8
	sub	r0, r11, #60
.Ltmp103:
	@DEBUG_VALUE: _M_local_data:this <- %R0
	@DEBUG_VALUE: basic_string:this <- %R0
	.loc	5 142 51 prologue_end   @ /usr/bin/../lib/gcc/arm-linux-gnueabihf/6.3.0/../../../../include/c++/6.3.0/bits/basic_string.h:142:51
	add	r4, r0, #8
.Ltmp104:
	.loc	5 110 25                @ /usr/bin/../lib/gcc/arm-linux-gnueabihf/6.3.0/../../../../include/c++/6.3.0/bits/basic_string.h:110:25
	str	r4, [r11, #-60]
.Ltmp105:
	.loc	5 456 27                @ /usr/bin/../lib/gcc/arm-linux-gnueabihf/6.3.0/../../../../include/c++/6.3.0/bits/basic_string.h:456:27
	cmp	r8, #0
	beq	.LBB0_74
.Ltmp106:
@ BB#1:                                 @ %.thread.i
	@DEBUG_VALUE: basic_string:this <- %R0
	@DEBUG_VALUE: _M_local_data:this <- %R0
	@DEBUG_VALUE: fftToFile:hrtfdata <- %R8
	.loc	8 267 16                @ /usr/bin/../lib/gcc/arm-linux-gnueabihf/6.3.0/../../../../include/c++/6.3.0/bits/char_traits.h:267:16
	mov	r0, r8
.Ltmp107:
	bl	strlen
	mov	r5, r0
.Ltmp108:
	@DEBUG_VALUE: _M_construct<const char *>:__dnew <- %R5
	@DEBUG_VALUE: _S_copy:__n <- %R5
	.file	35 "/usr/bin/../lib/gcc/arm-linux-gnueabihf/6.3.0/../../../../include/c++/6.3.0/bits" "basic_string.tcc"
	.loc	35 217 6                @ /usr/bin/../lib/gcc/arm-linux-gnueabihf/6.3.0/../../../../include/c++/6.3.0/bits/basic_string.tcc:217:6
	cmp	r5, #15
	.loc	35 215 12               @ /usr/bin/../lib/gcc/arm-linux-gnueabihf/6.3.0/../../../../include/c++/6.3.0/bits/basic_string.tcc:215:12
	str	r5, [r11, #-88]
	bls	.LBB0_4
.Ltmp109:
@ BB#2:                                 @ %.noexc8.i
	@DEBUG_VALUE: _S_copy:__n <- %R5
	@DEBUG_VALUE: _M_construct<const char *>:__dnew <- %R5
	@DEBUG_VALUE: fftToFile:hrtfdata <- %R8
	.loc	35 219 14               @ /usr/bin/../lib/gcc/arm-linux-gnueabihf/6.3.0/../../../../include/c++/6.3.0/bits/basic_string.tcc:219:14
.Ltmp0:
	sub	r0, r11, #60
.Ltmp110:
	@DEBUG_VALUE: _M_construct<const char *>:this <- %R0
	sub	r1, r11, #88
.Ltmp111:
	@DEBUG_VALUE: _M_construct<const char *>:__dnew <- [%R1+0]
	mov	r2, #0
	bl	_ZNSt7__cxx1112basic_stringIcSt11char_traitsIcESaIcEE9_M_createERjj
.Ltmp112:
.Ltmp1:
.Ltmp113:
@ BB#3:                                 @ %.noexc52
	@DEBUG_VALUE: _S_copy:__n <- %R5
	@DEBUG_VALUE: fftToFile:hrtfdata <- %R8
	@DEBUG_VALUE: _M_data:__p <- %R0
	.loc	35 220 18               @ /usr/bin/../lib/gcc/arm-linux-gnueabihf/6.3.0/../../../../include/c++/6.3.0/bits/basic_string.tcc:220:18
	ldr	r1, [r11, #-88]
.Ltmp114:
	@DEBUG_VALUE: _M_capacity:__capacity <- %R1
	@DEBUG_VALUE: _M_construct<const char *>:__dnew <- %R1
	.loc	5 128 26                @ /usr/bin/../lib/gcc/arm-linux-gnueabihf/6.3.0/../../../../include/c++/6.3.0/bits/basic_string.h:128:26
	str	r0, [r11, #-60]
.Ltmp115:
	.loc	5 160 31                @ /usr/bin/../lib/gcc/arm-linux-gnueabihf/6.3.0/../../../../include/c++/6.3.0/bits/basic_string.h:160:31
	str	r1, [r11, #-52]
	b	.LBB0_5
.Ltmp116:
.LBB0_4:                                @ %._crit_edge.i.i.i.i
	@DEBUG_VALUE: _S_copy:__n <- %R5
	@DEBUG_VALUE: _M_construct<const char *>:__dnew <- %R5
	@DEBUG_VALUE: fftToFile:hrtfdata <- %R8
	.loc	5 136 28                @ /usr/bin/../lib/gcc/arm-linux-gnueabihf/6.3.0/../../../../include/c++/6.3.0/bits/basic_string.h:136:28
	mov	r0, r4
.Ltmp117:
.LBB0_5:
	@DEBUG_VALUE: _S_copy:__n <- %R5
	@DEBUG_VALUE: fftToFile:hrtfdata <- %R8
	.loc	5 297 6                 @ /usr/bin/../lib/gcc/arm-linux-gnueabihf/6.3.0/../../../../include/c++/6.3.0/bits/basic_string.h:297:6
	cmp	r5, #0
	beq	.LBB0_9
.Ltmp118:
@ BB#6:
	@DEBUG_VALUE: _S_copy:__n <- %R5
	@DEBUG_VALUE: fftToFile:hrtfdata <- %R8
	cmp	r5, #1
	bne	.LBB0_8
.Ltmp119:
@ BB#7:
	@DEBUG_VALUE: _S_copy:__n <- %R5
	@DEBUG_VALUE: fftToFile:hrtfdata <- %R8
	.loc	8 243 16                @ /usr/bin/../lib/gcc/arm-linux-gnueabihf/6.3.0/../../../../include/c++/6.3.0/bits/char_traits.h:243:16
	ldrb	r1, [r8]
	.loc	8 243 14 is_stmt 0      @ /usr/bin/../lib/gcc/arm-linux-gnueabihf/6.3.0/../../../../include/c++/6.3.0/bits/char_traits.h:243:14
	strb	r1, [r0]
.Ltmp120:
	@DEBUG_VALUE: _S_copy_chars:__p <- %R0
	b	.LBB0_9
.Ltmp121:
.LBB0_8:
	@DEBUG_VALUE: _S_copy:__n <- %R5
	@DEBUG_VALUE: fftToFile:hrtfdata <- %R8
	.loc	8 290 33 is_stmt 1      @ /usr/bin/../lib/gcc/arm-linux-gnueabihf/6.3.0/../../../../include/c++/6.3.0/bits/char_traits.h:290:33
	mov	r1, r8
	mov	r2, r5
	bl	memcpy
.Ltmp122:
.LBB0_9:                                @ %._crit_edge.i.i.i.i55
	@DEBUG_VALUE: _S_copy:__n <- %R5
	@DEBUG_VALUE: fftToFile:hrtfdata <- %R8
	.loc	35 232 16               @ /usr/bin/../lib/gcc/arm-linux-gnueabihf/6.3.0/../../../../include/c++/6.3.0/bits/basic_string.tcc:232:16
	ldr	r0, [r11, #-88]
.Ltmp123:
	@DEBUG_VALUE: _M_set_length:__n <- %R0
	@DEBUG_VALUE: _M_length:__length <- %R0
	@DEBUG_VALUE: _M_construct<const char *>:__dnew <- %R0
	mov	r2, #0
.Ltmp124:
	.loc	5 132 26                @ /usr/bin/../lib/gcc/arm-linux-gnueabihf/6.3.0/../../../../include/c++/6.3.0/bits/basic_string.h:132:26
	str	r0, [r11, #-56]
.Ltmp125:
	.loc	5 136 28                @ /usr/bin/../lib/gcc/arm-linux-gnueabihf/6.3.0/../../../../include/c++/6.3.0/bits/basic_string.h:136:28
	ldr	r1, [r11, #-60]
	str	r4, [sp, #8]            @ 4-byte Spill
.Ltmp126:
	.loc	8 243 14                @ /usr/bin/../lib/gcc/arm-linux-gnueabihf/6.3.0/../../../../include/c++/6.3.0/bits/char_traits.h:243:14
	strb	r2, [r1, r0]
	sub	r0, r11, #88
.Ltmp127:
	@DEBUG_VALUE: operator+<char, std::char_traits<char>, std::allocator<char> >:__rhs <- %R0
	@DEBUG_VALUE: _M_data:this <- %R0
	@DEBUG_VALUE: _M_length:this <- %R0
	@DEBUG_VALUE: _M_set_length:__n <- 13
	@DEBUG_VALUE: _M_set_length:this <- %R0
	@DEBUG_VALUE: _M_data:this <- %R0
	@DEBUG_VALUE: _M_construct<const char *>:__dnew <- 13
	@DEBUG_VALUE: _M_construct<const char *>:this <- %R0
	@DEBUG_VALUE: _M_construct_aux<const char *>:this <- %R0
	@DEBUG_VALUE: _M_construct<const char *>:this <- %R0
	@DEBUG_VALUE: _M_local_data:this <- %R0
	@DEBUG_VALUE: basic_string:this <- %R0
	.loc	5 142 51                @ /usr/bin/../lib/gcc/arm-linux-gnueabihf/6.3.0/../../../../include/c++/6.3.0/bits/basic_string.h:142:51
	add	r1, r0, #8
.Ltmp128:
	@DEBUG_VALUE: _S_copy_chars:__p <- %R1
	@DEBUG_VALUE: _S_copy:__d <- %R1
	str	r1, [sp, #4]            @ 4-byte Spill
.Ltmp129:
	@DEBUG_VALUE: _S_copy_chars:__p <- [%SP+4]
	@DEBUG_VALUE: _S_copy:__d <- [%SP+4]
	.loc	8 290 33                @ /usr/bin/../lib/gcc/arm-linux-gnueabihf/6.3.0/../../../../include/c++/6.3.0/bits/char_traits.h:290:33
	add	r0, r0, #13
.Ltmp130:
	.loc	5 110 25                @ /usr/bin/../lib/gcc/arm-linux-gnueabihf/6.3.0/../../../../include/c++/6.3.0/bits/basic_string.h:110:25
	str	r1, [r11, #-88]
.Ltmp131:
	@DEBUG_VALUE: _S_copy:__n <- 13
	.loc	8 290 33                @ /usr/bin/../lib/gcc/arm-linux-gnueabihf/6.3.0/../../../../include/c++/6.3.0/bits/char_traits.h:290:33
	movw	r1, :lower16:.L.str
	movt	r1, :upper16:.L.str
	add	r3, r1, #5
	vldr	d17, [r1]
	vld1.8	{d16}, [r3]
	vst1.8	{d16}, [r0]
	mov	r0, #13
.Ltmp132:
	@DEBUG_VALUE: _M_length:__length <- 13
	vstr	d17, [r11, #-80]
.Ltmp133:
	.loc	5 132 26                @ /usr/bin/../lib/gcc/arm-linux-gnueabihf/6.3.0/../../../../include/c++/6.3.0/bits/basic_string.h:132:26
	str	r0, [r11, #-84]
	add	r0, sp, #12
.Ltmp134:
	@DEBUG_VALUE: _M_construct<char *>:this <- %R0
	@DEBUG_VALUE: _M_construct_aux<char *>:this <- %R0
	@DEBUG_VALUE: _M_construct<char *>:this <- %R0
	@DEBUG_VALUE: _M_local_data:this <- %R0
	@DEBUG_VALUE: basic_string:this <- %R0
	.loc	5 136 28                @ /usr/bin/../lib/gcc/arm-linux-gnueabihf/6.3.0/../../../../include/c++/6.3.0/bits/basic_string.h:136:28
	ldr	r5, [r11, #-60]
.Ltmp135:
	@DEBUG_VALUE: _M_construct<char *>:__beg <- %R5
	@DEBUG_VALUE: _M_construct_aux<char *>:__beg <- %R5
	@DEBUG_VALUE: _M_construct<char *>:__beg <- %R5
	@DEBUG_VALUE: _S_copy_chars:__k1 <- %R5
	@DEBUG_VALUE: _S_copy:__s <- %R5
	@DEBUG_VALUE: assign:__c2 <- %R5
	.loc	5 142 51                @ /usr/bin/../lib/gcc/arm-linux-gnueabihf/6.3.0/../../../../include/c++/6.3.0/bits/basic_string.h:142:51
	add	r7, r0, #8
.Ltmp136:
	.loc	5 811 16                @ /usr/bin/../lib/gcc/arm-linux-gnueabihf/6.3.0/../../../../include/c++/6.3.0/bits/basic_string.h:811:16
	ldr	r6, [r11, #-56]
.Ltmp137:
	@DEBUG_VALUE: _M_construct<char *>:__dnew <- %R6
	@DEBUG_VALUE: _S_copy:__n <- %R6
	.loc	8 243 14                @ /usr/bin/../lib/gcc/arm-linux-gnueabihf/6.3.0/../../../../include/c++/6.3.0/bits/char_traits.h:243:14
	strb	r2, [r11, #-67]
.Ltmp138:
	.loc	35 211 42               @ /usr/bin/../lib/gcc/arm-linux-gnueabihf/6.3.0/../../../../include/c++/6.3.0/bits/basic_string.tcc:211:42
	cmp	r5, #0
.Ltmp139:
	@DEBUG_VALUE: _S_copy:__s <- %R1
	.loc	5 110 25                @ /usr/bin/../lib/gcc/arm-linux-gnueabihf/6.3.0/../../../../include/c++/6.3.0/bits/basic_string.h:110:25
	str	r7, [sp, #12]
	bne	.LBB0_11
.Ltmp140:
@ BB#10:                                @ %._crit_edge.i.i.i.i55
	@DEBUG_VALUE: _S_copy:__s <- %R1
	@DEBUG_VALUE: _S_copy:__n <- %R6
	@DEBUG_VALUE: _M_construct<char *>:__dnew <- %R6
	@DEBUG_VALUE: assign:__c2 <- %R5
	@DEBUG_VALUE: _S_copy:__s <- %R5
	@DEBUG_VALUE: _S_copy_chars:__k1 <- %R5
	@DEBUG_VALUE: _M_construct<char *>:__beg <- %R5
	@DEBUG_VALUE: _M_construct_aux<char *>:__beg <- %R5
	@DEBUG_VALUE: _M_construct<char *>:__beg <- %R5
	@DEBUG_VALUE: basic_string:this <- %R0
	@DEBUG_VALUE: _M_local_data:this <- %R0
	@DEBUG_VALUE: _M_construct<char *>:this <- %R0
	@DEBUG_VALUE: _M_construct_aux<char *>:this <- %R0
	@DEBUG_VALUE: _M_construct<char *>:this <- %R0
	@DEBUG_VALUE: _S_copy:__d <- [%SP+4]
	@DEBUG_VALUE: _S_copy_chars:__p <- [%SP+4]
	@DEBUG_VALUE: fftToFile:hrtfdata <- %R8
	cmp	r6, #0
	bne	.LBB0_76
.Ltmp141:
.LBB0_11:
	@DEBUG_VALUE: _S_copy:__s <- %R1
	@DEBUG_VALUE: _S_copy:__n <- %R6
	@DEBUG_VALUE: _M_construct<char *>:__dnew <- %R6
	@DEBUG_VALUE: assign:__c2 <- %R5
	@DEBUG_VALUE: _S_copy:__s <- %R5
	@DEBUG_VALUE: _S_copy_chars:__k1 <- %R5
	@DEBUG_VALUE: _M_construct<char *>:__beg <- %R5
	@DEBUG_VALUE: _M_construct_aux<char *>:__beg <- %R5
	@DEBUG_VALUE: _M_construct<char *>:__beg <- %R5
	@DEBUG_VALUE: basic_string:this <- %R0
	@DEBUG_VALUE: _M_local_data:this <- %R0
	@DEBUG_VALUE: _M_construct<char *>:this <- %R0
	@DEBUG_VALUE: _M_construct_aux<char *>:this <- %R0
	@DEBUG_VALUE: _M_construct<char *>:this <- %R0
	@DEBUG_VALUE: _S_copy:__d <- [%SP+4]
	@DEBUG_VALUE: _S_copy_chars:__p <- [%SP+4]
	@DEBUG_VALUE: fftToFile:hrtfdata <- %R8
	.loc	35 215 12               @ /usr/bin/../lib/gcc/arm-linux-gnueabihf/6.3.0/../../../../include/c++/6.3.0/bits/basic_string.tcc:215:12
	str	r6, [r11, #-36]
	.loc	35 217 6                @ /usr/bin/../lib/gcc/arm-linux-gnueabihf/6.3.0/../../../../include/c++/6.3.0/bits/basic_string.tcc:217:6
	cmp	r6, #15
	bls	.LBB0_14
.Ltmp142:
@ BB#12:                                @ %.noexc6.i
	@DEBUG_VALUE: _S_copy:__s <- %R1
	@DEBUG_VALUE: _S_copy:__n <- %R6
	@DEBUG_VALUE: _M_construct<char *>:__dnew <- %R6
	@DEBUG_VALUE: assign:__c2 <- %R5
	@DEBUG_VALUE: _S_copy:__s <- %R5
	@DEBUG_VALUE: _S_copy_chars:__k1 <- %R5
	@DEBUG_VALUE: _M_construct<char *>:__beg <- %R5
	@DEBUG_VALUE: _M_construct_aux<char *>:__beg <- %R5
	@DEBUG_VALUE: _M_construct<char *>:__beg <- %R5
	@DEBUG_VALUE: basic_string:this <- %R0
	@DEBUG_VALUE: _M_local_data:this <- %R0
	@DEBUG_VALUE: _M_construct<char *>:this <- %R0
	@DEBUG_VALUE: _M_construct_aux<char *>:this <- %R0
	@DEBUG_VALUE: _M_construct<char *>:this <- %R0
	@DEBUG_VALUE: _S_copy:__d <- [%SP+4]
	@DEBUG_VALUE: _S_copy_chars:__p <- [%SP+4]
	@DEBUG_VALUE: fftToFile:hrtfdata <- %R8
	.loc	35 219 14               @ /usr/bin/../lib/gcc/arm-linux-gnueabihf/6.3.0/../../../../include/c++/6.3.0/bits/basic_string.tcc:219:14
.Ltmp4:
	add	r0, sp, #12
.Ltmp143:
	sub	r1, r11, #36
.Ltmp144:
	@DEBUG_VALUE: _M_construct<char *>:__dnew <- [%R1+0]
	mov	r2, #0
	bl	_ZNSt7__cxx1112basic_stringIcSt11char_traitsIcESaIcEE9_M_createERjj
.Ltmp145:
.Ltmp5:
.Ltmp146:
@ BB#13:                                @ %.noexc138
	@DEBUG_VALUE: _S_copy:__n <- %R6
	@DEBUG_VALUE: assign:__c2 <- %R5
	@DEBUG_VALUE: _S_copy:__s <- %R5
	@DEBUG_VALUE: _S_copy_chars:__k1 <- %R5
	@DEBUG_VALUE: _M_construct<char *>:__beg <- %R5
	@DEBUG_VALUE: _M_construct_aux<char *>:__beg <- %R5
	@DEBUG_VALUE: _M_construct<char *>:__beg <- %R5
	@DEBUG_VALUE: fftToFile:hrtfdata <- %R8
	@DEBUG_VALUE: _M_data:__p <- %R0
	.loc	35 220 18               @ /usr/bin/../lib/gcc/arm-linux-gnueabihf/6.3.0/../../../../include/c++/6.3.0/bits/basic_string.tcc:220:18
	ldr	r1, [r11, #-36]
.Ltmp147:
	@DEBUG_VALUE: _M_capacity:__capacity <- %R1
	@DEBUG_VALUE: _M_construct<char *>:__dnew <- %R1
	.loc	5 128 26                @ /usr/bin/../lib/gcc/arm-linux-gnueabihf/6.3.0/../../../../include/c++/6.3.0/bits/basic_string.h:128:26
	str	r0, [sp, #12]
.Ltmp148:
	.loc	5 160 31                @ /usr/bin/../lib/gcc/arm-linux-gnueabihf/6.3.0/../../../../include/c++/6.3.0/bits/basic_string.h:160:31
	str	r1, [sp, #20]
	b	.LBB0_15
.Ltmp149:
.LBB0_14:                               @ %._crit_edge.i.i.i.i135
	@DEBUG_VALUE: _S_copy:__s <- %R1
	@DEBUG_VALUE: _S_copy:__n <- %R6
	@DEBUG_VALUE: _M_construct<char *>:__dnew <- %R6
	@DEBUG_VALUE: assign:__c2 <- %R5
	@DEBUG_VALUE: _S_copy:__s <- %R5
	@DEBUG_VALUE: _S_copy_chars:__k1 <- %R5
	@DEBUG_VALUE: _M_construct<char *>:__beg <- %R5
	@DEBUG_VALUE: _M_construct_aux<char *>:__beg <- %R5
	@DEBUG_VALUE: _M_construct<char *>:__beg <- %R5
	@DEBUG_VALUE: basic_string:this <- %R0
	@DEBUG_VALUE: _M_local_data:this <- %R0
	@DEBUG_VALUE: _M_construct<char *>:this <- %R0
	@DEBUG_VALUE: _M_construct_aux<char *>:this <- %R0
	@DEBUG_VALUE: _M_construct<char *>:this <- %R0
	@DEBUG_VALUE: _S_copy:__d <- [%SP+4]
	@DEBUG_VALUE: _S_copy_chars:__p <- [%SP+4]
	@DEBUG_VALUE: fftToFile:hrtfdata <- %R8
	.loc	5 136 28                @ /usr/bin/../lib/gcc/arm-linux-gnueabihf/6.3.0/../../../../include/c++/6.3.0/bits/basic_string.h:136:28
	mov	r0, r7
.Ltmp150:
.LBB0_15:
	@DEBUG_VALUE: _S_copy:__n <- %R6
	@DEBUG_VALUE: assign:__c2 <- %R5
	@DEBUG_VALUE: _S_copy:__s <- %R5
	@DEBUG_VALUE: _S_copy_chars:__k1 <- %R5
	@DEBUG_VALUE: _M_construct<char *>:__beg <- %R5
	@DEBUG_VALUE: _M_construct_aux<char *>:__beg <- %R5
	@DEBUG_VALUE: _M_construct<char *>:__beg <- %R5
	@DEBUG_VALUE: fftToFile:hrtfdata <- %R8
	.loc	5 297 6                 @ /usr/bin/../lib/gcc/arm-linux-gnueabihf/6.3.0/../../../../include/c++/6.3.0/bits/basic_string.h:297:6
	cmp	r6, #0
	beq	.LBB0_19
.Ltmp151:
@ BB#16:
	@DEBUG_VALUE: _S_copy:__n <- %R6
	@DEBUG_VALUE: assign:__c2 <- %R5
	@DEBUG_VALUE: _S_copy:__s <- %R5
	@DEBUG_VALUE: _S_copy_chars:__k1 <- %R5
	@DEBUG_VALUE: _M_construct<char *>:__beg <- %R5
	@DEBUG_VALUE: _M_construct_aux<char *>:__beg <- %R5
	@DEBUG_VALUE: _M_construct<char *>:__beg <- %R5
	@DEBUG_VALUE: fftToFile:hrtfdata <- %R8
	cmp	r6, #1
	bne	.LBB0_18
.Ltmp152:
@ BB#17:
	@DEBUG_VALUE: _S_copy:__n <- %R6
	@DEBUG_VALUE: assign:__c2 <- %R5
	@DEBUG_VALUE: _S_copy:__s <- %R5
	@DEBUG_VALUE: _S_copy_chars:__k1 <- %R5
	@DEBUG_VALUE: _M_construct<char *>:__beg <- %R5
	@DEBUG_VALUE: _M_construct_aux<char *>:__beg <- %R5
	@DEBUG_VALUE: _M_construct<char *>:__beg <- %R5
	@DEBUG_VALUE: fftToFile:hrtfdata <- %R8
	.loc	8 243 16                @ /usr/bin/../lib/gcc/arm-linux-gnueabihf/6.3.0/../../../../include/c++/6.3.0/bits/char_traits.h:243:16
	ldrb	r1, [r5]
.Ltmp153:
	@DEBUG_VALUE: _S_copy_chars:__p <- %R0
	.loc	8 243 14 is_stmt 0      @ /usr/bin/../lib/gcc/arm-linux-gnueabihf/6.3.0/../../../../include/c++/6.3.0/bits/char_traits.h:243:14
	strb	r1, [r0]
	b	.LBB0_19
.Ltmp154:
.LBB0_18:
	@DEBUG_VALUE: _S_copy:__n <- %R6
	@DEBUG_VALUE: assign:__c2 <- %R5
	@DEBUG_VALUE: _S_copy:__s <- %R5
	@DEBUG_VALUE: _S_copy_chars:__k1 <- %R5
	@DEBUG_VALUE: _M_construct<char *>:__beg <- %R5
	@DEBUG_VALUE: _M_construct_aux<char *>:__beg <- %R5
	@DEBUG_VALUE: _M_construct<char *>:__beg <- %R5
	@DEBUG_VALUE: fftToFile:hrtfdata <- %R8
	.loc	8 290 33 is_stmt 1      @ /usr/bin/../lib/gcc/arm-linux-gnueabihf/6.3.0/../../../../include/c++/6.3.0/bits/char_traits.h:290:33
	mov	r1, r5
	mov	r2, r6
	bl	memcpy
.Ltmp155:
.LBB0_19:                               @ %.noexc60
	@DEBUG_VALUE: _S_copy:__n <- %R6
	@DEBUG_VALUE: assign:__c2 <- %R5
	@DEBUG_VALUE: _S_copy:__s <- %R5
	@DEBUG_VALUE: _S_copy_chars:__k1 <- %R5
	@DEBUG_VALUE: _M_construct<char *>:__beg <- %R5
	@DEBUG_VALUE: _M_construct_aux<char *>:__beg <- %R5
	@DEBUG_VALUE: _M_construct<char *>:__beg <- %R5
	@DEBUG_VALUE: fftToFile:hrtfdata <- %R8
	.loc	35 232 16               @ /usr/bin/../lib/gcc/arm-linux-gnueabihf/6.3.0/../../../../include/c++/6.3.0/bits/basic_string.tcc:232:16
	ldr	r0, [r11, #-36]
.Ltmp156:
	@DEBUG_VALUE: _M_set_length:__n <- %R0
	@DEBUG_VALUE: _M_length:__length <- %R0
	@DEBUG_VALUE: _M_construct<char *>:__dnew <- %R0
	.loc	8 243 14                @ /usr/bin/../lib/gcc/arm-linux-gnueabihf/6.3.0/../../../../include/c++/6.3.0/bits/char_traits.h:243:14
	mov	r2, #0
.Ltmp157:
	.loc	5 132 26                @ /usr/bin/../lib/gcc/arm-linux-gnueabihf/6.3.0/../../../../include/c++/6.3.0/bits/basic_string.h:132:26
	str	r0, [sp, #16]
.Ltmp158:
	.loc	5 136 28                @ /usr/bin/../lib/gcc/arm-linux-gnueabihf/6.3.0/../../../../include/c++/6.3.0/bits/basic_string.h:136:28
	ldr	r1, [sp, #12]
.Ltmp159:
	.loc	8 243 14                @ /usr/bin/../lib/gcc/arm-linux-gnueabihf/6.3.0/../../../../include/c++/6.3.0/bits/char_traits.h:243:14
	strb	r2, [r1, r0]
.Ltmp160:
	.loc	5 136 28                @ /usr/bin/../lib/gcc/arm-linux-gnueabihf/6.3.0/../../../../include/c++/6.3.0/bits/basic_string.h:136:28
	ldr	r1, [r11, #-88]
.Ltmp161:
	.loc	5 805 16                @ /usr/bin/../lib/gcc/arm-linux-gnueabihf/6.3.0/../../../../include/c++/6.3.0/bits/basic_string.h:805:16
	ldr	r2, [r11, #-84]
.Ltmp162:
	.loc	5 1084 16 discriminator 2 @ /usr/bin/../lib/gcc/arm-linux-gnueabihf/6.3.0/../../../../include/c++/6.3.0/bits/basic_string.h:1084:16
.Ltmp7:
	add	r0, sp, #12
.Ltmp163:
	@DEBUG_VALUE: append:this <- %R0
	@DEBUG_VALUE: _M_data:this <- %R0
	@DEBUG_VALUE: _M_length:this <- %R0
	bl	_ZNSt7__cxx1112basic_stringIcSt11char_traitsIcESaIcEE9_M_appendEPKcj
.Ltmp164:
.Ltmp8:
.Ltmp165:
@ BB#20:                                @ %_ZStplIcSt11char_traitsIcESaIcEENSt7__cxx1112basic_stringIT_T0_T1_EERKS8_SA_.exit
	@DEBUG_VALUE: _S_copy:__n <- %R6
	@DEBUG_VALUE: assign:__c2 <- %R5
	@DEBUG_VALUE: _S_copy:__s <- %R5
	@DEBUG_VALUE: _S_copy_chars:__k1 <- %R5
	@DEBUG_VALUE: _M_construct<char *>:__beg <- %R5
	@DEBUG_VALUE: _M_construct_aux<char *>:__beg <- %R5
	@DEBUG_VALUE: _M_construct<char *>:__beg <- %R5
	@DEBUG_VALUE: fftToFile:hrtfdata <- %R8
	.loc	34 15 19 discriminator 2 @ /root/Bela/projects/SOFAlizer-for-Bela/debug_file_print.cpp:15:19
.Ltmp10:
	add	r0, sp, #36
	add	r1, sp, #12
.Ltmp166:
	@DEBUG_VALUE: _M_data:this <- %R1
	mov	r2, #48
	bl	_ZNSt14basic_ofstreamIcSt11char_traitsIcEEC1ERKNSt7__cxx1112basic_stringIcS1_SaIcEEESt13_Ios_Openmode
.Ltmp167:
.Ltmp11:
.Ltmp168:
@ BB#21:
	@DEBUG_VALUE: _S_copy:__n <- %R6
	@DEBUG_VALUE: assign:__c2 <- %R5
	@DEBUG_VALUE: _S_copy:__s <- %R5
	@DEBUG_VALUE: _S_copy_chars:__k1 <- %R5
	@DEBUG_VALUE: _M_construct<char *>:__beg <- %R5
	@DEBUG_VALUE: _M_construct_aux<char *>:__beg <- %R5
	@DEBUG_VALUE: _M_construct<char *>:__beg <- %R5
	@DEBUG_VALUE: fftToFile:hrtfdata <- %R8
	.loc	5 136 28                @ /usr/bin/../lib/gcc/arm-linux-gnueabihf/6.3.0/../../../../include/c++/6.3.0/bits/basic_string.h:136:28
	ldr	r0, [sp, #12]
.Ltmp169:
	@DEBUG_VALUE: deallocate:__p <- %R0
	@DEBUG_VALUE: deallocate:__p <- %R0
	.loc	5 180 6                 @ /usr/bin/../lib/gcc/arm-linux-gnueabihf/6.3.0/../../../../include/c++/6.3.0/bits/basic_string.h:180:6
	cmp	r0, r7
	beq	.LBB0_23
.Ltmp170:
@ BB#22:
	@DEBUG_VALUE: deallocate:__p <- %R0
	@DEBUG_VALUE: deallocate:__p <- %R0
	@DEBUG_VALUE: _S_copy:__n <- %R6
	@DEBUG_VALUE: assign:__c2 <- %R5
	@DEBUG_VALUE: _S_copy:__s <- %R5
	@DEBUG_VALUE: _S_copy_chars:__k1 <- %R5
	@DEBUG_VALUE: _M_construct<char *>:__beg <- %R5
	@DEBUG_VALUE: _M_construct_aux<char *>:__beg <- %R5
	@DEBUG_VALUE: _M_construct<char *>:__beg <- %R5
	@DEBUG_VALUE: fftToFile:hrtfdata <- %R8
	.file	36 "/usr/bin/../lib/gcc/arm-linux-gnueabihf/6.3.0/../../../../include/c++/6.3.0/ext" "new_allocator.h"
	.loc	36 110 9                @ /usr/bin/../lib/gcc/arm-linux-gnueabihf/6.3.0/../../../../include/c++/6.3.0/ext/new_allocator.h:110:9
	bl	_ZdlPv
.Ltmp171:
.LBB0_23:                               @ %_ZNSt7__cxx1112basic_stringIcSt11char_traitsIcESaIcEED2Ev.exit61
	@DEBUG_VALUE: _S_copy:__n <- %R6
	@DEBUG_VALUE: assign:__c2 <- %R5
	@DEBUG_VALUE: _S_copy:__s <- %R5
	@DEBUG_VALUE: _S_copy_chars:__k1 <- %R5
	@DEBUG_VALUE: _M_construct<char *>:__beg <- %R5
	@DEBUG_VALUE: _M_construct_aux<char *>:__beg <- %R5
	@DEBUG_VALUE: _M_construct<char *>:__beg <- %R5
	@DEBUG_VALUE: fftToFile:hrtfdata <- %R8
	.file	37 "/usr/bin/../lib/gcc/arm-linux-gnueabihf/6.3.0/../../../../include/c++/6.3.0" "ostream"
	.loc	37 561 2                @ /usr/bin/../lib/gcc/arm-linux-gnueabihf/6.3.0/../../../../include/c++/6.3.0/ostream:561:2
.Ltmp13:
	movw	r1, :lower16:.L.str.1
	add	r0, sp, #36
.Ltmp172:
	@DEBUG_VALUE: operator<<<std::char_traits<char> >:__out <- %R0
	@DEBUG_VALUE: operator<<<std::char_traits<char> >:__out <- %R0
	@DEBUG_VALUE: operator<<:this <- %R0
	@DEBUG_VALUE: operator<<<std::char_traits<char> >:__out <- %R0
	@DEBUG_VALUE: operator<<:this <- %R0
	@DEBUG_VALUE: operator<<<std::char_traits<char> >:__out <- %R0
	@DEBUG_VALUE: operator<<:this <- %R0
	@DEBUG_VALUE: operator<<<std::char_traits<char> >:__out <- %R0
	@DEBUG_VALUE: operator<<:this <- %R0
	@DEBUG_VALUE: operator<<<std::char_traits<char> >:__out <- %R0
	@DEBUG_VALUE: operator<<:this <- %R0
	movt	r1, :upper16:.L.str.1
.Ltmp173:
	@DEBUG_VALUE: length:__s <- %R1
	mov	r2, #9
	bl	_ZSt16__ostream_insertIcSt11char_traitsIcEERSt13basic_ostreamIT_T0_ES6_PKS3_i
.Ltmp174:
.Ltmp14:
.Ltmp175:
@ BB#24:                                @ %_ZStlsISt11char_traitsIcEERSt13basic_ostreamIcT_ES5_PKc.exit
	@DEBUG_VALUE: _S_copy:__n <- %R6
	@DEBUG_VALUE: assign:__c2 <- %R5
	@DEBUG_VALUE: _S_copy:__s <- %R5
	@DEBUG_VALUE: _S_copy_chars:__k1 <- %R5
	@DEBUG_VALUE: _M_construct<char *>:__beg <- %R5
	@DEBUG_VALUE: _M_construct_aux<char *>:__beg <- %R5
	@DEBUG_VALUE: _M_construct<char *>:__beg <- %R5
	@DEBUG_VALUE: fftToFile:hrtfdata <- %R8
	.loc	37 561 2 is_stmt 0      @ /usr/bin/../lib/gcc/arm-linux-gnueabihf/6.3.0/../../../../include/c++/6.3.0/ostream:561:2
.Ltmp15:
	movw	r1, :lower16:.L.str.2
	add	r0, sp, #36
	movt	r1, :upper16:.L.str.2
.Ltmp176:
	@DEBUG_VALUE: length:__s <- %R1
	mov	r2, #12
	bl	_ZSt16__ostream_insertIcSt11char_traitsIcEERSt13basic_ostreamIT_T0_ES6_PKS3_i
.Ltmp177:
.Ltmp16:
.Ltmp178:
@ BB#25:                                @ %_ZStlsISt11char_traitsIcEERSt13basic_ostreamIcT_ES5_PKc.exit64
	@DEBUG_VALUE: _S_copy:__n <- %R6
	@DEBUG_VALUE: assign:__c2 <- %R5
	@DEBUG_VALUE: _S_copy:__s <- %R5
	@DEBUG_VALUE: _S_copy_chars:__k1 <- %R5
	@DEBUG_VALUE: _M_construct<char *>:__beg <- %R5
	@DEBUG_VALUE: _M_construct_aux<char *>:__beg <- %R5
	@DEBUG_VALUE: _M_construct<char *>:__beg <- %R5
	@DEBUG_VALUE: fftToFile:hrtfdata <- %R8
	.loc	34 18 44 is_stmt 1 discriminator 1 @ /root/Bela/projects/SOFAlizer-for-Bela/debug_file_print.cpp:18:44
	ldr	r0, [r8, #100]
	.loc	34 18 52 is_stmt 0 discriminator 1 @ /root/Bela/projects/SOFAlizer-for-Bela/debug_file_print.cpp:18:52
	ldr	r1, [r0, #20]
.Ltmp179:
	@DEBUG_VALUE: operator<<:__n <- %R1
	.loc	37 196 9 is_stmt 1      @ /usr/bin/../lib/gcc/arm-linux-gnueabihf/6.3.0/../../../../include/c++/6.3.0/ostream:196:9
.Ltmp17:
	add	r0, sp, #36
	bl	_ZNSo9_M_insertImEERSoT_
.Ltmp180:
	mov	r5, r0
.Ltmp181:
.Ltmp18:
.Ltmp182:
@ BB#26:                                @ %_ZNSolsEj.exit
	@DEBUG_VALUE: _S_copy:__n <- %R6
	@DEBUG_VALUE: fftToFile:hrtfdata <- %R8
	.loc	37 561 2                @ /usr/bin/../lib/gcc/arm-linux-gnueabihf/6.3.0/../../../../include/c++/6.3.0/ostream:561:2
.Ltmp19:
	movw	r1, :lower16:.L.str.3
	mov	r0, r5
	movt	r1, :upper16:.L.str.3
.Ltmp183:
	@DEBUG_VALUE: operator<<<std::char_traits<char> >:__out <- %R5
	@DEBUG_VALUE: length:__s <- %R1
	mov	r2, #3
	bl	_ZSt16__ostream_insertIcSt11char_traitsIcEERSt13basic_ostreamIT_T0_ES6_PKS3_i
.Ltmp184:
.Ltmp20:
.Ltmp185:
@ BB#27:                                @ %_ZStlsISt11char_traitsIcEERSt13basic_ostreamIcT_ES5_PKc.exit67
	@DEBUG_VALUE: operator<<<std::char_traits<char> >:__out <- %R5
	@DEBUG_VALUE: _S_copy:__n <- %R6
	@DEBUG_VALUE: fftToFile:hrtfdata <- %R8
	.loc	34 18 76 discriminator 3 @ /root/Bela/projects/SOFAlizer-for-Bela/debug_file_print.cpp:18:76
	ldr	r0, [r8, #100]
.Ltmp186:
	@DEBUG_VALUE: operator<<:__n <- %R1
	.loc	34 18 84 is_stmt 0 discriminator 3 @ /root/Bela/projects/SOFAlizer-for-Bela/debug_file_print.cpp:18:84
	ldr	r1, [r0, #8]
.Ltmp187:
	.loc	37 196 9 is_stmt 1      @ /usr/bin/../lib/gcc/arm-linux-gnueabihf/6.3.0/../../../../include/c++/6.3.0/ostream:196:9
.Ltmp21:
.Ltmp188:
	@DEBUG_VALUE: operator<<:this <- %R5
	mov	r0, r5
	bl	_ZNSo9_M_insertImEERSoT_
	mov	r5, r0
.Ltmp189:
.Ltmp22:
.Ltmp190:
@ BB#28:                                @ %_ZNSolsEj.exit69
	@DEBUG_VALUE: _S_copy:__n <- %R6
	@DEBUG_VALUE: fftToFile:hrtfdata <- %R8
	.loc	37 561 2                @ /usr/bin/../lib/gcc/arm-linux-gnueabihf/6.3.0/../../../../include/c++/6.3.0/ostream:561:2
.Ltmp23:
	movw	r1, :lower16:.L.str.3
	mov	r0, r5
	movt	r1, :upper16:.L.str.3
.Ltmp191:
	@DEBUG_VALUE: operator<<<std::char_traits<char> >:__out <- %R5
	@DEBUG_VALUE: length:__s <- %R1
	mov	r2, #3
	bl	_ZSt16__ostream_insertIcSt11char_traitsIcEERSt13basic_ostreamIT_T0_ES6_PKS3_i
.Ltmp192:
.Ltmp24:
.Ltmp193:
@ BB#29:                                @ %_ZStlsISt11char_traitsIcEERSt13basic_ostreamIcT_ES5_PKc.exit71
	@DEBUG_VALUE: operator<<<std::char_traits<char> >:__out <- %R5
	@DEBUG_VALUE: _S_copy:__n <- %R6
	@DEBUG_VALUE: fftToFile:hrtfdata <- %R8
	.loc	34 18 108 discriminator 5 @ /root/Bela/projects/SOFAlizer-for-Bela/debug_file_print.cpp:18:108
	ldr	r0, [r8, #100]
.Ltmp194:
	@DEBUG_VALUE: operator<<:__n <- %R1
	.loc	34 18 116 is_stmt 0 discriminator 5 @ /root/Bela/projects/SOFAlizer-for-Bela/debug_file_print.cpp:18:116
	ldr	r1, [r0, #16]
.Ltmp195:
	.loc	37 196 9 is_stmt 1      @ /usr/bin/../lib/gcc/arm-linux-gnueabihf/6.3.0/../../../../include/c++/6.3.0/ostream:196:9
.Ltmp25:
.Ltmp196:
	@DEBUG_VALUE: operator<<:this <- %R5
	mov	r0, r5
	bl	_ZNSo9_M_insertImEERSoT_
.Ltmp26:
.Ltmp197:
@ BB#30:                                @ %_ZNSolsEj.exit73
	@DEBUG_VALUE: operator<<:this <- %R5
	@DEBUG_VALUE: operator<<<std::char_traits<char> >:__out <- %R5
	@DEBUG_VALUE: _S_copy:__n <- %R6
	@DEBUG_VALUE: fftToFile:hrtfdata <- %R8
	.loc	37 561 2                @ /usr/bin/../lib/gcc/arm-linux-gnueabihf/6.3.0/../../../../include/c++/6.3.0/ostream:561:2
.Ltmp27:
	movw	r1, :lower16:.L.str.4
	mov	r2, #1
	movt	r1, :upper16:.L.str.4
.Ltmp198:
	@DEBUG_VALUE: operator<<<std::char_traits<char> >:__out <- %R0
	@DEBUG_VALUE: length:__s <- %R1
	bl	_ZSt16__ostream_insertIcSt11char_traitsIcEERSt13basic_ostreamIT_T0_ES6_PKS3_i
.Ltmp199:
.Ltmp28:
.Ltmp200:
@ BB#31:                                @ %_ZStlsISt11char_traitsIcEERSt13basic_ostreamIcT_ES5_PKc.exit75
	@DEBUG_VALUE: operator<<:this <- %R5
	@DEBUG_VALUE: operator<<<std::char_traits<char> >:__out <- %R5
	@DEBUG_VALUE: _S_copy:__n <- %R6
	@DEBUG_VALUE: fftToFile:hrtfdata <- %R8
	.loc	37 561 2 is_stmt 0      @ /usr/bin/../lib/gcc/arm-linux-gnueabihf/6.3.0/../../../../include/c++/6.3.0/ostream:561:2
.Ltmp29:
	movw	r1, :lower16:.L.str.5
	add	r0, sp, #36
	movt	r1, :upper16:.L.str.5
.Ltmp201:
	@DEBUG_VALUE: length:__s <- %R1
	mov	r2, #21
	bl	_ZSt16__ostream_insertIcSt11char_traitsIcEERSt13basic_ostreamIT_T0_ES6_PKS3_i
.Ltmp202:
.Ltmp30:
.Ltmp203:
@ BB#32:                                @ %_ZStlsISt11char_traitsIcEERSt13basic_ostreamIcT_ES5_PKc.exit77
	@DEBUG_VALUE: operator<<:this <- %R5
	@DEBUG_VALUE: operator<<<std::char_traits<char> >:__out <- %R5
	@DEBUG_VALUE: _S_copy:__n <- %R6
	@DEBUG_VALUE: fftToFile:hrtfdata <- %R8
	.loc	10 656 66 is_stmt 1     @ /usr/bin/../lib/gcc/arm-linux-gnueabihf/6.3.0/../../../../include/c++/6.3.0/bits/stl_vector.h:656:66
	ldr	r0, [r8, #120]
	.loc	10 656 40 is_stmt 0     @ /usr/bin/../lib/gcc/arm-linux-gnueabihf/6.3.0/../../../../include/c++/6.3.0/bits/stl_vector.h:656:40
	ldr	r1, [r8, #124]
.Ltmp204:
	.loc	37 196 9 is_stmt 1      @ /usr/bin/../lib/gcc/arm-linux-gnueabihf/6.3.0/../../../../include/c++/6.3.0/ostream:196:9
.Ltmp31:
.Ltmp205:
	.loc	10 656 50               @ /usr/bin/../lib/gcc/arm-linux-gnueabihf/6.3.0/../../../../include/c++/6.3.0/bits/stl_vector.h:656:50
	sub	r0, r1, r0
	asr	r1, r0, #2
.Ltmp206:
	@DEBUG_VALUE: operator<<:__n <- %R1
	add	r0, sp, #36
.Ltmp207:
	.loc	37 196 9                @ /usr/bin/../lib/gcc/arm-linux-gnueabihf/6.3.0/../../../../include/c++/6.3.0/ostream:196:9
	bl	_ZNSo9_M_insertImEERSoT_
.Ltmp208:
	mov	r5, r0
.Ltmp209:
.Ltmp32:
.Ltmp210:
@ BB#33:                                @ %_ZNSolsEj.exit79
	@DEBUG_VALUE: _S_copy:__n <- %R6
	@DEBUG_VALUE: fftToFile:hrtfdata <- %R8
	.loc	37 561 2                @ /usr/bin/../lib/gcc/arm-linux-gnueabihf/6.3.0/../../../../include/c++/6.3.0/ostream:561:2
.Ltmp33:
	movw	r1, :lower16:.L.str.6
	mov	r0, r5
	movt	r1, :upper16:.L.str.6
.Ltmp211:
	@DEBUG_VALUE: operator<<<std::char_traits<char> >:__out <- %R5
	@DEBUG_VALUE: length:__s <- %R1
	mov	r2, #7
	bl	_ZSt16__ostream_insertIcSt11char_traitsIcEERSt13basic_ostreamIT_T0_ES6_PKS3_i
.Ltmp212:
.Ltmp34:
.Ltmp213:
@ BB#34:                                @ %_ZStlsISt11char_traitsIcEERSt13basic_ostreamIcT_ES5_PKc.exit81
	@DEBUG_VALUE: operator<<<std::char_traits<char> >:__out <- %R5
	@DEBUG_VALUE: _S_copy:__n <- %R6
	@DEBUG_VALUE: fftToFile:hrtfdata <- %R8
	@DEBUG_VALUE: operator[]:__n <- 0
	.loc	10 796 32               @ /usr/bin/../lib/gcc/arm-linux-gnueabihf/6.3.0/../../../../include/c++/6.3.0/bits/stl_vector.h:796:32
	ldr	r0, [r8, #120]
.Ltmp214:
	.loc	34 19 86 discriminator 3 @ /root/Bela/projects/SOFAlizer-for-Bela/debug_file_print.cpp:19:86
	ldr	r0, [r0]
.Ltmp215:
	@DEBUG_VALUE: operator<<:__n <- %R1
	@DEBUG_VALUE: get_length:this <- %R0
	.file	38 "/root/Bela/projects/SOFAlizer-for-Bela" "fft.h"
	.loc	38 66 36                @ /root/Bela/projects/SOFAlizer-for-Bela/fft.h:66:36
	ldr	r1, [r0, #12]
.Ltmp216:
	.loc	37 196 9                @ /usr/bin/../lib/gcc/arm-linux-gnueabihf/6.3.0/../../../../include/c++/6.3.0/ostream:196:9
.Ltmp35:
.Ltmp217:
	@DEBUG_VALUE: operator<<:this <- %R5
	mov	r0, r5
.Ltmp218:
	bl	_ZNSo9_M_insertImEERSoT_
.Ltmp36:
.Ltmp219:
@ BB#35:                                @ %_ZNSolsEj.exit83
	@DEBUG_VALUE: operator<<:this <- %R5
	@DEBUG_VALUE: operator<<<std::char_traits<char> >:__out <- %R5
	@DEBUG_VALUE: _S_copy:__n <- %R6
	@DEBUG_VALUE: fftToFile:hrtfdata <- %R8
	.loc	37 561 2                @ /usr/bin/../lib/gcc/arm-linux-gnueabihf/6.3.0/../../../../include/c++/6.3.0/ostream:561:2
.Ltmp37:
	movw	r1, :lower16:.L.str.4
	mov	r2, #1
	movt	r1, :upper16:.L.str.4
.Ltmp220:
	@DEBUG_VALUE: operator<<<std::char_traits<char> >:__out <- %R0
	@DEBUG_VALUE: length:__s <- %R1
	bl	_ZSt16__ostream_insertIcSt11char_traitsIcEERSt13basic_ostreamIT_T0_ES6_PKS3_i
.Ltmp221:
.Ltmp38:
.Ltmp222:
@ BB#36:                                @ %_ZStlsISt11char_traitsIcEERSt13basic_ostreamIcT_ES5_PKc.exit85
	@DEBUG_VALUE: operator<<:this <- %R5
	@DEBUG_VALUE: operator<<<std::char_traits<char> >:__out <- %R5
	@DEBUG_VALUE: _S_copy:__n <- %R6
	@DEBUG_VALUE: fftToFile:hrtfdata <- %R8
	.loc	37 561 2 is_stmt 0      @ /usr/bin/../lib/gcc/arm-linux-gnueabihf/6.3.0/../../../../include/c++/6.3.0/ostream:561:2
.Ltmp39:
	movw	r1, :lower16:.L.str.7
	add	r0, sp, #36
	movt	r1, :upper16:.L.str.7
.Ltmp223:
	@DEBUG_VALUE: length:__s <- %R1
	mov	r2, #11
	bl	_ZSt16__ostream_insertIcSt11char_traitsIcEERSt13basic_ostreamIT_T0_ES6_PKS3_i
.Ltmp224:
.Ltmp40:
.Ltmp225:
@ BB#37:                                @ %_ZStlsISt11char_traitsIcEERSt13basic_ostreamIcT_ES5_PKc.exit87
	@DEBUG_VALUE: operator<<:this <- %R5
	@DEBUG_VALUE: operator<<<std::char_traits<char> >:__out <- %R5
	@DEBUG_VALUE: _S_copy:__n <- %R6
	@DEBUG_VALUE: fftToFile:hrtfdata <- %R8
	.loc	34 20 43 is_stmt 1 discriminator 1 @ /root/Bela/projects/SOFAlizer-for-Bela/debug_file_print.cpp:20:43
	ldr	r0, [r8, #100]
	.loc	34 20 58 is_stmt 0 discriminator 1 @ /root/Bela/projects/SOFAlizer-for-Bela/debug_file_print.cpp:20:58
	ldr	r1, [r0, #100]
.Ltmp226:
	@DEBUG_VALUE: operator<<:__n <- %R1
	.loc	37 196 9 is_stmt 1      @ /usr/bin/../lib/gcc/arm-linux-gnueabihf/6.3.0/../../../../include/c++/6.3.0/ostream:196:9
.Ltmp41:
	add	r0, sp, #36
	bl	_ZNSo9_M_insertImEERSoT_
.Ltmp227:
.Ltmp42:
.Ltmp228:
@ BB#38:                                @ %_ZNSolsEj.exit89
	@DEBUG_VALUE: operator<<:this <- %R5
	@DEBUG_VALUE: operator<<<std::char_traits<char> >:__out <- %R5
	@DEBUG_VALUE: _S_copy:__n <- %R6
	@DEBUG_VALUE: fftToFile:hrtfdata <- %R8
	.loc	37 561 2                @ /usr/bin/../lib/gcc/arm-linux-gnueabihf/6.3.0/../../../../include/c++/6.3.0/ostream:561:2
.Ltmp43:
	movw	r1, :lower16:.L.str.4
	mov	r2, #1
	movt	r1, :upper16:.L.str.4
.Ltmp229:
	@DEBUG_VALUE: operator<<<std::char_traits<char> >:__out <- %R0
	@DEBUG_VALUE: length:__s <- %R1
	bl	_ZSt16__ostream_insertIcSt11char_traitsIcEERSt13basic_ostreamIT_T0_ES6_PKS3_i
.Ltmp230:
.Ltmp44:
.Ltmp231:
@ BB#39:                                @ %_ZStlsISt11char_traitsIcEERSt13basic_ostreamIcT_ES5_PKc.exit91.preheader
	@DEBUG_VALUE: operator<<:this <- %R5
	@DEBUG_VALUE: operator<<<std::char_traits<char> >:__out <- %R5
	@DEBUG_VALUE: _S_copy:__n <- %R6
	@DEBUG_VALUE: fftToFile:hrtfdata <- %R8
	.loc	34 23 44 discriminator 1 @ /root/Bela/projects/SOFAlizer-for-Bela/debug_file_print.cpp:23:44
	ldr	r0, [r8, #100]
	.loc	34 23 52 is_stmt 0 discriminator 1 @ /root/Bela/projects/SOFAlizer-for-Bela/debug_file_print.cpp:23:52
	ldr	r0, [r0, #20]
	.loc	34 23 5 discriminator 1 @ /root/Bela/projects/SOFAlizer-for-Bela/debug_file_print.cpp:23:5
	cmp	r0, #0
	beq	.LBB0_66
.Ltmp232:
@ BB#40:                                @ %.preheader140.lr.ph
	@DEBUG_VALUE: operator<<:this <- %R5
	@DEBUG_VALUE: operator<<<std::char_traits<char> >:__out <- %R5
	@DEBUG_VALUE: _S_copy:__n <- %R6
	@DEBUG_VALUE: fftToFile:hrtfdata <- %R8
	.loc	37 561 2 is_stmt 1      @ /usr/bin/../lib/gcc/arm-linux-gnueabihf/6.3.0/../../../../include/c++/6.3.0/ostream:561:2
	movw	r9, :lower16:.L.str.13
	mov	r6, #0
.Ltmp233:
	movt	r9, :upper16:.L.str.13
.Ltmp234:
.LBB0_41:                               @ %.preheader140
                                        @ =>This Loop Header: Depth=1
                                        @     Child Loop BB0_43 Depth 2
                                        @     Child Loop BB0_55 Depth 2
	@DEBUG_VALUE: operator[]:__n <- %R6
	.loc	10 796 32               @ /usr/bin/../lib/gcc/arm-linux-gnueabihf/6.3.0/../../../../include/c++/6.3.0/bits/stl_vector.h:796:32
	ldr	r0, [r8, #120]
	mov	r4, r9
.Ltmp235:
	.loc	34 33 38 discriminator 1 @ /root/Bela/projects/SOFAlizer-for-Bela/debug_file_print.cpp:33:38
	ldr	r0, [r0, r6, lsl #2]
.Ltmp236:
	@DEBUG_VALUE: get_length:this <- %R0
	.loc	38 66 36                @ /root/Bela/projects/SOFAlizer-for-Bela/fft.h:66:36
	ldr	r0, [r0, #12]
.Ltmp237:
	.loc	34 33 9 discriminator 2 @ /root/Bela/projects/SOFAlizer-for-Bela/debug_file_print.cpp:33:9
	cmp	r0, #0
	beq	.LBB0_53
.Ltmp238:
@ BB#42:                                @ %.lr.ph.preheader
                                        @   in Loop: Header=BB0_41 Depth=1
	@DEBUG_VALUE: operator[]:__n <- %R6
	mov	r9, #0
	mov	r10, #4
.Ltmp239:
.LBB0_43:                               @ %.lr.ph
                                        @   Parent Loop BB0_41 Depth=1
                                        @ =>  This Inner Loop Header: Depth=2
	.loc	37 561 2                @ /usr/bin/../lib/gcc/arm-linux-gnueabihf/6.3.0/../../../../include/c++/6.3.0/ostream:561:2
.Ltmp45:
.Ltmp240:
	@DEBUG_VALUE: length:__s <- undef
	.loc	37 561 2 is_stmt 0      @ /usr/bin/../lib/gcc/arm-linux-gnueabihf/6.3.0/../../../../include/c++/6.3.0/ostream:561:2
	movw	r1, :lower16:.L.str.8
	add	r0, sp, #36
	movt	r1, :upper16:.L.str.8
.Ltmp241:
	.loc	37 561 2                @ /usr/bin/../lib/gcc/arm-linux-gnueabihf/6.3.0/../../../../include/c++/6.3.0/ostream:561:2
	mov	r2, #1
	bl	_ZSt16__ostream_insertIcSt11char_traitsIcEERSt13basic_ostreamIT_T0_ES6_PKS3_i
.Ltmp46:
.Ltmp242:
@ BB#44:                                @ %_ZStlsISt11char_traitsIcEERSt13basic_ostreamIcT_ES5_PKc.exit96
                                        @   in Loop: Header=BB0_43 Depth=2
	.loc	37 196 9 is_stmt 1      @ /usr/bin/../lib/gcc/arm-linux-gnueabihf/6.3.0/../../../../include/c++/6.3.0/ostream:196:9
.Ltmp47:
	add	r0, sp, #36
	mov	r1, r6
	bl	_ZNSo9_M_insertImEERSoT_
	mov	r5, r0
.Ltmp48:
.Ltmp243:
@ BB#45:                                @ %_ZNSolsEj.exit98
                                        @   in Loop: Header=BB0_43 Depth=2
	.loc	37 561 2                @ /usr/bin/../lib/gcc/arm-linux-gnueabihf/6.3.0/../../../../include/c++/6.3.0/ostream:561:2
.Ltmp49:
.Ltmp244:
	@DEBUG_VALUE: operator<<<std::char_traits<char> >:__out <- %R5
	@DEBUG_VALUE: length:__s <- undef
	.loc	37 561 2 is_stmt 0      @ /usr/bin/../lib/gcc/arm-linux-gnueabihf/6.3.0/../../../../include/c++/6.3.0/ostream:561:2
	movw	r1, :lower16:.L.str.9
.Ltmp245:
	.loc	37 561 2                @ /usr/bin/../lib/gcc/arm-linux-gnueabihf/6.3.0/../../../../include/c++/6.3.0/ostream:561:2
	mov	r0, r5
.Ltmp246:
	.loc	37 561 2                @ /usr/bin/../lib/gcc/arm-linux-gnueabihf/6.3.0/../../../../include/c++/6.3.0/ostream:561:2
	movt	r1, :upper16:.L.str.9
.Ltmp247:
	.loc	37 561 2                @ /usr/bin/../lib/gcc/arm-linux-gnueabihf/6.3.0/../../../../include/c++/6.3.0/ostream:561:2
	mov	r2, #2
	bl	_ZSt16__ostream_insertIcSt11char_traitsIcEERSt13basic_ostreamIT_T0_ES6_PKS3_i
.Ltmp50:
.Ltmp248:
@ BB#46:                                @ %_ZStlsISt11char_traitsIcEERSt13basic_ostreamIcT_ES5_PKc.exit100
                                        @   in Loop: Header=BB0_43 Depth=2
	@DEBUG_VALUE: operator<<<std::char_traits<char> >:__out <- %R5
	.loc	37 196 9 is_stmt 1      @ /usr/bin/../lib/gcc/arm-linux-gnueabihf/6.3.0/../../../../include/c++/6.3.0/ostream:196:9
.Ltmp51:
.Ltmp249:
	@DEBUG_VALUE: operator<<:__n <- %R9
	@DEBUG_VALUE: operator<<:this <- %R5
	mov	r0, r5
	mov	r1, r9
	bl	_ZNSo9_M_insertImEERSoT_
	mov	r7, r0
.Ltmp52:
.Ltmp250:
@ BB#47:                                @ %_ZNSolsEj.exit102
                                        @   in Loop: Header=BB0_43 Depth=2
	@DEBUG_VALUE: operator<<:this <- %R5
	@DEBUG_VALUE: operator<<:__n <- %R9
	@DEBUG_VALUE: operator<<<std::char_traits<char> >:__out <- %R5
	.loc	37 561 2                @ /usr/bin/../lib/gcc/arm-linux-gnueabihf/6.3.0/../../../../include/c++/6.3.0/ostream:561:2
.Ltmp53:
.Ltmp251:
	@DEBUG_VALUE: operator<<<std::char_traits<char> >:__out <- %R7
	@DEBUG_VALUE: length:__s <- undef
	movw	r1, :lower16:.L.str.10
	mov	r0, r7
	movt	r1, :upper16:.L.str.10
	mov	r2, #8
	bl	_ZSt16__ostream_insertIcSt11char_traitsIcEERSt13basic_ostreamIT_T0_ES6_PKS3_i
.Ltmp54:
.Ltmp252:
@ BB#48:                                @ %_ZStlsISt11char_traitsIcEERSt13basic_ostreamIcT_ES5_PKc.exit104
                                        @   in Loop: Header=BB0_43 Depth=2
	@DEBUG_VALUE: operator<<<std::char_traits<char> >:__out <- %R7
	@DEBUG_VALUE: operator<<:this <- %R5
	@DEBUG_VALUE: operator<<:__n <- %R9
	@DEBUG_VALUE: operator<<<std::char_traits<char> >:__out <- %R5
	.loc	10 796 32               @ /usr/bin/../lib/gcc/arm-linux-gnueabihf/6.3.0/../../../../include/c++/6.3.0/bits/stl_vector.h:796:32
	ldr	r0, [r8, #120]
.Ltmp253:
	.loc	34 34 63 discriminator 5 @ /root/Bela/projects/SOFAlizer-for-Bela/debug_file_print.cpp:34:63
	ldr	r0, [r0, r6, lsl #2]
.Ltmp254:
	@DEBUG_VALUE: fdr:this <- %R0
	.loc	38 50 38                @ /root/Bela/projects/SOFAlizer-for-Bela/fft.h:50:38
	ldr	r0, [r0, #4]
.Ltmp255:
	.loc	34 34 87 discriminator 6 @ /root/Bela/projects/SOFAlizer-for-Bela/debug_file_print.cpp:34:87
	add	r0, r0, r10
	vldr	s0, [r0, #-4]
.Ltmp256:
	@DEBUG_VALUE: operator<<:__f <- %S0
	.loc	37 228 39               @ /usr/bin/../lib/gcc/arm-linux-gnueabihf/6.3.0/../../../../include/c++/6.3.0/ostream:228:39
	vcvt.f64.f32	d0, s0
.Ltmp257:
	.loc	37 228 9 is_stmt 0      @ /usr/bin/../lib/gcc/arm-linux-gnueabihf/6.3.0/../../../../include/c++/6.3.0/ostream:228:9
.Ltmp55:
.Ltmp258:
	@DEBUG_VALUE: operator<<:this <- %R7
	mov	r0, r7
	bl	_ZNSo9_M_insertIdEERSoT_
	mov	r7, r0
.Ltmp259:
.Ltmp56:
.Ltmp260:
@ BB#49:                                @ %_ZNSolsEf.exit
                                        @   in Loop: Header=BB0_43 Depth=2
	@DEBUG_VALUE: operator<<:this <- %R5
	@DEBUG_VALUE: operator<<:__n <- %R9
	@DEBUG_VALUE: operator<<<std::char_traits<char> >:__out <- %R5
	.loc	37 561 2 is_stmt 1      @ /usr/bin/../lib/gcc/arm-linux-gnueabihf/6.3.0/../../../../include/c++/6.3.0/ostream:561:2
.Ltmp57:
.Ltmp261:
	@DEBUG_VALUE: operator<<<std::char_traits<char> >:__out <- %R7
	@DEBUG_VALUE: length:__s <- undef
	.loc	37 561 2 is_stmt 0      @ /usr/bin/../lib/gcc/arm-linux-gnueabihf/6.3.0/../../../../include/c++/6.3.0/ostream:561:2
	movw	r1, :lower16:.L.str.11
.Ltmp262:
	.loc	37 561 2                @ /usr/bin/../lib/gcc/arm-linux-gnueabihf/6.3.0/../../../../include/c++/6.3.0/ostream:561:2
	mov	r0, r7
.Ltmp263:
	.loc	37 561 2                @ /usr/bin/../lib/gcc/arm-linux-gnueabihf/6.3.0/../../../../include/c++/6.3.0/ostream:561:2
	movt	r1, :upper16:.L.str.11
.Ltmp264:
	.loc	37 561 2                @ /usr/bin/../lib/gcc/arm-linux-gnueabihf/6.3.0/../../../../include/c++/6.3.0/ostream:561:2
	mov	r2, #3
	bl	_ZSt16__ostream_insertIcSt11char_traitsIcEERSt13basic_ostreamIT_T0_ES6_PKS3_i
.Ltmp58:
.Ltmp265:
@ BB#50:                                @ %_ZStlsISt11char_traitsIcEERSt13basic_ostreamIcT_ES5_PKc.exit107
                                        @   in Loop: Header=BB0_43 Depth=2
	@DEBUG_VALUE: operator<<<std::char_traits<char> >:__out <- %R7
	@DEBUG_VALUE: operator<<:this <- %R5
	@DEBUG_VALUE: operator<<:__n <- %R9
	@DEBUG_VALUE: operator<<<std::char_traits<char> >:__out <- %R5
	.loc	10 796 32 is_stmt 1     @ /usr/bin/../lib/gcc/arm-linux-gnueabihf/6.3.0/../../../../include/c++/6.3.0/bits/stl_vector.h:796:32
	ldr	r0, [r8, #120]
.Ltmp266:
	.loc	34 35 64                @ /root/Bela/projects/SOFAlizer-for-Bela/debug_file_print.cpp:35:64
	ldr	r0, [r0, r6, lsl #2]
.Ltmp267:
	@DEBUG_VALUE: fdi:this <- %R0
	.loc	38 54 38                @ /root/Bela/projects/SOFAlizer-for-Bela/fft.h:54:38
	ldr	r0, [r0, #4]
.Ltmp268:
	.loc	34 35 88 discriminator 1 @ /root/Bela/projects/SOFAlizer-for-Bela/debug_file_print.cpp:35:88
	add	r0, r0, r10
	vldr	s0, [r0]
.Ltmp269:
	@DEBUG_VALUE: operator<<:__f <- %S0
	.loc	37 228 39               @ /usr/bin/../lib/gcc/arm-linux-gnueabihf/6.3.0/../../../../include/c++/6.3.0/ostream:228:39
	vcvt.f64.f32	d0, s0
.Ltmp270:
	.loc	37 228 9 is_stmt 0      @ /usr/bin/../lib/gcc/arm-linux-gnueabihf/6.3.0/../../../../include/c++/6.3.0/ostream:228:9
.Ltmp59:
.Ltmp271:
	@DEBUG_VALUE: operator<<:this <- %R7
	mov	r0, r7
	bl	_ZNSo9_M_insertIdEERSoT_
.Ltmp60:
.Ltmp272:
@ BB#51:                                @ %_ZNSolsEf.exit109
                                        @   in Loop: Header=BB0_43 Depth=2
	@DEBUG_VALUE: operator<<:this <- %R7
	@DEBUG_VALUE: operator<<<std::char_traits<char> >:__out <- %R7
	@DEBUG_VALUE: operator<<:this <- %R5
	@DEBUG_VALUE: operator<<:__n <- %R9
	@DEBUG_VALUE: operator<<<std::char_traits<char> >:__out <- %R5
	.loc	37 561 2 is_stmt 1      @ /usr/bin/../lib/gcc/arm-linux-gnueabihf/6.3.0/../../../../include/c++/6.3.0/ostream:561:2
.Ltmp61:
.Ltmp273:
	@DEBUG_VALUE: operator<<<std::char_traits<char> >:__out <- %R0
	@DEBUG_VALUE: length:__s <- undef
	.loc	37 561 2 is_stmt 0      @ /usr/bin/../lib/gcc/arm-linux-gnueabihf/6.3.0/../../../../include/c++/6.3.0/ostream:561:2
	movw	r1, :lower16:.L.str.12
.Ltmp274:
	.loc	37 561 2                @ /usr/bin/../lib/gcc/arm-linux-gnueabihf/6.3.0/../../../../include/c++/6.3.0/ostream:561:2
	mov	r2, #3
.Ltmp275:
	.loc	37 561 2                @ /usr/bin/../lib/gcc/arm-linux-gnueabihf/6.3.0/../../../../include/c++/6.3.0/ostream:561:2
	movt	r1, :upper16:.L.str.12
.Ltmp276:
	.loc	37 561 2                @ /usr/bin/../lib/gcc/arm-linux-gnueabihf/6.3.0/../../../../include/c++/6.3.0/ostream:561:2
	bl	_ZSt16__ostream_insertIcSt11char_traitsIcEERSt13basic_ostreamIT_T0_ES6_PKS3_i
.Ltmp277:
.Ltmp62:
.Ltmp278:
@ BB#52:                                @ %_ZStlsISt11char_traitsIcEERSt13basic_ostreamIcT_ES5_PKc.exit111
                                        @   in Loop: Header=BB0_43 Depth=2
	@DEBUG_VALUE: operator<<:this <- %R7
	@DEBUG_VALUE: operator<<<std::char_traits<char> >:__out <- %R7
	@DEBUG_VALUE: operator<<:this <- %R5
	@DEBUG_VALUE: operator<<:__n <- %R9
	@DEBUG_VALUE: operator<<<std::char_traits<char> >:__out <- %R5
	.loc	10 796 32 is_stmt 1     @ /usr/bin/../lib/gcc/arm-linux-gnueabihf/6.3.0/../../../../include/c++/6.3.0/bits/stl_vector.h:796:32
	ldr	r0, [r8, #120]
.Ltmp279:
	.loc	34 33 36 discriminator 2 @ /root/Bela/projects/SOFAlizer-for-Bela/debug_file_print.cpp:33:36
	add	r10, r10, #8
	.loc	34 33 77 is_stmt 0 discriminator 5 @ /root/Bela/projects/SOFAlizer-for-Bela/debug_file_print.cpp:33:77
	add	r9, r9, #1
.Ltmp280:
	@DEBUG_VALUE: n <- %R9
	.loc	34 33 38 discriminator 1 @ /root/Bela/projects/SOFAlizer-for-Bela/debug_file_print.cpp:33:38
	ldr	r0, [r0, r6, lsl #2]
.Ltmp281:
	@DEBUG_VALUE: get_length:this <- %R0
	.loc	38 66 36 is_stmt 1      @ /root/Bela/projects/SOFAlizer-for-Bela/fft.h:66:36
	ldr	r0, [r0, #12]
.Ltmp282:
	.loc	34 33 9 discriminator 2 @ /root/Bela/projects/SOFAlizer-for-Bela/debug_file_print.cpp:33:9
	cmp	r9, r0
	blo	.LBB0_43
.Ltmp283:
.LBB0_53:                               @ %.preheader
                                        @   in Loop: Header=BB0_41 Depth=1
	.loc	10 796 32               @ /usr/bin/../lib/gcc/arm-linux-gnueabihf/6.3.0/../../../../include/c++/6.3.0/bits/stl_vector.h:796:32
	ldr	r0, [r8, #132]
	mov	r9, r4
.Ltmp284:
	.loc	34 37 38 discriminator 1 @ /root/Bela/projects/SOFAlizer-for-Bela/debug_file_print.cpp:37:38
	ldr	r0, [r0, r6, lsl #2]
.Ltmp285:
	@DEBUG_VALUE: get_length:this <- %R0
	.loc	38 66 36                @ /root/Bela/projects/SOFAlizer-for-Bela/fft.h:66:36
	ldr	r0, [r0, #12]
.Ltmp286:
	.loc	34 37 9 discriminator 2 @ /root/Bela/projects/SOFAlizer-for-Bela/debug_file_print.cpp:37:9
	cmp	r0, #0
	beq	.LBB0_65
@ BB#54:                                @ %.lr.ph143.preheader
                                        @   in Loop: Header=BB0_41 Depth=1
	mov	r7, #0
	mov	r4, #4
.LBB0_55:                               @ %.lr.ph143
                                        @   Parent Loop BB0_41 Depth=1
                                        @ =>  This Inner Loop Header: Depth=2
.Ltmp287:
	.loc	37 561 2                @ /usr/bin/../lib/gcc/arm-linux-gnueabihf/6.3.0/../../../../include/c++/6.3.0/ostream:561:2
.Ltmp64:
.Ltmp288:
	@DEBUG_VALUE: length:__s <- undef
	movw	r1, :lower16:.L.str.8
	add	r0, sp, #36
	movt	r1, :upper16:.L.str.8
	mov	r2, #1
	bl	_ZSt16__ostream_insertIcSt11char_traitsIcEERSt13basic_ostreamIT_T0_ES6_PKS3_i
.Ltmp65:
.Ltmp289:
@ BB#56:                                @ %_ZStlsISt11char_traitsIcEERSt13basic_ostreamIcT_ES5_PKc.exit113
                                        @   in Loop: Header=BB0_55 Depth=2
	.loc	37 196 9                @ /usr/bin/../lib/gcc/arm-linux-gnueabihf/6.3.0/../../../../include/c++/6.3.0/ostream:196:9
.Ltmp66:
	add	r0, sp, #36
	mov	r1, r6
	bl	_ZNSo9_M_insertImEERSoT_
	mov	r5, r0
.Ltmp67:
.Ltmp290:
@ BB#57:                                @ %_ZNSolsEj.exit115
                                        @   in Loop: Header=BB0_55 Depth=2
	.loc	37 561 2                @ /usr/bin/../lib/gcc/arm-linux-gnueabihf/6.3.0/../../../../include/c++/6.3.0/ostream:561:2
.Ltmp68:
.Ltmp291:
	@DEBUG_VALUE: operator<<<std::char_traits<char> >:__out <- %R5
	@DEBUG_VALUE: length:__s <- undef
	movw	r1, :lower16:.L.str.9
	mov	r0, r5
	movt	r1, :upper16:.L.str.9
	mov	r2, #2
	bl	_ZSt16__ostream_insertIcSt11char_traitsIcEERSt13basic_ostreamIT_T0_ES6_PKS3_i
.Ltmp69:
.Ltmp292:
@ BB#58:                                @ %_ZStlsISt11char_traitsIcEERSt13basic_ostreamIcT_ES5_PKc.exit117
                                        @   in Loop: Header=BB0_55 Depth=2
	@DEBUG_VALUE: operator<<<std::char_traits<char> >:__out <- %R5
	.loc	37 196 9                @ /usr/bin/../lib/gcc/arm-linux-gnueabihf/6.3.0/../../../../include/c++/6.3.0/ostream:196:9
.Ltmp70:
.Ltmp293:
	@DEBUG_VALUE: operator<<:__n <- %R7
	@DEBUG_VALUE: operator<<:this <- %R5
	mov	r0, r5
	mov	r1, r7
	bl	_ZNSo9_M_insertImEERSoT_
	mov	r5, r0
.Ltmp294:
.Ltmp71:
.Ltmp295:
@ BB#59:                                @ %_ZNSolsEj.exit119
                                        @   in Loop: Header=BB0_55 Depth=2
	@DEBUG_VALUE: operator<<:__n <- %R7
	.loc	37 561 2                @ /usr/bin/../lib/gcc/arm-linux-gnueabihf/6.3.0/../../../../include/c++/6.3.0/ostream:561:2
.Ltmp72:
.Ltmp296:
	@DEBUG_VALUE: operator<<<std::char_traits<char> >:__out <- %R5
	@DEBUG_VALUE: length:__s <- %R9
	mov	r0, r5
	mov	r1, r9
	mov	r2, #9
	bl	_ZSt16__ostream_insertIcSt11char_traitsIcEERSt13basic_ostreamIT_T0_ES6_PKS3_i
.Ltmp73:
.Ltmp297:
@ BB#60:                                @ %_ZStlsISt11char_traitsIcEERSt13basic_ostreamIcT_ES5_PKc.exit121
                                        @   in Loop: Header=BB0_55 Depth=2
	@DEBUG_VALUE: length:__s <- %R9
	@DEBUG_VALUE: operator<<<std::char_traits<char> >:__out <- %R5
	@DEBUG_VALUE: operator<<:__n <- %R7
	.loc	10 796 32               @ /usr/bin/../lib/gcc/arm-linux-gnueabihf/6.3.0/../../../../include/c++/6.3.0/bits/stl_vector.h:796:32
	ldr	r0, [r8, #132]
.Ltmp298:
	.loc	34 38 64 discriminator 5 @ /root/Bela/projects/SOFAlizer-for-Bela/debug_file_print.cpp:38:64
	ldr	r0, [r0, r6, lsl #2]
.Ltmp299:
	@DEBUG_VALUE: fdr:this <- %R0
	.loc	38 50 38                @ /root/Bela/projects/SOFAlizer-for-Bela/fft.h:50:38
	ldr	r0, [r0, #4]
.Ltmp300:
	.loc	34 38 89 discriminator 6 @ /root/Bela/projects/SOFAlizer-for-Bela/debug_file_print.cpp:38:89
	add	r0, r0, r4
	vldr	s0, [r0, #-4]
.Ltmp301:
	@DEBUG_VALUE: operator<<:__f <- %S0
	.loc	37 228 39               @ /usr/bin/../lib/gcc/arm-linux-gnueabihf/6.3.0/../../../../include/c++/6.3.0/ostream:228:39
	vcvt.f64.f32	d0, s0
.Ltmp302:
	.loc	37 228 9 is_stmt 0      @ /usr/bin/../lib/gcc/arm-linux-gnueabihf/6.3.0/../../../../include/c++/6.3.0/ostream:228:9
.Ltmp74:
.Ltmp303:
	@DEBUG_VALUE: operator<<:this <- %R5
	mov	r0, r5
	bl	_ZNSo9_M_insertIdEERSoT_
	mov	r5, r0
.Ltmp304:
.Ltmp75:
.Ltmp305:
@ BB#61:                                @ %_ZNSolsEf.exit123
                                        @   in Loop: Header=BB0_55 Depth=2
	@DEBUG_VALUE: length:__s <- %R9
	@DEBUG_VALUE: operator<<:__n <- %R7
	.loc	37 561 2 is_stmt 1      @ /usr/bin/../lib/gcc/arm-linux-gnueabihf/6.3.0/../../../../include/c++/6.3.0/ostream:561:2
.Ltmp76:
.Ltmp306:
	@DEBUG_VALUE: operator<<<std::char_traits<char> >:__out <- %R5
	@DEBUG_VALUE: length:__s <- undef
	movw	r1, :lower16:.L.str.11
	mov	r0, r5
	movt	r1, :upper16:.L.str.11
	mov	r2, #3
	bl	_ZSt16__ostream_insertIcSt11char_traitsIcEERSt13basic_ostreamIT_T0_ES6_PKS3_i
.Ltmp77:
.Ltmp307:
@ BB#62:                                @ %_ZStlsISt11char_traitsIcEERSt13basic_ostreamIcT_ES5_PKc.exit125
                                        @   in Loop: Header=BB0_55 Depth=2
	@DEBUG_VALUE: operator<<<std::char_traits<char> >:__out <- %R5
	@DEBUG_VALUE: length:__s <- %R9
	@DEBUG_VALUE: operator<<:__n <- %R7
	.loc	10 796 32               @ /usr/bin/../lib/gcc/arm-linux-gnueabihf/6.3.0/../../../../include/c++/6.3.0/bits/stl_vector.h:796:32
	ldr	r0, [r8, #132]
.Ltmp308:
	.loc	34 39 64                @ /root/Bela/projects/SOFAlizer-for-Bela/debug_file_print.cpp:39:64
	ldr	r0, [r0, r6, lsl #2]
.Ltmp309:
	@DEBUG_VALUE: fdi:this <- %R0
	.loc	38 54 38                @ /root/Bela/projects/SOFAlizer-for-Bela/fft.h:54:38
	ldr	r0, [r0, #4]
.Ltmp310:
	.loc	34 39 89 discriminator 1 @ /root/Bela/projects/SOFAlizer-for-Bela/debug_file_print.cpp:39:89
	add	r0, r0, r4
	vldr	s0, [r0]
.Ltmp311:
	@DEBUG_VALUE: operator<<:__f <- %S0
	.loc	37 228 39               @ /usr/bin/../lib/gcc/arm-linux-gnueabihf/6.3.0/../../../../include/c++/6.3.0/ostream:228:39
	vcvt.f64.f32	d0, s0
.Ltmp312:
	.loc	37 228 9 is_stmt 0      @ /usr/bin/../lib/gcc/arm-linux-gnueabihf/6.3.0/../../../../include/c++/6.3.0/ostream:228:9
.Ltmp78:
.Ltmp313:
	@DEBUG_VALUE: operator<<:this <- %R5
	mov	r0, r5
	bl	_ZNSo9_M_insertIdEERSoT_
.Ltmp79:
.Ltmp314:
@ BB#63:                                @ %_ZNSolsEf.exit127
                                        @   in Loop: Header=BB0_55 Depth=2
	@DEBUG_VALUE: operator<<:this <- %R5
	@DEBUG_VALUE: operator<<<std::char_traits<char> >:__out <- %R5
	@DEBUG_VALUE: length:__s <- %R9
	@DEBUG_VALUE: operator<<:__n <- %R7
	.loc	37 561 2 is_stmt 1      @ /usr/bin/../lib/gcc/arm-linux-gnueabihf/6.3.0/../../../../include/c++/6.3.0/ostream:561:2
.Ltmp80:
.Ltmp315:
	@DEBUG_VALUE: operator<<<std::char_traits<char> >:__out <- %R0
	@DEBUG_VALUE: length:__s <- undef
	movw	r1, :lower16:.L.str.12
	mov	r2, #3
	movt	r1, :upper16:.L.str.12
	bl	_ZSt16__ostream_insertIcSt11char_traitsIcEERSt13basic_ostreamIT_T0_ES6_PKS3_i
.Ltmp316:
.Ltmp81:
.Ltmp317:
@ BB#64:                                @ %_ZStlsISt11char_traitsIcEERSt13basic_ostreamIcT_ES5_PKc.exit129
                                        @   in Loop: Header=BB0_55 Depth=2
	@DEBUG_VALUE: operator<<:this <- %R5
	@DEBUG_VALUE: operator<<<std::char_traits<char> >:__out <- %R5
	@DEBUG_VALUE: length:__s <- %R9
	@DEBUG_VALUE: operator<<:__n <- %R7
	.loc	10 796 32               @ /usr/bin/../lib/gcc/arm-linux-gnueabihf/6.3.0/../../../../include/c++/6.3.0/bits/stl_vector.h:796:32
	ldr	r0, [r8, #132]
.Ltmp318:
	.loc	34 37 36 discriminator 2 @ /root/Bela/projects/SOFAlizer-for-Bela/debug_file_print.cpp:37:36
	add	r4, r4, #8
	.loc	34 37 78 is_stmt 0 discriminator 5 @ /root/Bela/projects/SOFAlizer-for-Bela/debug_file_print.cpp:37:78
	add	r7, r7, #1
.Ltmp319:
	@DEBUG_VALUE: n <- %R7
	.loc	34 37 38 discriminator 1 @ /root/Bela/projects/SOFAlizer-for-Bela/debug_file_print.cpp:37:38
	ldr	r0, [r0, r6, lsl #2]
.Ltmp320:
	@DEBUG_VALUE: get_length:this <- %R0
	.loc	38 66 36 is_stmt 1      @ /root/Bela/projects/SOFAlizer-for-Bela/fft.h:66:36
	ldr	r0, [r0, #12]
.Ltmp321:
	.loc	34 37 9 discriminator 2 @ /root/Bela/projects/SOFAlizer-for-Bela/debug_file_print.cpp:37:9
	cmp	r7, r0
	blo	.LBB0_55
.Ltmp322:
.LBB0_65:                               @ %_ZStlsISt11char_traitsIcEERSt13basic_ostreamIcT_ES5_PKc.exit91
                                        @   in Loop: Header=BB0_41 Depth=1
	.loc	34 23 44 discriminator 1 @ /root/Bela/projects/SOFAlizer-for-Bela/debug_file_print.cpp:23:44
	ldr	r0, [r8, #100]
	.loc	34 23 56 is_stmt 0 discriminator 3 @ /root/Bela/projects/SOFAlizer-for-Bela/debug_file_print.cpp:23:56
	add	r6, r6, #1
.Ltmp323:
	@DEBUG_VALUE: m <- %R6
	.loc	34 23 52 discriminator 1 @ /root/Bela/projects/SOFAlizer-for-Bela/debug_file_print.cpp:23:52
	ldr	r0, [r0, #20]
	.loc	34 23 5 discriminator 1 @ /root/Bela/projects/SOFAlizer-for-Bela/debug_file_print.cpp:23:5
	cmp	r6, r0
	blo	.LBB0_41
.Ltmp324:
.LBB0_66:                               @ %_ZStlsISt11char_traitsIcEERSt13basic_ostreamIcT_ES5_PKc.exit91._crit_edge
	.file	39 "/usr/bin/../lib/gcc/arm-linux-gnueabihf/6.3.0/../../../../include/c++/6.3.0" "fstream"
	.loc	39 841 18 is_stmt 1     @ /usr/bin/../lib/gcc/arm-linux-gnueabihf/6.3.0/../../../../include/c++/6.3.0/fstream:841:18
.Ltmp83:
.Ltmp325:
	@DEBUG_VALUE: close:this <- undef
	add	r4, sp, #36
.Ltmp326:
	@DEBUG_VALUE: close:this <- %R4
	.loc	39 841 7 is_stmt 0      @ /usr/bin/../lib/gcc/arm-linux-gnueabihf/6.3.0/../../../../include/c++/6.3.0/fstream:841:7
	add	r0, r4, #4
	.loc	39 841 18               @ /usr/bin/../lib/gcc/arm-linux-gnueabihf/6.3.0/../../../../include/c++/6.3.0/fstream:841:18
	bl	_ZNSt13basic_filebufIcSt11char_traitsIcEE5closeEv
.Ltmp84:
.Ltmp327:
@ BB#67:                                @ %.noexc92
	@DEBUG_VALUE: close:this <- %R4
	.loc	39 841 6                @ /usr/bin/../lib/gcc/arm-linux-gnueabihf/6.3.0/../../../../include/c++/6.3.0/fstream:841:6
	cmp	r0, #0
	bne	.LBB0_69
.Ltmp328:
@ BB#68:
	@DEBUG_VALUE: close:this <- %R4
	.loc	39 842 10 is_stmt 1     @ /usr/bin/../lib/gcc/arm-linux-gnueabihf/6.3.0/../../../../include/c++/6.3.0/fstream:842:10
	ldr	r0, [sp, #36]
	ldr	r0, [r0, #-12]
	add	r0, r4, r0
.Ltmp329:
	@DEBUG_VALUE: rdstate:this <- %R0
	@DEBUG_VALUE: setstate:__state <- 4
	@DEBUG_VALUE: setstate:this <- %R0
	.file	40 "/usr/bin/../lib/gcc/arm-linux-gnueabihf/6.3.0/../../../../include/c++/6.3.0/bits" "basic_ios.h"
	.loc	40 138 16               @ /usr/bin/../lib/gcc/arm-linux-gnueabihf/6.3.0/../../../../include/c++/6.3.0/bits/basic_ios.h:138:16
	ldr	r1, [r0, #20]
.Ltmp330:
	@DEBUG_VALUE: operator|:__b <- 4
	@DEBUG_VALUE: operator|:__a <- %R1
	.loc	3 170 47                @ /usr/bin/../lib/gcc/arm-linux-gnueabihf/6.3.0/../../../../include/c++/6.3.0/bits/ios_base.h:170:47
	orr	r1, r1, #4
.Ltmp331:
	.loc	40 158 15 discriminator 2 @ /usr/bin/../lib/gcc/arm-linux-gnueabihf/6.3.0/../../../../include/c++/6.3.0/bits/basic_ios.h:158:15
.Ltmp85:
	bl	_ZNSt9basic_iosIcSt11char_traitsIcEE5clearESt12_Ios_Iostate
.Ltmp332:
.Ltmp86:
.Ltmp333:
.LBB0_69:                               @ %_ZNSt14basic_ofstreamIcSt11char_traitsIcEE5closeEv.exit
	@DEBUG_VALUE: close:this <- %R4
	add	r0, sp, #36
.Ltmp334:
	@DEBUG_VALUE: fftToFile:fftFile <- [%R0+0]
	.loc	34 44 1 discriminator 6 @ /root/Bela/projects/SOFAlizer-for-Bela/debug_file_print.cpp:44:1
	bl	_ZNSt14basic_ofstreamIcSt11char_traitsIcEED1Ev
.Ltmp335:
	.loc	5 136 28                @ /usr/bin/../lib/gcc/arm-linux-gnueabihf/6.3.0/../../../../include/c++/6.3.0/bits/basic_string.h:136:28
	ldr	r0, [r11, #-88]
.Ltmp336:
	@DEBUG_VALUE: deallocate:__p <- %R0
	@DEBUG_VALUE: deallocate:__p <- %R0
	.loc	5 180 6                 @ /usr/bin/../lib/gcc/arm-linux-gnueabihf/6.3.0/../../../../include/c++/6.3.0/bits/basic_string.h:180:6
	ldr	r1, [sp, #4]            @ 4-byte Reload
	cmp	r0, r1
	beq	.LBB0_71
.Ltmp337:
@ BB#70:
	@DEBUG_VALUE: deallocate:__p <- %R0
	@DEBUG_VALUE: deallocate:__p <- %R0
	@DEBUG_VALUE: close:this <- %R4
	.loc	36 110 9                @ /usr/bin/../lib/gcc/arm-linux-gnueabihf/6.3.0/../../../../include/c++/6.3.0/ext/new_allocator.h:110:9
	bl	_ZdlPv
.Ltmp338:
.LBB0_71:                               @ %_ZNSt7__cxx1112basic_stringIcSt11char_traitsIcESaIcEED2Ev.exit130
	@DEBUG_VALUE: close:this <- %R4
	.loc	5 136 28                @ /usr/bin/../lib/gcc/arm-linux-gnueabihf/6.3.0/../../../../include/c++/6.3.0/bits/basic_string.h:136:28
	ldr	r0, [r11, #-60]
.Ltmp339:
	@DEBUG_VALUE: deallocate:__p <- %R0
	@DEBUG_VALUE: deallocate:__p <- %R0
	.loc	5 180 6                 @ /usr/bin/../lib/gcc/arm-linux-gnueabihf/6.3.0/../../../../include/c++/6.3.0/bits/basic_string.h:180:6
	ldr	r1, [sp, #8]            @ 4-byte Reload
	cmp	r0, r1
	beq	.LBB0_73
.Ltmp340:
@ BB#72:
	@DEBUG_VALUE: deallocate:__p <- %R0
	@DEBUG_VALUE: deallocate:__p <- %R0
	@DEBUG_VALUE: close:this <- %R4
	.loc	36 110 9                @ /usr/bin/../lib/gcc/arm-linux-gnueabihf/6.3.0/../../../../include/c++/6.3.0/ext/new_allocator.h:110:9
	bl	_ZdlPv
.Ltmp341:
.LBB0_73:                               @ %_ZNSt7__cxx1112basic_stringIcSt11char_traitsIcESaIcEED2Ev.exit131
	@DEBUG_VALUE: close:this <- %R4
	.loc	34 44 1 discriminator 6 @ /root/Bela/projects/SOFAlizer-for-Bela/debug_file_print.cpp:44:1
	sub	sp, r11, #28
	pop	{r4, r5, r6, r7, r8, r9, r10, r11, pc}
.Ltmp342:
.LBB0_74:                               @ %.noexc.i
	@DEBUG_VALUE: basic_string:this <- %R0
	@DEBUG_VALUE: _M_local_data:this <- %R0
	@DEBUG_VALUE: fftToFile:hrtfdata <- %R8
	.loc	35 212 4                @ /usr/bin/../lib/gcc/arm-linux-gnueabihf/6.3.0/../../../../include/c++/6.3.0/bits/basic_string.tcc:212:4
.Ltmp88:
	movw	r0, :lower16:.L.str.14
.Ltmp343:
	movt	r0, :upper16:.L.str.14
	mov	lr, pc
	b	_ZSt19__throw_logic_errorPKc
.Ltmp89:
.Ltmp344:
@ BB#75:                                @ %.noexc
	@DEBUG_VALUE: fftToFile:hrtfdata <- %R8
.LBB0_76:                               @ %.noexc.i133
	@DEBUG_VALUE: _S_copy:__s <- %R1
	@DEBUG_VALUE: _S_copy:__n <- %R6
	@DEBUG_VALUE: _M_construct<char *>:__dnew <- %R6
	@DEBUG_VALUE: assign:__c2 <- %R5
	@DEBUG_VALUE: _S_copy:__s <- %R5
	@DEBUG_VALUE: _S_copy_chars:__k1 <- %R5
	@DEBUG_VALUE: _M_construct<char *>:__beg <- %R5
	@DEBUG_VALUE: _M_construct_aux<char *>:__beg <- %R5
	@DEBUG_VALUE: _M_construct<char *>:__beg <- %R5
	@DEBUG_VALUE: basic_string:this <- %R0
	@DEBUG_VALUE: _M_local_data:this <- %R0
	@DEBUG_VALUE: _M_construct<char *>:this <- %R0
	@DEBUG_VALUE: _M_construct_aux<char *>:this <- %R0
	@DEBUG_VALUE: _M_construct<char *>:this <- %R0
	@DEBUG_VALUE: _S_copy:__d <- [%SP+4]
	@DEBUG_VALUE: _S_copy_chars:__p <- [%SP+4]
	@DEBUG_VALUE: fftToFile:hrtfdata <- %R8
	.loc	35 212 4 is_stmt 0      @ /usr/bin/../lib/gcc/arm-linux-gnueabihf/6.3.0/../../../../include/c++/6.3.0/bits/basic_string.tcc:212:4
.Ltmp2:
	movw	r0, :lower16:.L.str.14
.Ltmp345:
	movt	r0, :upper16:.L.str.14
	mov	lr, pc
	b	_ZSt19__throw_logic_errorPKc
.Ltmp346:
.Ltmp3:
.Ltmp347:
@ BB#77:                                @ %.noexc137
	@DEBUG_VALUE: _S_copy:__n <- %R6
	@DEBUG_VALUE: _M_construct<char *>:__dnew <- %R6
	@DEBUG_VALUE: assign:__c2 <- %R5
	@DEBUG_VALUE: _S_copy:__s <- %R5
	@DEBUG_VALUE: _S_copy_chars:__k1 <- %R5
	@DEBUG_VALUE: _M_construct<char *>:__beg <- %R5
	@DEBUG_VALUE: _M_construct_aux<char *>:__beg <- %R5
	@DEBUG_VALUE: _M_construct<char *>:__beg <- %R5
	@DEBUG_VALUE: fftToFile:hrtfdata <- %R8
.LBB0_78:
	@DEBUG_VALUE: _S_copy:__n <- %R6
	@DEBUG_VALUE: assign:__c2 <- %R5
	@DEBUG_VALUE: _S_copy:__s <- %R5
	@DEBUG_VALUE: _S_copy_chars:__k1 <- %R5
	@DEBUG_VALUE: _M_construct<char *>:__beg <- %R5
	@DEBUG_VALUE: _M_construct_aux<char *>:__beg <- %R5
	@DEBUG_VALUE: _M_construct<char *>:__beg <- %R5
	@DEBUG_VALUE: fftToFile:hrtfdata <- %R8
.Ltmp6:
	mov	r4, r0
	b	.LBB0_88
.Ltmp348:
.LBB0_79:
	@DEBUG_VALUE: fftToFile:hrtfdata <- %R8
.Ltmp90:
	mov	lr, pc
	b	_Unwind_Resume
.Ltmp349:
.LBB0_80:
	@DEBUG_VALUE: _S_copy:__n <- %R6
	@DEBUG_VALUE: assign:__c2 <- %R5
	@DEBUG_VALUE: _S_copy:__s <- %R5
	@DEBUG_VALUE: _S_copy_chars:__k1 <- %R5
	@DEBUG_VALUE: _M_construct<char *>:__beg <- %R5
	@DEBUG_VALUE: _M_construct_aux<char *>:__beg <- %R5
	@DEBUG_VALUE: _M_construct<char *>:__beg <- %R5
	@DEBUG_VALUE: fftToFile:hrtfdata <- %R8
.Ltmp12:
	mov	r4, r0
.Ltmp350:
	.loc	5 136 28 is_stmt 1      @ /usr/bin/../lib/gcc/arm-linux-gnueabihf/6.3.0/../../../../include/c++/6.3.0/bits/basic_string.h:136:28
	ldr	r0, [sp, #12]
.Ltmp351:
	@DEBUG_VALUE: deallocate:__p <- %R0
	@DEBUG_VALUE: deallocate:__p <- %R0
	.loc	5 180 6                 @ /usr/bin/../lib/gcc/arm-linux-gnueabihf/6.3.0/../../../../include/c++/6.3.0/bits/basic_string.h:180:6
	cmp	r0, r7
	beq	.LBB0_88
.Ltmp352:
@ BB#81:
	@DEBUG_VALUE: deallocate:__p <- %R0
	@DEBUG_VALUE: deallocate:__p <- %R0
	@DEBUG_VALUE: _S_copy:__n <- %R6
	@DEBUG_VALUE: assign:__c2 <- %R5
	@DEBUG_VALUE: _S_copy:__s <- %R5
	@DEBUG_VALUE: _S_copy_chars:__k1 <- %R5
	@DEBUG_VALUE: _M_construct<char *>:__beg <- %R5
	@DEBUG_VALUE: _M_construct_aux<char *>:__beg <- %R5
	@DEBUG_VALUE: _M_construct<char *>:__beg <- %R5
	@DEBUG_VALUE: fftToFile:hrtfdata <- %R8
	.loc	36 110 9                @ /usr/bin/../lib/gcc/arm-linux-gnueabihf/6.3.0/../../../../include/c++/6.3.0/ext/new_allocator.h:110:9
	bl	_ZdlPv
.Ltmp353:
	b	.LBB0_88
.Ltmp354:
.LBB0_82:
	@DEBUG_VALUE: _S_copy:__n <- %R6
	@DEBUG_VALUE: assign:__c2 <- %R5
	@DEBUG_VALUE: _S_copy:__s <- %R5
	@DEBUG_VALUE: _S_copy_chars:__k1 <- %R5
	@DEBUG_VALUE: _M_construct<char *>:__beg <- %R5
	@DEBUG_VALUE: _M_construct_aux<char *>:__beg <- %R5
	@DEBUG_VALUE: _M_construct<char *>:__beg <- %R5
	@DEBUG_VALUE: fftToFile:hrtfdata <- %R8
.Ltmp9:
	mov	r4, r0
.Ltmp355:
	.loc	5 136 28                @ /usr/bin/../lib/gcc/arm-linux-gnueabihf/6.3.0/../../../../include/c++/6.3.0/bits/basic_string.h:136:28
	ldr	r0, [sp, #12]
.Ltmp356:
	@DEBUG_VALUE: deallocate:__p <- %R0
	@DEBUG_VALUE: deallocate:__p <- %R0
	.loc	5 180 6                 @ /usr/bin/../lib/gcc/arm-linux-gnueabihf/6.3.0/../../../../include/c++/6.3.0/bits/basic_string.h:180:6
	cmp	r0, r7
	beq	.LBB0_88
.Ltmp357:
@ BB#83:
	@DEBUG_VALUE: deallocate:__p <- %R0
	@DEBUG_VALUE: deallocate:__p <- %R0
	@DEBUG_VALUE: _S_copy:__n <- %R6
	@DEBUG_VALUE: assign:__c2 <- %R5
	@DEBUG_VALUE: _S_copy:__s <- %R5
	@DEBUG_VALUE: _S_copy_chars:__k1 <- %R5
	@DEBUG_VALUE: _M_construct<char *>:__beg <- %R5
	@DEBUG_VALUE: _M_construct_aux<char *>:__beg <- %R5
	@DEBUG_VALUE: _M_construct<char *>:__beg <- %R5
	@DEBUG_VALUE: fftToFile:hrtfdata <- %R8
	.loc	36 110 9                @ /usr/bin/../lib/gcc/arm-linux-gnueabihf/6.3.0/../../../../include/c++/6.3.0/ext/new_allocator.h:110:9
	bl	_ZdlPv
.Ltmp358:
	b	.LBB0_88
.Ltmp359:
.LBB0_84:
.Ltmp87:
	b	.LBB0_87
.LBB0_85:
.Ltmp82:
	b	.LBB0_87
.LBB0_86:
.Ltmp63:
.LBB0_87:
	mov	r4, r0
	add	r0, sp, #36
.Ltmp360:
	@DEBUG_VALUE: fftToFile:fftFile <- [%R0+0]
	.loc	34 44 1 discriminator 7 @ /root/Bela/projects/SOFAlizer-for-Bela/debug_file_print.cpp:44:1
	bl	_ZNSt14basic_ofstreamIcSt11char_traitsIcEED1Ev
.Ltmp361:
.LBB0_88:
	ldr	r5, [sp, #8]            @ 4-byte Reload
.Ltmp362:
	.loc	5 136 28                @ /usr/bin/../lib/gcc/arm-linux-gnueabihf/6.3.0/../../../../include/c++/6.3.0/bits/basic_string.h:136:28
	ldr	r0, [r11, #-88]
.Ltmp363:
	@DEBUG_VALUE: deallocate:__p <- %R0
	@DEBUG_VALUE: deallocate:__p <- %R0
	.loc	5 180 6                 @ /usr/bin/../lib/gcc/arm-linux-gnueabihf/6.3.0/../../../../include/c++/6.3.0/bits/basic_string.h:180:6
	ldr	r1, [sp, #4]            @ 4-byte Reload
	cmp	r0, r1
	beq	.LBB0_90
.Ltmp364:
@ BB#89:
	@DEBUG_VALUE: deallocate:__p <- %R0
	@DEBUG_VALUE: deallocate:__p <- %R0
	.loc	36 110 9                @ /usr/bin/../lib/gcc/arm-linux-gnueabihf/6.3.0/../../../../include/c++/6.3.0/ext/new_allocator.h:110:9
	bl	_ZdlPv
.Ltmp365:
.LBB0_90:                               @ %_ZNSt7__cxx1112basic_stringIcSt11char_traitsIcESaIcEED2Ev.exit132
	.loc	5 136 28                @ /usr/bin/../lib/gcc/arm-linux-gnueabihf/6.3.0/../../../../include/c++/6.3.0/bits/basic_string.h:136:28
	ldr	r0, [r11, #-60]
.Ltmp366:
	@DEBUG_VALUE: deallocate:__p <- %R0
	@DEBUG_VALUE: deallocate:__p <- %R0
	.loc	5 180 6                 @ /usr/bin/../lib/gcc/arm-linux-gnueabihf/6.3.0/../../../../include/c++/6.3.0/bits/basic_string.h:180:6
	cmp	r0, r5
	beq	.LBB0_92
.Ltmp367:
@ BB#91:
	@DEBUG_VALUE: deallocate:__p <- %R0
	@DEBUG_VALUE: deallocate:__p <- %R0
	.loc	36 110 9                @ /usr/bin/../lib/gcc/arm-linux-gnueabihf/6.3.0/../../../../include/c++/6.3.0/ext/new_allocator.h:110:9
	bl	_ZdlPv
.Ltmp368:
.LBB0_92:
	mov	r0, r4
	mov	lr, pc
	b	_Unwind_Resume
.Lfunc_end0:
	.size	_Z9fftToFilePK8HRTFData, .Lfunc_end0-_Z9fftToFilePK8HRTFData
	.cfi_endproc
	.file	41 "/usr/bin/../lib/gcc/arm-linux-gnueabihf/6.3.0/../../../../include/c++/6.3.0/bits" "stl_iterator_base_types.h"
	.file	42 "/usr/bin/../lib/gcc/arm-linux-gnueabihf/6.3.0/../../../../include/c++/6.3.0/bits" "cpp_type_traits.h"
	.file	43 "/usr/include/ne10" "NE10_types.h"
	.file	44 "/usr/bin/../lib/gcc/arm-linux-gnueabihf/6.3.0/../../../../include/arm-linux-gnueabihf/c++/6.3.0/bits" "c++allocator.h"
	.file	45 "/usr/bin/../lib/gcc/arm-linux-gnueabihf/6.3.0/../../../../include/c++/6.3.0/bits" "allocator.h"
	.file	46 "/usr/bin/../lib/gcc/arm-linux-gnueabihf/6.3.0/../../../../include/c++/6.3.0" "type_traits"
	.globl	__gxx_personality_v0
	.personality __gxx_personality_v0
	.handlerdata
	.p2align	2
GCC_except_table0:
.Lexception0:
	.byte	255                     @ @LPStart Encoding = omit
	.byte	0                       @ @TType Encoding = absptr
	.ascii	"\254\001"              @ @TType base offset
	.byte	3                       @ Call site Encoding = udata4
	.ascii	"\251\001"              @ Call site table length
	.long	.Ltmp0-.Lfunc_begin0    @ >> Call Site 1 <<
	.long	.Ltmp1-.Ltmp0           @   Call between .Ltmp0 and .Ltmp1
	.long	.Ltmp90-.Lfunc_begin0   @     jumps to .Ltmp90
	.byte	0                       @   On action: cleanup
	.long	.Ltmp1-.Lfunc_begin0    @ >> Call Site 2 <<
	.long	.Ltmp4-.Ltmp1           @   Call between .Ltmp1 and .Ltmp4
	.long	0                       @     has no landing pad
	.byte	0                       @   On action: cleanup
	.long	.Ltmp4-.Lfunc_begin0    @ >> Call Site 3 <<
	.long	.Ltmp5-.Ltmp4           @   Call between .Ltmp4 and .Ltmp5
	.long	.Ltmp6-.Lfunc_begin0    @     jumps to .Ltmp6
	.byte	0                       @   On action: cleanup
	.long	.Ltmp5-.Lfunc_begin0    @ >> Call Site 4 <<
	.long	.Ltmp7-.Ltmp5           @   Call between .Ltmp5 and .Ltmp7
	.long	0                       @     has no landing pad
	.byte	0                       @   On action: cleanup
	.long	.Ltmp7-.Lfunc_begin0    @ >> Call Site 5 <<
	.long	.Ltmp8-.Ltmp7           @   Call between .Ltmp7 and .Ltmp8
	.long	.Ltmp9-.Lfunc_begin0    @     jumps to .Ltmp9
	.byte	0                       @   On action: cleanup
	.long	.Ltmp10-.Lfunc_begin0   @ >> Call Site 6 <<
	.long	.Ltmp11-.Ltmp10         @   Call between .Ltmp10 and .Ltmp11
	.long	.Ltmp12-.Lfunc_begin0   @     jumps to .Ltmp12
	.byte	0                       @   On action: cleanup
	.long	.Ltmp13-.Lfunc_begin0   @ >> Call Site 7 <<
	.long	.Ltmp44-.Ltmp13         @   Call between .Ltmp13 and .Ltmp44
	.long	.Ltmp87-.Lfunc_begin0   @     jumps to .Ltmp87
	.byte	0                       @   On action: cleanup
	.long	.Ltmp45-.Lfunc_begin0   @ >> Call Site 8 <<
	.long	.Ltmp62-.Ltmp45         @   Call between .Ltmp45 and .Ltmp62
	.long	.Ltmp63-.Lfunc_begin0   @     jumps to .Ltmp63
	.byte	0                       @   On action: cleanup
	.long	.Ltmp64-.Lfunc_begin0   @ >> Call Site 9 <<
	.long	.Ltmp81-.Ltmp64         @   Call between .Ltmp64 and .Ltmp81
	.long	.Ltmp82-.Lfunc_begin0   @     jumps to .Ltmp82
	.byte	0                       @   On action: cleanup
	.long	.Ltmp83-.Lfunc_begin0   @ >> Call Site 10 <<
	.long	.Ltmp86-.Ltmp83         @   Call between .Ltmp83 and .Ltmp86
	.long	.Ltmp87-.Lfunc_begin0   @     jumps to .Ltmp87
	.byte	0                       @   On action: cleanup
	.long	.Ltmp88-.Lfunc_begin0   @ >> Call Site 11 <<
	.long	.Ltmp89-.Ltmp88         @   Call between .Ltmp88 and .Ltmp89
	.long	.Ltmp90-.Lfunc_begin0   @     jumps to .Ltmp90
	.byte	0                       @   On action: cleanup
	.long	.Ltmp2-.Lfunc_begin0    @ >> Call Site 12 <<
	.long	.Ltmp3-.Ltmp2           @   Call between .Ltmp2 and .Ltmp3
	.long	.Ltmp6-.Lfunc_begin0    @     jumps to .Ltmp6
	.byte	0                       @   On action: cleanup
	.long	.Ltmp3-.Lfunc_begin0    @ >> Call Site 13 <<
	.long	.Lfunc_end0-.Ltmp3      @   Call between .Ltmp3 and .Lfunc_end0
	.long	0                       @     has no landing pad
	.byte	0                       @   On action: cleanup
	.p2align	2
	.fnend

	.section	.text.startup,"ax",%progbits
	.p2align	2
	.type	_GLOBAL__sub_I_debug_file_print.ii,%function
_GLOBAL__sub_I_debug_file_print.ii:     @ @_GLOBAL__sub_I_debug_file_print.ii
.Lfunc_begin1:
	.loc	30 0 0                  @ /root/Bela/projects/SOFAlizer-for-Bela/build/debug_file_print.cpp:0:0
	.fnstart
	.cfi_startproc
@ BB#0:
	.save	{r4, r10, r11, lr}
	push	{r4, r10, r11, lr}
.Ltmp369:
	.cfi_def_cfa_offset 16
.Ltmp370:
	.cfi_offset lr, -4
.Ltmp371:
	.cfi_offset r11, -8
.Ltmp372:
	.cfi_offset r10, -12
.Ltmp373:
	.cfi_offset r4, -16
	.setfp	r11, sp, #8
	add	r11, sp, #8
.Ltmp374:
	.cfi_def_cfa r11, 8
.Ltmp375:
	.loc	4 74 25 prologue_end    @ /usr/bin/../lib/gcc/arm-linux-gnueabihf/6.3.0/../../../../include/c++/6.3.0/iostream:74:25
	movw	r4, :lower16:_ZStL8__ioinit
	movt	r4, :upper16:_ZStL8__ioinit
	mov	r0, r4
	bl	_ZNSt8ios_base4InitC1Ev
	.loc	4 74 25 is_stmt 0 discriminator 1 @ /usr/bin/../lib/gcc/arm-linux-gnueabihf/6.3.0/../../../../include/c++/6.3.0/iostream:74:25
	movw	r0, :lower16:_ZNSt8ios_base4InitD1Ev
	movw	r2, :lower16:__dso_handle
	movt	r0, :upper16:_ZNSt8ios_base4InitD1Ev
	movt	r2, :upper16:__dso_handle
	mov	r1, r4
	pop	{r4, r10, r11, lr}
	b	__cxa_atexit
.Ltmp376:
.Lfunc_end1:
	.size	_GLOBAL__sub_I_debug_file_print.ii, .Lfunc_end1-_GLOBAL__sub_I_debug_file_print.ii
	.cfi_endproc
	.fnend

	.type	_ZStL8__ioinit,%object  @ @_ZStL8__ioinit
	.local	_ZStL8__ioinit
	.comm	_ZStL8__ioinit,1,1
	.type	.L.str,%object          @ @.str
	.section	.rodata.str1.8,"aMS",%progbits,1
	.p2align	3
.L.str:
	.asciz	"_fft_data.log"
	.size	.L.str, 14

	.type	.L.str.1,%object        @ @.str.1
	.section	.rodata.str1.1,"aMS",%progbits,1
.L.str.1:
	.asciz	"FFT Data\n"
	.size	.L.str.1, 10

	.type	.L.str.2,%object        @ @.str.2
.L.str.2:
	.asciz	"M x R x N = "
	.size	.L.str.2, 13

	.type	.L.str.3,%object        @ @.str.3
.L.str.3:
	.asciz	" x "
	.size	.L.str.3, 4

	.type	.L.str.4,%object        @ @.str.4
.L.str.4:
	.asciz	"\n"
	.size	.L.str.4, 2

	.type	.L.str.5,%object        @ @.str.5
.L.str.5:
	.asciz	"M x R x N (actual) = "
	.size	.L.str.5, 22

	.type	.L.str.6,%object        @ @.str.6
.L.str.6:
	.asciz	" x 2 x "
	.size	.L.str.6, 8

	.type	.L.str.7,%object        @ @.str.7
.L.str.7:
	.asciz	"elements = "
	.size	.L.str.7, 12

	.type	.L.str.8,%object        @ @.str.8
.L.str.8:
	.asciz	"["
	.size	.L.str.8, 2

	.type	.L.str.9,%object        @ @.str.9
.L.str.9:
	.asciz	"]["
	.size	.L.str.9, 3

	.type	.L.str.10,%object       @ @.str.10
.L.str.10:
	.asciz	"] Left: "
	.size	.L.str.10, 9

	.type	.L.str.11,%object       @ @.str.11
.L.str.11:
	.asciz	" + "
	.size	.L.str.11, 4

	.type	.L.str.12,%object       @ @.str.12
.L.str.12:
	.asciz	" j\n"
	.size	.L.str.12, 4

	.type	.L.str.13,%object       @ @.str.13
.L.str.13:
	.asciz	"] Right: "
	.size	.L.str.13, 10

	.type	.L.str.14,%object       @ @.str.14
.L.str.14:
	.asciz	"basic_string::_M_construct null not valid"
	.size	.L.str.14, 42

	.section	.init_array,"aw",%init_array
	.p2align	2
	.long	_GLOBAL__sub_I_debug_file_print.ii(target1)
	.file	47 "/root/Bela/projects/SOFAlizer-for-Bela" "bela_sofa.h"
	.file	48 "/root/Bela/projects/SOFAlizer-for-Bela" "mysofa.h"
	.file	49 "/usr/lib/llvm-3.9/bin/../lib/clang/3.9.1/include" "arm_neon.h"
	.file	50 "/usr/bin/../lib/gcc/arm-linux-gnueabihf/6.3.0/../../../../include/c++/6.3.0" "iosfwd"
	.file	51 "/usr/bin/../lib/gcc/arm-linux-gnueabihf/6.3.0/../../../../include/c++/6.3.0/bits" "stringfwd.h"
	.section	".note.GNU-stack","",%progbits
	.eabi_attribute	30, 2	@ Tag_ABI_optimization_goals