	.text
	.syntax unified
	.eabi_attribute	67, "2.09"	@ Tag_conformance
	.cpu	cortex-a8
	.eabi_attribute	6, 10	@ Tag_CPU_arch
	.eabi_attribute	7, 65	@ Tag_CPU_arch_profile
	.eabi_attribute	8, 1	@ Tag_ARM_ISA_use
	.eabi_attribute	9, 2	@ Tag_THUMB_ISA_use
	.fpu	neon
	.eabi_attribute	17, 1	@ Tag_ABI_PCS_GOT_use
	.eabi_attribute	20, 2	@ Tag_ABI_FP_denormal
	.eabi_attribute	23, 1	@ Tag_ABI_FP_number_model
	.eabi_attribute	34, 1	@ Tag_CPU_unaligned_access
	.eabi_attribute	24, 1	@ Tag_ABI_align_needed
	.eabi_attribute	25, 1	@ Tag_ABI_align_preserved
	.eabi_attribute	28, 1	@ Tag_ABI_VFP_args
	.eabi_attribute	38, 1	@ Tag_ABI_FP_16bit_format
	.eabi_attribute	18, 4	@ Tag_ABI_PCS_wchar_t
	.eabi_attribute	26, 2	@ Tag_ABI_enum_size
	.eabi_attribute	14, 0	@ Tag_ABI_PCS_R9_use
	.eabi_attribute	68, 1	@ Tag_Virtualization_use
	.file	"/root/Bela/projects/SOFAlizer-for-Bela/build/filtering.bc"
	.file	1 "/usr/bin/../lib/gcc/arm-linux-gnueabihf/6.3.0/../../../../include/arm-linux-gnueabihf/c++/6.3.0/bits" "c++config.h"
	.file	2 "/usr/bin/../lib/gcc/arm-linux-gnueabihf/6.3.0/../../../../include/c++/6.3.0/bits" "alloc_traits.h"
	.file	3 "/usr/bin/../lib/gcc/arm-linux-gnueabihf/6.3.0/../../../../include/c++/6.3.0/ext" "new_allocator.h"
	.file	4 "/usr/bin/../lib/gcc/arm-linux-gnueabihf/6.3.0/../../../../include/arm-linux-gnueabihf/c++/6.3.0/bits" "c++allocator.h"
	.file	5 "/usr/bin/../lib/gcc/arm-linux-gnueabihf/6.3.0/../../../../include/c++/6.3.0/bits" "allocator.h"
	.file	6 "/usr/bin/../lib/gcc/arm-linux-gnueabihf/6.3.0/../../../../include/c++/6.3.0/ext" "alloc_traits.h"
	.file	7 "/usr/bin/../lib/gcc/arm-linux-gnueabihf/6.3.0/../../../../include/c++/6.3.0/bits" "stl_vector.h"
	.file	8 "/usr/bin/../lib/gcc/arm-linux-gnueabihf/6.3.0/../../../../include/c++/6.3.0" "type_traits"
	.file	9 "/root/Bela/projects/SOFAlizer-for-Bela" "filtering.cpp"
	.file	10 "/usr/bin/../lib/gcc/arm-linux-gnueabihf/6.3.0/../../../../include/arm-linux-gnueabihf/c++/6.3.0/bits" "gthr-default.h"
	.file	11 "/usr/bin/../lib/gcc/arm-linux-gnueabihf/6.3.0/../../../../include/c++/6.3.0/ext" "concurrence.h"
	.file	12 "/usr/bin/../lib/gcc/arm-linux-gnueabihf/6.3.0/../../../../include/c++/6.3.0/bits" "atomic_base.h"
	.file	13 "/usr/lib/llvm-3.9/bin/../lib/clang/3.9.1/include" "arm_neon.h"
	.file	14 "/usr/bin/../lib/gcc/arm-linux-gnueabihf/6.3.0/../../../../include/c++/6.3.0/debug" "debug.h"
	.file	15 "/usr/bin/../lib/gcc/arm-linux-gnueabihf/6.3.0/../../../../include/c++/6.3.0/bits" "exception_ptr.h"
	.file	16 "/usr/include" "wchar.h"
	.file	17 "/usr/lib/llvm-3.9/bin/../lib/clang/3.9.1/include" "stddef.h"
	.file	18 "/usr/include" "libio.h"
	.file	19 "/usr/include/arm-linux-gnueabihf/bits" "types.h"
	.file	20 "/usr/include" "stdio.h"
	.file	21 "/usr/lib/llvm-3.9/bin/../lib/clang/3.9.1/include" "stdarg.h"
	.file	22 "/usr/include" "stdint.h"
	.file	23 "/usr/include" "locale.h"
	.file	24 "/usr/include" "ctype.h"
	.file	25 "/usr/include" "stdlib.h"
	.file	26 "/usr/include/arm-linux-gnueabihf/bits" "stdlib-float.h"
	.file	27 "/usr/include/arm-linux-gnueabihf/bits" "stdlib-bsearch.h"
	.file	28 "/usr/bin/../lib/gcc/arm-linux-gnueabihf/6.3.0/../../../../include/c++/6.3.0" "cstdlib"
	.file	29 "/usr/include" "_G_config.h"
	.file	30 "/usr/include/arm-linux-gnueabihf/bits" "stdio.h"
	.file	31 "/usr/include" "time.h"
	.file	32 "/root/Bela/projects/SOFAlizer-for-Bela/build" "filtering.cpp"
	.file	33 "/usr/include/arm-linux-gnueabihf/bits" "math-finite.h"
	.file	34 "/usr/include/arm-linux-gnueabihf/bits" "mathcalls.h"
	.file	35 "/usr/include/arm-linux-gnueabihf/bits" "mathdef.h"
	.file	36 "/usr/include" "string.h"
	.globl	_Z9filteringRSt6vectorI8HRTFDataSaIS0_EEPK8CircBuffjPS4_j
	.p2align	2
	.type	_Z9filteringRSt6vectorI8HRTFDataSaIS0_EEPK8CircBuffjPS4_j,%function
_Z9filteringRSt6vectorI8HRTFDataSaIS0_EEPK8CircBuffjPS4_j: @ @_Z9filteringRSt6vectorI8HRTFDataSaIS0_EEPK8CircBuffjPS4_j
.Lfunc_begin0:
	.loc	9 24 0                  @ /root/Bela/projects/SOFAlizer-for-Bela/filtering.cpp:24:0
	.fnstart
	.cfi_startproc
@ BB#0:
	.save	{r4, r5, r6, r7, r8, r9, r10, r11, lr}
	push	{r4, r5, r6, r7, r8, r9, r10, r11, lr}
.Ltmp6:
	.cfi_def_cfa_offset 36
.Ltmp7:
	.cfi_offset lr, -4
.Ltmp8:
	.cfi_offset r11, -8
.Ltmp9:
	.cfi_offset r10, -12
.Ltmp10:
	.cfi_offset r9, -16
.Ltmp11:
	.cfi_offset r8, -20
.Ltmp12:
	.cfi_offset r7, -24
.Ltmp13:
	.cfi_offset r6, -28
.Ltmp14:
	.cfi_offset r5, -32
.Ltmp15:
	.cfi_offset r4, -36
	.setfp	r11, sp, #28
	add	r11, sp, #28
.Ltmp16:
	.cfi_def_cfa r11, 8
	.pad	#4
	sub	sp, sp, #4
	.vsave	{d8, d9}
	vpush	{d8, d9}
.Ltmp17:
	.cfi_offset d9, -48
.Ltmp18:
	.cfi_offset d8, -56
	.pad	#144
	sub	sp, sp, #144
	@DEBUG_VALUE: filtering:hrtfdata <- %R0
	@DEBUG_VALUE: filtering:incBuff <- %R1
	@DEBUG_VALUE: filtering:in_read_ptr <- %R2
	@DEBUG_VALUE: filtering:outcBuff <- %R3
.Ltmp19:
	.loc	10 747 7 prologue_end   @ /usr/bin/../lib/gcc/arm-linux-gnueabihf/6.3.0/../../../../include/arm-linux-gnueabihf/c++/6.3.0/bits/gthr-default.h:747:7
	movw	r5, :lower16:__pthread_key_create
	mov	r9, r3
.Ltmp20:
	@DEBUG_VALUE: filtering:outcBuff <- %R9
	movt	r5, :upper16:__pthread_key_create
	mov	r8, r2
.Ltmp21:
	@DEBUG_VALUE: filtering:in_read_ptr <- %R8
	mov	r4, r1
.Ltmp22:
	@DEBUG_VALUE: filtering:incBuff <- %R4
	mov	r10, r0
.Ltmp23:
	@DEBUG_VALUE: filtering:hrtfdata <- %R10
	cmp	r5, #0
	beq	.LBB0_2
.Ltmp24:
@ BB#1:                                 @ %_ZL20__gthread_mutex_lockP15pthread_mutex_t.exit.i
	@DEBUG_VALUE: filtering:hrtfdata <- %R10
	@DEBUG_VALUE: filtering:incBuff <- %R4
	@DEBUG_VALUE: filtering:in_read_ptr <- %R8
	@DEBUG_VALUE: filtering:outcBuff <- %R9
	.loc	10 748 12               @ /usr/bin/../lib/gcc/arm-linux-gnueabihf/6.3.0/../../../../include/arm-linux-gnueabihf/c++/6.3.0/bits/gthr-default.h:748:12
	movw	r0, :lower16:m_hrtf_num
	movt	r0, :upper16:m_hrtf_num
.Ltmp25:
	@DEBUG_VALUE: lock:this <- %R0
	bl	pthread_mutex_lock
.Ltmp26:
	@DEBUG_VALUE: lock:__e <- %R0
	.file	37 "/usr/bin/../lib/gcc/arm-linux-gnueabihf/6.3.0/../../../../include/c++/6.3.0/bits" "std_mutex.h"
	.loc	37 106 11               @ /usr/bin/../lib/gcc/arm-linux-gnueabihf/6.3.0/../../../../include/c++/6.3.0/bits/std_mutex.h:106:11
	cmp	r0, #0
	bne	.LBB0_29
.Ltmp27:
.LBB0_2:                                @ %_ZNSt5mutex4lockEv.exit
	@DEBUG_VALUE: filtering:hrtfdata <- %R10
	@DEBUG_VALUE: filtering:incBuff <- %R4
	@DEBUG_VALUE: filtering:in_read_ptr <- %R8
	@DEBUG_VALUE: filtering:outcBuff <- %R9
	.loc	9 27 30                 @ /root/Bela/projects/SOFAlizer-for-Bela/filtering.cpp:27:30
	movw	r0, :lower16:hrtf_num
.Ltmp28:
	.loc	10 777 7                @ /usr/bin/../lib/gcc/arm-linux-gnueabihf/6.3.0/../../../../include/arm-linux-gnueabihf/c++/6.3.0/bits/gthr-default.h:777:7
	cmp	r5, #0
.Ltmp29:
	.loc	9 27 30                 @ /root/Bela/projects/SOFAlizer-for-Bela/filtering.cpp:27:30
	movt	r0, :upper16:hrtf_num
	ldr	r0, [r0]
.Ltmp30:
	@DEBUG_VALUE: filtering:hrtf_num2 <- [%SP+16]
	@DEBUG_VALUE: operator[]:__n <- [%SP+16]
	@DEBUG_VALUE: operator[]:__n <- [%SP+16]
	@DEBUG_VALUE: operator[]:__n <- [%SP+16]
	@DEBUG_VALUE: operator[]:__n <- [%SP+16]
	@DEBUG_VALUE: operator[]:__n <- [%SP+16]
	@DEBUG_VALUE: operator[]:__n <- [%SP+16]
	@DEBUG_VALUE: operator[]:__n <- [%SP+16]
	@DEBUG_VALUE: operator[]:__n <- [%SP+16]
	@DEBUG_VALUE: operator[]:__n <- [%SP+16]
	@DEBUG_VALUE: operator[]:__n <- [%SP+16]
	@DEBUG_VALUE: operator[]:__n <- [%SP+16]
	.loc	10 777 7                @ /usr/bin/../lib/gcc/arm-linux-gnueabihf/6.3.0/../../../../include/arm-linux-gnueabihf/c++/6.3.0/bits/gthr-default.h:777:7
	str	r0, [sp, #16]           @ 4-byte Spill
	beq	.LBB0_4
.Ltmp31:
@ BB#3:
	@DEBUG_VALUE: operator[]:__n <- [%SP+16]
	@DEBUG_VALUE: operator[]:__n <- [%SP+16]
	@DEBUG_VALUE: operator[]:__n <- [%SP+16]
	@DEBUG_VALUE: operator[]:__n <- [%SP+16]
	@DEBUG_VALUE: operator[]:__n <- [%SP+16]
	@DEBUG_VALUE: operator[]:__n <- [%SP+16]
	@DEBUG_VALUE: operator[]:__n <- [%SP+16]
	@DEBUG_VALUE: operator[]:__n <- [%SP+16]
	@DEBUG_VALUE: operator[]:__n <- [%SP+16]
	@DEBUG_VALUE: operator[]:__n <- [%SP+16]
	@DEBUG_VALUE: operator[]:__n <- [%SP+16]
	@DEBUG_VALUE: filtering:hrtf_num2 <- [%SP+16]
	@DEBUG_VALUE: filtering:hrtfdata <- %R10
	@DEBUG_VALUE: filtering:incBuff <- %R4
	@DEBUG_VALUE: filtering:in_read_ptr <- %R8
	@DEBUG_VALUE: filtering:outcBuff <- %R9
	.loc	10 778 12               @ /usr/bin/../lib/gcc/arm-linux-gnueabihf/6.3.0/../../../../include/arm-linux-gnueabihf/c++/6.3.0/bits/gthr-default.h:778:12
	movw	r0, :lower16:m_hrtf_num
	movt	r0, :upper16:m_hrtf_num
.Ltmp32:
	@DEBUG_VALUE: unlock:this <- %R0
	bl	pthread_mutex_unlock
.Ltmp33:
.LBB0_4:                                @ %_ZNSt5mutex6unlockEv.exit
	@DEBUG_VALUE: filtering:hrtfdata <- %R10
	@DEBUG_VALUE: filtering:incBuff <- %R4
	@DEBUG_VALUE: filtering:in_read_ptr <- %R8
	@DEBUG_VALUE: filtering:outcBuff <- %R9
	.loc	9 30 5                  @ /root/Bela/projects/SOFAlizer-for-Bela/filtering.cpp:30:5
	movw	r5, :lower16:.L_MergedGlobals
	movt	r5, :upper16:.L_MergedGlobals
	ldrb	r0, [r5]
	dmb	ish
	tst	r0, #1
	bne	.LBB0_8
.Ltmp34:
@ BB#5:
	@DEBUG_VALUE: filtering:hrtfdata <- %R10
	@DEBUG_VALUE: filtering:incBuff <- %R4
	@DEBUG_VALUE: filtering:in_read_ptr <- %R8
	@DEBUG_VALUE: filtering:outcBuff <- %R9
	.loc	9 30 5 is_stmt 0 discriminator 1 @ /root/Bela/projects/SOFAlizer-for-Bela/filtering.cpp:30:5
	movw	r7, :lower16:.L_MergedGlobals
	movt	r7, :upper16:.L_MergedGlobals
	mov	r0, r7
	bl	__cxa_guard_acquire
	cmp	r0, #0
	beq	.LBB0_8
.Ltmp35:
@ BB#6:
	@DEBUG_VALUE: filtering:hrtfdata <- %R10
	@DEBUG_VALUE: filtering:incBuff <- %R4
	@DEBUG_VALUE: filtering:in_read_ptr <- %R8
	@DEBUG_VALUE: filtering:outcBuff <- %R9
	@DEBUG_VALUE: vector:__n <- 512
	@DEBUG_VALUE: _Vector_base:__n <- 512
	mov	r0, #0
.Ltmp36:
	@DEBUG_VALUE: allocate:__n <- 512
	@DEBUG_VALUE: allocate:__n <- 512
	@DEBUG_VALUE: _M_allocate:__n <- 512
	@DEBUG_VALUE: _M_create_storage:__n <- 512
	.loc	7 91 25 is_stmt 1       @ /usr/bin/../lib/gcc/arm-linux-gnueabihf/6.3.0/../../../../include/c++/6.3.0/bits/stl_vector.h:91:25
	str	r0, [r7, #8]
	.loc	7 91 37 is_stmt 0       @ /usr/bin/../lib/gcc/arm-linux-gnueabihf/6.3.0/../../../../include/c++/6.3.0/bits/stl_vector.h:91:37
	str	r0, [r7, #12]
	.loc	7 91 50                 @ /usr/bin/../lib/gcc/arm-linux-gnueabihf/6.3.0/../../../../include/c++/6.3.0/bits/stl_vector.h:91:50
	str	r0, [r7, #16]
.Ltmp37:
	.loc	3 104 27 is_stmt 1      @ /usr/bin/../lib/gcc/arm-linux-gnueabihf/6.3.0/../../../../include/c++/6.3.0/ext/new_allocator.h:104:27
.Ltmp0:
	mov	r0, #2048
	bl	_Znwj
.Ltmp1:
.Ltmp38:
@ BB#7:                                 @ %.noexc
	@DEBUG_VALUE: filtering:hrtfdata <- %R10
	@DEBUG_VALUE: filtering:incBuff <- %R4
	@DEBUG_VALUE: filtering:in_read_ptr <- %R8
	@DEBUG_VALUE: filtering:outcBuff <- %R9
	.loc	7 185 25                @ /usr/bin/../lib/gcc/arm-linux-gnueabihf/6.3.0/../../../../include/c++/6.3.0/bits/stl_vector.h:185:25
	mov	r6, r7
.Ltmp39:
	.file	38 "/usr/bin/../lib/gcc/arm-linux-gnueabihf/6.3.0/../../../../include/c++/6.3.0/bits" "stl_algobase.h"
	.loc	38 754 11               @ /usr/bin/../lib/gcc/arm-linux-gnueabihf/6.3.0/../../../../include/c++/6.3.0/bits/stl_algobase.h:754:11
	mov	r1, #0
	mov	r2, #2048
.Ltmp40:
	.loc	7 185 25                @ /usr/bin/../lib/gcc/arm-linux-gnueabihf/6.3.0/../../../../include/c++/6.3.0/bits/stl_vector.h:185:25
	str	r0, [r6, #8]!
.Ltmp41:
	@DEBUG_VALUE: _M_fill_initialize:this <- %R6
	@DEBUG_VALUE: vector:this <- %R6
	.loc	7 187 59                @ /usr/bin/../lib/gcc/arm-linux-gnueabihf/6.3.0/../../../../include/c++/6.3.0/bits/stl_vector.h:187:59
	add	r5, r0, #2048
	.loc	7 187 34 is_stmt 0      @ /usr/bin/../lib/gcc/arm-linux-gnueabihf/6.3.0/../../../../include/c++/6.3.0/bits/stl_vector.h:187:34
	str	r5, [r7, #16]
.Ltmp42:
	@DEBUG_VALUE: __niter <- 512
	@DEBUG_VALUE: __fill_n_a<float *, unsigned int, float>:__n <- 512
	@DEBUG_VALUE: fill_n<float *, unsigned int, float>:__n <- 512
	@DEBUG_VALUE: __uninit_fill_n<float *, unsigned int, float>:__n <- 512
	@DEBUG_VALUE: uninitialized_fill_n<float *, unsigned int, float>:__assignable <- 1
	@DEBUG_VALUE: uninitialized_fill_n<float *, unsigned int, float>:__n <- 512
	@DEBUG_VALUE: __uninitialized_fill_n_a<float *, unsigned int, float, float>:__n <- 512
	@DEBUG_VALUE: _M_fill_initialize:__n <- 512
	.loc	38 754 11 is_stmt 1     @ /usr/bin/../lib/gcc/arm-linux-gnueabihf/6.3.0/../../../../include/c++/6.3.0/bits/stl_algobase.h:754:11
	bl	memset
.Ltmp43:
	.loc	9 30 5 discriminator 9  @ /root/Bela/projects/SOFAlizer-for-Bela/filtering.cpp:30:5
	movw	r0, :lower16:_ZNSt6vectorIfSaIfEED2Ev
	movw	r2, :lower16:__dso_handle
	movt	r0, :upper16:_ZNSt6vectorIfSaIfEED2Ev
	movt	r2, :upper16:__dso_handle
	mov	r1, r6
.Ltmp44:
	.loc	7 1298 26               @ /usr/bin/../lib/gcc/arm-linux-gnueabihf/6.3.0/../../../../include/c++/6.3.0/bits/stl_vector.h:1298:26
	str	r5, [r7, #12]
.Ltmp45:
	.loc	9 30 5 discriminator 9  @ /root/Bela/projects/SOFAlizer-for-Bela/filtering.cpp:30:5
	bl	__cxa_atexit
	.loc	9 30 5 is_stmt 0 discriminator 10 @ /root/Bela/projects/SOFAlizer-for-Bela/filtering.cpp:30:5
	mov	r0, r7
	bl	__cxa_guard_release
	.loc	9 30 5                  @ /root/Bela/projects/SOFAlizer-for-Bela/filtering.cpp:30:5
	movw	r5, :lower16:.L_MergedGlobals
	movt	r5, :upper16:.L_MergedGlobals
.Ltmp46:
.LBB0_8:
	@DEBUG_VALUE: filtering:hrtfdata <- %R10
	@DEBUG_VALUE: filtering:incBuff <- %R4
	@DEBUG_VALUE: filtering:in_read_ptr <- %R8
	@DEBUG_VALUE: filtering:outcBuff <- %R9
	.loc	9 31 5 is_stmt 1        @ /root/Bela/projects/SOFAlizer-for-Bela/filtering.cpp:31:5
	ldrb	r0, [r5, #4]
	dmb	ish
	tst	r0, #1
	bne	.LBB0_12
.Ltmp47:
@ BB#9:
	@DEBUG_VALUE: filtering:hrtfdata <- %R10
	@DEBUG_VALUE: filtering:incBuff <- %R4
	@DEBUG_VALUE: filtering:in_read_ptr <- %R8
	@DEBUG_VALUE: filtering:outcBuff <- %R9
	.loc	9 31 5 is_stmt 0 discriminator 1 @ /root/Bela/projects/SOFAlizer-for-Bela/filtering.cpp:31:5
	add	r7, r5, #4
	mov	r0, r7
	bl	__cxa_guard_acquire
	cmp	r0, #0
	beq	.LBB0_12
.Ltmp48:
@ BB#10:
	@DEBUG_VALUE: filtering:hrtfdata <- %R10
	@DEBUG_VALUE: filtering:incBuff <- %R4
	@DEBUG_VALUE: filtering:in_read_ptr <- %R8
	@DEBUG_VALUE: filtering:outcBuff <- %R9
	@DEBUG_VALUE: vector:__n <- 512
	@DEBUG_VALUE: _Vector_base:__n <- 512
	mov	r0, #0
.Ltmp49:
	@DEBUG_VALUE: allocate:__n <- 512
	@DEBUG_VALUE: allocate:__n <- 512
	@DEBUG_VALUE: _M_allocate:__n <- 512
	@DEBUG_VALUE: _M_create_storage:__n <- 512
	.loc	7 91 25 is_stmt 1       @ /usr/bin/../lib/gcc/arm-linux-gnueabihf/6.3.0/../../../../include/c++/6.3.0/bits/stl_vector.h:91:25
	str	r0, [r5, #20]
	.loc	7 91 37 is_stmt 0       @ /usr/bin/../lib/gcc/arm-linux-gnueabihf/6.3.0/../../../../include/c++/6.3.0/bits/stl_vector.h:91:37
	str	r0, [r5, #24]
	.loc	7 91 50                 @ /usr/bin/../lib/gcc/arm-linux-gnueabihf/6.3.0/../../../../include/c++/6.3.0/bits/stl_vector.h:91:50
	str	r0, [r5, #28]
.Ltmp50:
	.loc	3 104 27 is_stmt 1      @ /usr/bin/../lib/gcc/arm-linux-gnueabihf/6.3.0/../../../../include/c++/6.3.0/ext/new_allocator.h:104:27
.Ltmp3:
	mov	r0, #2048
	bl	_Znwj
.Ltmp4:
.Ltmp51:
@ BB#11:                                @ %.noexc226
	@DEBUG_VALUE: filtering:hrtfdata <- %R10
	@DEBUG_VALUE: filtering:incBuff <- %R4
	@DEBUG_VALUE: filtering:in_read_ptr <- %R8
	@DEBUG_VALUE: filtering:outcBuff <- %R9
	.loc	9 30 5                  @ /root/Bela/projects/SOFAlizer-for-Bela/filtering.cpp:30:5
	movw	r6, :lower16:.L_MergedGlobals
.Ltmp52:
	.loc	38 754 11               @ /usr/bin/../lib/gcc/arm-linux-gnueabihf/6.3.0/../../../../include/c++/6.3.0/bits/stl_algobase.h:754:11
	mov	r1, #0
.Ltmp53:
	.loc	9 30 5                  @ /root/Bela/projects/SOFAlizer-for-Bela/filtering.cpp:30:5
	movt	r6, :upper16:.L_MergedGlobals
.Ltmp54:
	.loc	38 754 11               @ /usr/bin/../lib/gcc/arm-linux-gnueabihf/6.3.0/../../../../include/c++/6.3.0/bits/stl_algobase.h:754:11
	mov	r2, #2048
.Ltmp55:
	.loc	7 185 25                @ /usr/bin/../lib/gcc/arm-linux-gnueabihf/6.3.0/../../../../include/c++/6.3.0/bits/stl_vector.h:185:25
	str	r0, [r6, #20]!
.Ltmp56:
	@DEBUG_VALUE: _M_fill_initialize:this <- %R6
	@DEBUG_VALUE: vector:this <- %R6
	.loc	7 187 59                @ /usr/bin/../lib/gcc/arm-linux-gnueabihf/6.3.0/../../../../include/c++/6.3.0/bits/stl_vector.h:187:59
	add	r5, r0, #2048
	.loc	7 187 34 is_stmt 0      @ /usr/bin/../lib/gcc/arm-linux-gnueabihf/6.3.0/../../../../include/c++/6.3.0/bits/stl_vector.h:187:34
	str	r5, [r6, #8]
.Ltmp57:
	@DEBUG_VALUE: __niter <- 512
	@DEBUG_VALUE: __fill_n_a<float *, unsigned int, float>:__n <- 512
	@DEBUG_VALUE: fill_n<float *, unsigned int, float>:__n <- 512
	@DEBUG_VALUE: __uninit_fill_n<float *, unsigned int, float>:__n <- 512
	@DEBUG_VALUE: uninitialized_fill_n<float *, unsigned int, float>:__assignable <- 1
	@DEBUG_VALUE: uninitialized_fill_n<float *, unsigned int, float>:__n <- 512
	@DEBUG_VALUE: __uninitialized_fill_n_a<float *, unsigned int, float, float>:__n <- 512
	@DEBUG_VALUE: _M_fill_initialize:__n <- 512
	.loc	38 754 11 is_stmt 1     @ /usr/bin/../lib/gcc/arm-linux-gnueabihf/6.3.0/../../../../include/c++/6.3.0/bits/stl_algobase.h:754:11
	bl	memset
.Ltmp58:
	.loc	9 31 5 discriminator 9  @ /root/Bela/projects/SOFAlizer-for-Bela/filtering.cpp:31:5
	movw	r0, :lower16:_ZNSt6vectorIfSaIfEED2Ev
	movw	r2, :lower16:__dso_handle
	movt	r0, :upper16:_ZNSt6vectorIfSaIfEED2Ev
	movt	r2, :upper16:__dso_handle
	mov	r1, r6
.Ltmp59:
	.loc	7 1298 26               @ /usr/bin/../lib/gcc/arm-linux-gnueabihf/6.3.0/../../../../include/c++/6.3.0/bits/stl_vector.h:1298:26
	str	r5, [r6, #4]
.Ltmp60:
	.loc	9 31 5 discriminator 9  @ /root/Bela/projects/SOFAlizer-for-Bela/filtering.cpp:31:5
	bl	__cxa_atexit
	.loc	9 31 5 is_stmt 0 discriminator 10 @ /root/Bela/projects/SOFAlizer-for-Bela/filtering.cpp:31:5
	sub	r0, r6, #16
	.loc	9 30 5 is_stmt 1        @ /root/Bela/projects/SOFAlizer-for-Bela/filtering.cpp:30:5
	movw	r5, :lower16:.L_MergedGlobals
	movt	r5, :upper16:.L_MergedGlobals
	.loc	9 31 5 discriminator 10 @ /root/Bela/projects/SOFAlizer-for-Bela/filtering.cpp:31:5
	bl	__cxa_guard_release
.Ltmp61:
.LBB0_12:                               @ %.preheader243
	@DEBUG_VALUE: filtering:hrtfdata <- %R10
	@DEBUG_VALUE: filtering:incBuff <- %R4
	@DEBUG_VALUE: filtering:in_read_ptr <- %R8
	@DEBUG_VALUE: filtering:outcBuff <- %R9
	@DEBUG_VALUE: filtering:out_write_ptr <- undef
	.loc	7 796 32                @ /usr/bin/../lib/gcc/arm-linux-gnueabihf/6.3.0/../../../../include/c++/6.3.0/bits/stl_vector.h:796:32
	ldr	r0, [r4]
.Ltmp62:
	.loc	9 37 5 discriminator 1  @ /root/Bela/projects/SOFAlizer-for-Bela/filtering.cpp:37:5
	add	r2, r8, #768
.Ltmp63:
	.loc	7 796 32                @ /usr/bin/../lib/gcc/arm-linux-gnueabihf/6.3.0/../../../../include/c++/6.3.0/bits/stl_vector.h:796:32
	ldr	r1, [r4, #12]
	mov	r6, #0
.Ltmp64:
	.loc	7 781 32                @ /usr/bin/../lib/gcc/arm-linux-gnueabihf/6.3.0/../../../../include/c++/6.3.0/bits/stl_vector.h:781:32
	ldr	r3, [r5, #8]
.Ltmp65:
	.loc	7 781 32 is_stmt 0      @ /usr/bin/../lib/gcc/arm-linux-gnueabihf/6.3.0/../../../../include/c++/6.3.0/bits/stl_vector.h:781:32
	ldr	r7, [r5, #20]
.Ltmp66:
.LBB0_13:                               @ =>This Inner Loop Header: Depth=1
	.loc	9 38 60 is_stmt 1       @ /root/Bela/projects/SOFAlizer-for-Bela/filtering.cpp:38:60
	add	r5, r2, r6
.Ltmp67:
	@DEBUG_VALUE: operator[]:__n <- %R6
	bfc	r5, #10, #22
.Ltmp68:
	@DEBUG_VALUE: operator[]:__n <- %R5
	@DEBUG_VALUE: in_buff_idx <- %R5
	@DEBUG_VALUE: operator[]:__n <- %R5
	.loc	9 39 32                 @ /root/Bela/projects/SOFAlizer-for-Bela/filtering.cpp:39:32
	ldr	r4, [r0, r5, lsl #2]
	.loc	9 39 30 is_stmt 0       @ /root/Bela/projects/SOFAlizer-for-Bela/filtering.cpp:39:30
	str	r4, [r3, r6, lsl #2]
	.loc	9 40 33 is_stmt 1       @ /root/Bela/projects/SOFAlizer-for-Bela/filtering.cpp:40:33
	ldr	r5, [r1, r5, lsl #2]
.Ltmp69:
	.loc	9 40 31 is_stmt 0       @ /root/Bela/projects/SOFAlizer-for-Bela/filtering.cpp:40:31
	str	r5, [r7, r6, lsl #2]
.Ltmp70:
	.loc	9 37 42 is_stmt 1 discriminator 3 @ /root/Bela/projects/SOFAlizer-for-Bela/filtering.cpp:37:42
	add	r6, r6, #1
.Ltmp71:
	@DEBUG_VALUE: i <- %R6
	.loc	9 37 5 is_stmt 0 discriminator 1 @ /root/Bela/projects/SOFAlizer-for-Bela/filtering.cpp:37:5
	cmp	r6, #256
	bne	.LBB0_13
.Ltmp72:
@ BB#14:
	@DEBUG_VALUE: i <- %R6
	.loc	9 30 5 is_stmt 1        @ /root/Bela/projects/SOFAlizer-for-Bela/filtering.cpp:30:5
	movw	r0, :lower16:.L_MergedGlobals
	.loc	9 44 15                 @ /root/Bela/projects/SOFAlizer-for-Bela/filtering.cpp:44:15
	movw	r8, :lower16:chInL_FFT
	.loc	9 30 5                  @ /root/Bela/projects/SOFAlizer-for-Bela/filtering.cpp:30:5
	movt	r0, :upper16:.L_MergedGlobals
	.loc	9 44 15                 @ /root/Bela/projects/SOFAlizer-for-Bela/filtering.cpp:44:15
	movt	r8, :upper16:chInL_FFT
	mov	r4, r0
	add	r1, r4, #8
.Ltmp73:
	@DEBUG_VALUE: operator[]:this <- %R1
	mov	r0, r8
	bl	_ZN3Fft3fftERKSt6vectorIfSaIfEE
.Ltmp74:
	.loc	9 45 15                 @ /root/Bela/projects/SOFAlizer-for-Bela/filtering.cpp:45:15
	movw	r0, :lower16:chInR_FFT
	add	r1, r4, #20
.Ltmp75:
	@DEBUG_VALUE: operator[]:this <- %R1
	movt	r0, :upper16:chInR_FFT
	bl	_ZN3Fft3fftERKSt6vectorIfSaIfEE
.Ltmp76:
	ldr	r6, [sp, #16]           @ 4-byte Reload
.Ltmp77:
	.loc	10 747 7                @ /usr/bin/../lib/gcc/arm-linux-gnueabihf/6.3.0/../../../../include/arm-linux-gnueabihf/c++/6.3.0/bits/gthr-default.h:747:7
	movw	r7, :lower16:__pthread_key_create
	movt	r7, :upper16:__pthread_key_create
.Ltmp78:
	.loc	10 747 7 is_stmt 0      @ /usr/bin/../lib/gcc/arm-linux-gnueabihf/6.3.0/../../../../include/arm-linux-gnueabihf/c++/6.3.0/bits/gthr-default.h:747:7
	cmp	r7, #0
	beq	.LBB0_16
@ BB#15:                                @ %_ZL20__gthread_mutex_lockP15pthread_mutex_t.exit.i228
.Ltmp79:
	.loc	10 748 12 is_stmt 1     @ /usr/bin/../lib/gcc/arm-linux-gnueabihf/6.3.0/../../../../include/arm-linux-gnueabihf/c++/6.3.0/bits/gthr-default.h:748:12
	movw	r0, :lower16:m_left_pos
	movt	r0, :upper16:m_left_pos
.Ltmp80:
	@DEBUG_VALUE: lock:this <- %R0
	bl	pthread_mutex_lock
.Ltmp81:
	@DEBUG_VALUE: lock:__e <- %R0
	.loc	37 106 11               @ /usr/bin/../lib/gcc/arm-linux-gnueabihf/6.3.0/../../../../include/c++/6.3.0/bits/std_mutex.h:106:11
	cmp	r0, #0
	bne	.LBB0_29
.Ltmp82:
.LBB0_16:                               @ %_ZNSt5mutex4lockEv.exit229
	@DEBUG_VALUE: operator[]:this <- %R10
	.loc	9 53 51                 @ /root/Bela/projects/SOFAlizer-for-Bela/filtering.cpp:53:51
	mov	r0, #164
.Ltmp83:
	.loc	7 781 32                @ /usr/bin/../lib/gcc/arm-linux-gnueabihf/6.3.0/../../../../include/c++/6.3.0/bits/stl_vector.h:781:32
	ldr	r1, [r10]
.Ltmp84:
	.loc	9 53 51                 @ /root/Bela/projects/SOFAlizer-for-Bela/filtering.cpp:53:51
	mla	r0, r6, r0, r1
	.loc	9 53 29 is_stmt 0       @ /root/Bela/projects/SOFAlizer-for-Bela/filtering.cpp:53:29
	movw	r5, :lower16:leftPosition
	movt	r5, :upper16:leftPosition
.Ltmp85:
	@DEBUG_VALUE: s2c:this <- %R5
	add	r1, sp, #40
	.loc	9 53 51                 @ /root/Bela/projects/SOFAlizer-for-Bela/filtering.cpp:53:51
	ldr	r4, [r0, #112]
	add	r0, sp, #44
	.loc	9 53 29                 @ /root/Bela/projects/SOFAlizer-for-Bela/filtering.cpp:53:29
	str	r4, [r5, #12]
.Ltmp86:
	.file	39 "/root/Bela/projects/SOFAlizer-for-Bela" "position.h"
	.loc	39 22 29 is_stmt 1      @ /root/Bela/projects/SOFAlizer-for-Bela/position.h:22:29
	vldr	s0, [r5, #20]
	.loc	39 22 47 is_stmt 0      @ /root/Bela/projects/SOFAlizer-for-Bela/position.h:22:47
	vldr	s18, [r5, #24]
	.loc	39 23 22 is_stmt 1      @ /root/Bela/projects/SOFAlizer-for-Bela/position.h:23:22
	vldr	s16, [r5, #16]
	.loc	39 22 45                @ /root/Bela/projects/SOFAlizer-for-Bela/position.h:22:45
	vmul.f32	d0, d9, d0
	.loc	39 22 24 is_stmt 0 discriminator 1 @ /root/Bela/projects/SOFAlizer-for-Bela/position.h:22:24
                                        @ kill: %S0<def> %S0<kill> %D0<kill>
	bl	sincosf
	.loc	39 23 30 is_stmt 1      @ /root/Bela/projects/SOFAlizer-for-Bela/position.h:23:30
	vmul.f32	d0, d8, d9
	add	r0, sp, #52
	add	r1, sp, #48
	.loc	39 23 17 is_stmt 0      @ /root/Bela/projects/SOFAlizer-for-Bela/position.h:23:17
                                        @ kill: %S0<def> %S0<kill> %D0<kill>
	bl	sincosf
	.loc	39 22 58 is_stmt 1      @ /root/Bela/projects/SOFAlizer-for-Bela/position.h:22:58
	vmov	d16, r4, r4
	.loc	39 22 24 is_stmt 0 discriminator 1 @ /root/Bela/projects/SOFAlizer-for-Bela/position.h:22:24
	vldr	s2, [sp, #40]
	vldr	s4, [sp, #44]
.Ltmp87:
	.loc	10 777 7 is_stmt 1      @ /usr/bin/../lib/gcc/arm-linux-gnueabihf/6.3.0/../../../../include/arm-linux-gnueabihf/c++/6.3.0/bits/gthr-default.h:777:7
	cmp	r7, #0
.Ltmp88:
	.loc	39 22 56                @ /root/Bela/projects/SOFAlizer-for-Bela/position.h:22:56
	vmul.f32	d17, d1, d16
	.loc	39 23 17                @ /root/Bela/projects/SOFAlizer-for-Bela/position.h:23:17
	vldr	s0, [sp, #52]
	vldr	s2, [sp, #48]
	.loc	39 25 49                @ /root/Bela/projects/SOFAlizer-for-Bela/position.h:25:49
	vmul.f32	d2, d2, d16
.Ltmp89:
	@DEBUG_VALUE: s2c:cr <- undef
	.loc	39 23 41                @ /root/Bela/projects/SOFAlizer-for-Bela/position.h:23:41
	vmul.f32	d1, d1, d17
	.loc	39 24 41                @ /root/Bela/projects/SOFAlizer-for-Bela/position.h:24:41
	vmul.f32	d0, d0, d17
	.loc	39 23 15                @ /root/Bela/projects/SOFAlizer-for-Bela/position.h:23:15
	vstr	s2, [r5]
	.loc	39 24 15                @ /root/Bela/projects/SOFAlizer-for-Bela/position.h:24:15
	vstr	s0, [r5, #4]
.Ltmp90:
	.loc	9 57 30                 @ /root/Bela/projects/SOFAlizer-for-Bela/filtering.cpp:57:30
	vstr	s2, [r11, #-60]
	.loc	9 58 30                 @ /root/Bela/projects/SOFAlizer-for-Bela/filtering.cpp:58:30
	vstr	s0, [r11, #-56]
.Ltmp91:
	.loc	39 25 15                @ /root/Bela/projects/SOFAlizer-for-Bela/position.h:25:15
	vstr	s4, [r5, #8]
.Ltmp92:
	.loc	9 59 30                 @ /root/Bela/projects/SOFAlizer-for-Bela/filtering.cpp:59:30
	vstr	s4, [r11, #-52]
	beq	.LBB0_19
.Ltmp93:
@ BB#17:                                @ %_ZNSt5mutex6unlockEv.exit230
	@DEBUG_VALUE: s2c:this <- %R5
	@DEBUG_VALUE: operator[]:this <- %R10
	.loc	10 778 12               @ /usr/bin/../lib/gcc/arm-linux-gnueabihf/6.3.0/../../../../include/arm-linux-gnueabihf/c++/6.3.0/bits/gthr-default.h:778:12
	movw	r0, :lower16:m_left_pos
	movt	r0, :upper16:m_left_pos
.Ltmp94:
	@DEBUG_VALUE: unlock:this <- %R0
	bl	pthread_mutex_unlock
.Ltmp95:
	.loc	10 748 12               @ /usr/bin/../lib/gcc/arm-linux-gnueabihf/6.3.0/../../../../include/arm-linux-gnueabihf/c++/6.3.0/bits/gthr-default.h:748:12
	movw	r0, :lower16:m_right_pos
	movt	r0, :upper16:m_right_pos
.Ltmp96:
	@DEBUG_VALUE: lock:this <- %R0
	bl	pthread_mutex_lock
.Ltmp97:
	@DEBUG_VALUE: lock:__e <- %R0
	.loc	37 106 11               @ /usr/bin/../lib/gcc/arm-linux-gnueabihf/6.3.0/../../../../include/c++/6.3.0/bits/std_mutex.h:106:11
	cmp	r0, #0
	bne	.LBB0_29
.Ltmp98:
@ BB#18:                                @ %_ZNSt5mutex6unlockEv.exit230._ZNSt5mutex4lockEv.exit232_crit_edge
	@DEBUG_VALUE: lock:__e <- %R0
	@DEBUG_VALUE: s2c:this <- %R5
	@DEBUG_VALUE: operator[]:this <- %R10
	.loc	9 66 44                 @ /root/Bela/projects/SOFAlizer-for-Bela/filtering.cpp:66:44
	ldr	r4, [r5, #12]
.Ltmp99:
.LBB0_19:                               @ %_ZNSt5mutex4lockEv.exit232
	@DEBUG_VALUE: s2c:this <- %R5
	@DEBUG_VALUE: operator[]:this <- %R10
	.loc	9 66 29 is_stmt 0       @ /root/Bela/projects/SOFAlizer-for-Bela/filtering.cpp:66:29
	movw	r5, :lower16:righPosition
.Ltmp100:
	add	r0, sp, #28
	movt	r5, :upper16:righPosition
.Ltmp101:
	@DEBUG_VALUE: s2c:this <- %R5
	add	r1, sp, #24
	str	r4, [r5, #12]
.Ltmp102:
	.loc	39 22 29 is_stmt 1      @ /root/Bela/projects/SOFAlizer-for-Bela/position.h:22:29
	vldr	s0, [r5, #20]
	.loc	39 22 47 is_stmt 0      @ /root/Bela/projects/SOFAlizer-for-Bela/position.h:22:47
	vldr	s18, [r5, #24]
	str	r9, [sp, #4]            @ 4-byte Spill
	.loc	39 22 45                @ /root/Bela/projects/SOFAlizer-for-Bela/position.h:22:45
	vmul.f32	d0, d9, d0
	.loc	39 23 22 is_stmt 1      @ /root/Bela/projects/SOFAlizer-for-Bela/position.h:23:22
	vldr	s16, [r5, #16]
	.loc	39 22 24 discriminator 1 @ /root/Bela/projects/SOFAlizer-for-Bela/position.h:22:24
                                        @ kill: %S0<def> %S0<kill> %D0<kill>
	bl	sincosf
	.loc	39 23 30                @ /root/Bela/projects/SOFAlizer-for-Bela/position.h:23:30
	vmul.f32	d0, d8, d9
	add	r0, sp, #36
	add	r1, sp, #32
	.loc	39 23 17 is_stmt 0      @ /root/Bela/projects/SOFAlizer-for-Bela/position.h:23:17
                                        @ kill: %S0<def> %S0<kill> %D0<kill>
	bl	sincosf
	.loc	39 22 58 is_stmt 1      @ /root/Bela/projects/SOFAlizer-for-Bela/position.h:22:58
	vmov	d16, r4, r4
	.loc	39 22 24 is_stmt 0 discriminator 1 @ /root/Bela/projects/SOFAlizer-for-Bela/position.h:22:24
	vldr	s2, [sp, #24]
	vldr	s4, [sp, #28]
.Ltmp103:
	.loc	10 777 7 is_stmt 1      @ /usr/bin/../lib/gcc/arm-linux-gnueabihf/6.3.0/../../../../include/arm-linux-gnueabihf/c++/6.3.0/bits/gthr-default.h:777:7
	cmp	r7, #0
.Ltmp104:
	.loc	39 22 56                @ /root/Bela/projects/SOFAlizer-for-Bela/position.h:22:56
	vmul.f32	d17, d1, d16
	.loc	39 23 17                @ /root/Bela/projects/SOFAlizer-for-Bela/position.h:23:17
	vldr	s0, [sp, #36]
	vldr	s2, [sp, #32]
	.loc	39 25 49                @ /root/Bela/projects/SOFAlizer-for-Bela/position.h:25:49
	vmul.f32	d2, d2, d16
.Ltmp105:
	@DEBUG_VALUE: s2c:cr <- undef
	.loc	39 23 41                @ /root/Bela/projects/SOFAlizer-for-Bela/position.h:23:41
	vmul.f32	d1, d1, d17
	.loc	39 24 41                @ /root/Bela/projects/SOFAlizer-for-Bela/position.h:24:41
	vmul.f32	d0, d0, d17
	.loc	39 23 15                @ /root/Bela/projects/SOFAlizer-for-Bela/position.h:23:15
	vstr	s2, [r5]
	.loc	39 24 15                @ /root/Bela/projects/SOFAlizer-for-Bela/position.h:24:15
	vstr	s0, [r5, #4]
.Ltmp106:
	.loc	9 70 30                 @ /root/Bela/projects/SOFAlizer-for-Bela/filtering.cpp:70:30
	vstr	s2, [r11, #-72]
	.loc	9 71 30                 @ /root/Bela/projects/SOFAlizer-for-Bela/filtering.cpp:71:30
	vstr	s0, [r11, #-68]
.Ltmp107:
	.loc	39 25 15                @ /root/Bela/projects/SOFAlizer-for-Bela/position.h:25:15
	vstr	s4, [r5, #8]
.Ltmp108:
	.loc	9 72 30                 @ /root/Bela/projects/SOFAlizer-for-Bela/filtering.cpp:72:30
	vstr	s4, [r11, #-64]
	beq	.LBB0_21
.Ltmp109:
@ BB#20:
	@DEBUG_VALUE: s2c:this <- %R5
	@DEBUG_VALUE: operator[]:this <- %R10
	.loc	10 778 12               @ /usr/bin/../lib/gcc/arm-linux-gnueabihf/6.3.0/../../../../include/arm-linux-gnueabihf/c++/6.3.0/bits/gthr-default.h:778:12
	movw	r0, :lower16:m_right_pos
	movt	r0, :upper16:m_right_pos
.Ltmp110:
	@DEBUG_VALUE: unlock:this <- %R0
	bl	pthread_mutex_unlock
.Ltmp111:
.LBB0_21:                               @ %_ZNSt5mutex6unlockEv.exit222
	@DEBUG_VALUE: s2c:this <- %R5
	@DEBUG_VALUE: operator[]:this <- %R10
	mov	r4, #164
.Ltmp112:
	.loc	7 781 32                @ /usr/bin/../lib/gcc/arm-linux-gnueabihf/6.3.0/../../../../include/c++/6.3.0/bits/stl_vector.h:781:32
	ldr	r0, [r10]
.Ltmp113:
	.loc	9 83 54                 @ /root/Bela/projects/SOFAlizer-for-Bela/filtering.cpp:83:54
	mla	r0, r6, r4, r0
	sub	r1, r11, #60
	ldr	r0, [r0, #104]
	.loc	9 83 20 is_stmt 0 discriminator 1 @ /root/Bela/projects/SOFAlizer-for-Bela/filtering.cpp:83:20
	bl	mysofa_lookup
	str	r0, [sp, #12]           @ 4-byte Spill
.Ltmp114:
	@DEBUG_VALUE: filtering:nearestChInL <- [%SP+12]
	sub	r1, r11, #72
.Ltmp115:
	.loc	7 781 32 is_stmt 1      @ /usr/bin/../lib/gcc/arm-linux-gnueabihf/6.3.0/../../../../include/c++/6.3.0/bits/stl_vector.h:781:32
	ldr	r0, [r10]
.Ltmp116:
	.loc	9 84 54                 @ /root/Bela/projects/SOFAlizer-for-Bela/filtering.cpp:84:54
	mla	r0, r6, r4, r0
	ldr	r0, [r0, #104]
	.loc	9 84 20 is_stmt 0 discriminator 1 @ /root/Bela/projects/SOFAlizer-for-Bela/filtering.cpp:84:20
	bl	mysofa_lookup
.Ltmp117:
	str	r0, [sp, #8]            @ 4-byte Spill
.Ltmp118:
	@DEBUG_VALUE: i <- 0
	@DEBUG_VALUE: filtering:cnt <- 0
	@DEBUG_VALUE: filtering:nearestChInR <- [%SP+8]
	.file	40 "/root/Bela/projects/SOFAlizer-for-Bela" "fft.h"
	.loc	40 50 38 is_stmt 1      @ /root/Bela/projects/SOFAlizer-for-Bela/fft.h:50:38
	movw	r0, :lower16:outRightFFT
.Ltmp119:
	.loc	7 781 32                @ /usr/bin/../lib/gcc/arm-linux-gnueabihf/6.3.0/../../../../include/c++/6.3.0/bits/stl_vector.h:781:32
	ldr	r1, [r10]
.Ltmp120:
	.loc	40 50 38                @ /root/Bela/projects/SOFAlizer-for-Bela/fft.h:50:38
	movt	r0, :upper16:outRightFFT
.Ltmp121:
	.loc	9 137 116               @ /root/Bela/projects/SOFAlizer-for-Bela/filtering.cpp:137:116
	mla	r1, r6, r4, r1
.Ltmp122:
	.loc	40 50 38                @ /root/Bela/projects/SOFAlizer-for-Bela/fft.h:50:38
	ldr	r6, [r0, #4]
.Ltmp123:
	.loc	40 50 38 is_stmt 0      @ /root/Bela/projects/SOFAlizer-for-Bela/fft.h:50:38
	movw	r0, :lower16:outLeftFFT
	movt	r0, :upper16:outLeftFFT
	mov	r3, #0
	ldr	r5, [r0, #4]
.Ltmp124:
	.loc	9 124 118 is_stmt 1     @ /root/Bela/projects/SOFAlizer-for-Bela/filtering.cpp:124:118
	mov	r2, #0
.Ltmp125:
	.loc	9 123 118               @ /root/Bela/projects/SOFAlizer-for-Bela/filtering.cpp:123:118
	ldr	r12, [r1, #144]
.Ltmp126:
	.loc	9 124 118               @ /root/Bela/projects/SOFAlizer-for-Bela/filtering.cpp:124:118
	ldr	lr, [r1, #148]
.Ltmp127:
	.loc	9 137 116               @ /root/Bela/projects/SOFAlizer-for-Bela/filtering.cpp:137:116
	ldr	r4, [r1, #152]
.Ltmp128:
	.loc	9 138 116               @ /root/Bela/projects/SOFAlizer-for-Bela/filtering.cpp:138:116
	ldr	r9, [r1, #156]
.Ltmp129:
.LBB0_22:                               @ =>This Inner Loop Header: Depth=1
	.loc	40 46 44                @ /root/Bela/projects/SOFAlizer-for-Bela/fft.h:46:44
	str	r6, [sp, #20]           @ 4-byte Spill
	mov	r0, r8
	ldr	r6, [r8, #4]
	mov	r8, r10
	mov	r7, r4
.Ltmp130:
	.loc	9 109 40                @ /root/Bela/projects/SOFAlizer-for-Bela/filtering.cpp:109:40
	add	r1, r6, r3, lsl #2
	.loc	9 108 40                @ /root/Bela/projects/SOFAlizer-for-Bela/filtering.cpp:108:40
	ldr	r10, [r6, r2]!
	.loc	9 108 18 is_stmt 0      @ /root/Bela/projects/SOFAlizer-for-Bela/filtering.cpp:108:18
	str	r10, [r11, #-88]
	.loc	9 109 40 is_stmt 1      @ /root/Bela/projects/SOFAlizer-for-Bela/filtering.cpp:109:40
	ldr	r4, [r1, #4]
	.loc	9 109 18 is_stmt 0      @ /root/Bela/projects/SOFAlizer-for-Bela/filtering.cpp:109:18
	str	r4, [r11, #-84]
	.loc	9 110 42 is_stmt 1      @ /root/Bela/projects/SOFAlizer-for-Bela/filtering.cpp:110:42
	ldr	r1, [r1, #8]
	.loc	9 110 18 is_stmt 0      @ /root/Bela/projects/SOFAlizer-for-Bela/filtering.cpp:110:18
	str	r1, [r11, #-80]
	.loc	9 111 42 is_stmt 1      @ /root/Bela/projects/SOFAlizer-for-Bela/filtering.cpp:111:42
	ldr	r6, [r6, #12]
	.loc	9 113 18                @ /root/Bela/projects/SOFAlizer-for-Bela/filtering.cpp:113:18
	str	r4, [sp, #88]
	.loc	9 114 18                @ /root/Bela/projects/SOFAlizer-for-Bela/filtering.cpp:114:18
	str	r10, [sp, #92]
	mov	r10, r8
	mov	r8, r0
	ldr	r0, [sp, #12]           @ 4-byte Reload
	.loc	9 115 18                @ /root/Bela/projects/SOFAlizer-for-Bela/filtering.cpp:115:18
	str	r6, [sp, #96]
	.loc	9 111 18                @ /root/Bela/projects/SOFAlizer-for-Bela/filtering.cpp:111:18
	str	r6, [r11, #-76]
	sub	r6, r11, #88
	.loc	9 116 18                @ /root/Bela/projects/SOFAlizer-for-Bela/filtering.cpp:116:18
	str	r1, [sp, #100]
.Ltmp131:
	.loc	9 123 98                @ /root/Bela/projects/SOFAlizer-for-Bela/filtering.cpp:123:98
	ldr	r1, [r12, r0, lsl #2]
.Ltmp132:
	.loc	9 124 98                @ /root/Bela/projects/SOFAlizer-for-Bela/filtering.cpp:124:98
	ldr	r4, [lr, r0, lsl #2]
.Ltmp133:
	.loc	9 119 72 discriminator 1 @ /root/Bela/projects/SOFAlizer-for-Bela/filtering.cpp:119:72
	vld1.32	{d16, d17}, [r6]
.Ltmp134:
	@DEBUG_VALUE: filtering:L1 <- %Q8
	@DEBUG_VALUE: __ret <- %Q8
	add	r6, sp, #88
.Ltmp135:
	.loc	9 124 98                @ /root/Bela/projects/SOFAlizer-for-Bela/filtering.cpp:124:98
	ldr	r4, [r4, r3]
.Ltmp136:
	.loc	9 123 98                @ /root/Bela/projects/SOFAlizer-for-Bela/filtering.cpp:123:98
	ldr	r1, [r1, r3]
.Ltmp137:
	.loc	9 120 72 discriminator 1 @ /root/Bela/projects/SOFAlizer-for-Bela/filtering.cpp:120:72
	vld1.32	{d18, d19}, [r6]
.Ltmp138:
	@DEBUG_VALUE: filtering:L2 <- %Q9
	@DEBUG_VALUE: __ret <- %Q9
	.loc	9 123 75 discriminator 2 @ /root/Bela/projects/SOFAlizer-for-Bela/filtering.cpp:123:75
	vld1.32	{d20, d21}, [r1]
.Ltmp139:
	@DEBUG_VALUE: filtering:Hreal <- %Q10
	@DEBUG_VALUE: __ret <- %Q10
	.loc	9 131 29                @ /root/Bela/projects/SOFAlizer-for-Bela/filtering.cpp:131:29
	add	r1, r5, r2
	.loc	9 127 13                @ /root/Bela/projects/SOFAlizer-for-Bela/filtering.cpp:127:13
	vmul.f32	q10, q10, q8
.Ltmp140:
	@DEBUG_VALUE: filtering:C <- %Q10
	.loc	9 124 75 discriminator 2 @ /root/Bela/projects/SOFAlizer-for-Bela/filtering.cpp:124:75
	vld1.32	{d22, d23}, [r4]
.Ltmp141:
	@DEBUG_VALUE: filtering:Himag <- %Q11
	@DEBUG_VALUE: __ret <- %Q11
	.loc	9 128 13                @ /root/Bela/projects/SOFAlizer-for-Bela/filtering.cpp:128:13
	vmul.f32	q11, q11, q9
.Ltmp142:
	vadd.f32	q10, q11, q10
.Ltmp143:
	.loc	9 131 29                @ /root/Bela/projects/SOFAlizer-for-Bela/filtering.cpp:131:29
	vst1.32	{d20, d21}, [r1]
.Ltmp144:
	.loc	9 137 96                @ /root/Bela/projects/SOFAlizer-for-Bela/filtering.cpp:137:96
	ldr	r1, [r7, r0, lsl #2]
.Ltmp145:
	.loc	9 138 96                @ /root/Bela/projects/SOFAlizer-for-Bela/filtering.cpp:138:96
	ldr	r7, [r9, r0, lsl #2]
.Ltmp146:
	.loc	9 145 30                @ /root/Bela/projects/SOFAlizer-for-Bela/filtering.cpp:145:30
	ldr	r0, [sp, #20]           @ 4-byte Reload
.Ltmp147:
	.loc	9 137 96                @ /root/Bela/projects/SOFAlizer-for-Bela/filtering.cpp:137:96
	ldr	r1, [r1, r3]
.Ltmp148:
	.loc	9 138 96                @ /root/Bela/projects/SOFAlizer-for-Bela/filtering.cpp:138:96
	ldr	r7, [r7, r3]
.Ltmp149:
	.loc	9 137 73 discriminator 2 @ /root/Bela/projects/SOFAlizer-for-Bela/filtering.cpp:137:73
	vld1.32	{d20, d21}, [r1]
.Ltmp150:
	@DEBUG_VALUE: __ret <- %Q10
	@DEBUG_VALUE: filtering:Hreal <- %Q10
	.loc	9 141 13                @ /root/Bela/projects/SOFAlizer-for-Bela/filtering.cpp:141:13
	vmul.f32	q8, q10, q8
.Ltmp151:
	@DEBUG_VALUE: filtering:C <- %Q8
	.loc	9 145 30                @ /root/Bela/projects/SOFAlizer-for-Bela/filtering.cpp:145:30
	add	r1, r0, r2
.Ltmp152:
	.loc	9 138 73 discriminator 2 @ /root/Bela/projects/SOFAlizer-for-Bela/filtering.cpp:138:73
	vld1.32	{d22, d23}, [r7]
.Ltmp153:
	@DEBUG_VALUE: __ret <- %Q11
	@DEBUG_VALUE: filtering:Himag <- %Q11
	.loc	9 45 15                 @ /root/Bela/projects/SOFAlizer-for-Bela/filtering.cpp:45:15
	movw	r0, :lower16:chInR_FFT
.Ltmp154:
	.loc	9 142 13                @ /root/Bela/projects/SOFAlizer-for-Bela/filtering.cpp:142:13
	vmul.f32	q9, q11, q9
.Ltmp155:
	.loc	9 45 15                 @ /root/Bela/projects/SOFAlizer-for-Bela/filtering.cpp:45:15
	movt	r0, :upper16:chInR_FFT
.Ltmp156:
	.loc	9 142 13                @ /root/Bela/projects/SOFAlizer-for-Bela/filtering.cpp:142:13
	vadd.f32	q8, q9, q8
.Ltmp157:
	.loc	9 145 30                @ /root/Bela/projects/SOFAlizer-for-Bela/filtering.cpp:145:30
	vst1.32	{d16, d17}, [r1]
.Ltmp158:
	.loc	40 46 44                @ /root/Bela/projects/SOFAlizer-for-Bela/fft.h:46:44
	ldr	r1, [r0, #4]
.Ltmp159:
	.loc	9 152 41                @ /root/Bela/projects/SOFAlizer-for-Bela/filtering.cpp:152:41
	add	r7, r1, r3, lsl #2
	.loc	9 151 41                @ /root/Bela/projects/SOFAlizer-for-Bela/filtering.cpp:151:41
	ldr	r6, [r1, r2]!
	.loc	9 151 19 is_stmt 0      @ /root/Bela/projects/SOFAlizer-for-Bela/filtering.cpp:151:19
	str	r6, [sp, #72]
	.loc	9 152 41 is_stmt 1      @ /root/Bela/projects/SOFAlizer-for-Bela/filtering.cpp:152:41
	ldr	r5, [r7, #4]
	.loc	9 152 19 is_stmt 0      @ /root/Bela/projects/SOFAlizer-for-Bela/filtering.cpp:152:19
	str	r5, [sp, #76]
	.loc	9 153 43 is_stmt 1      @ /root/Bela/projects/SOFAlizer-for-Bela/filtering.cpp:153:43
	ldr	r7, [r7, #8]
	.loc	9 153 19 is_stmt 0      @ /root/Bela/projects/SOFAlizer-for-Bela/filtering.cpp:153:19
	str	r7, [sp, #80]
	.loc	9 154 43 is_stmt 1      @ /root/Bela/projects/SOFAlizer-for-Bela/filtering.cpp:154:43
	ldr	r1, [r1, #12]
.Ltmp160:
	.loc	9 166 118               @ /root/Bela/projects/SOFAlizer-for-Bela/filtering.cpp:166:118
	ldr	r0, [sp, #16]           @ 4-byte Reload
.Ltmp161:
	.loc	9 156 19                @ /root/Bela/projects/SOFAlizer-for-Bela/filtering.cpp:156:19
	str	r5, [sp, #56]
	add	r5, sp, #72
	.loc	9 154 19                @ /root/Bela/projects/SOFAlizer-for-Bela/filtering.cpp:154:19
	str	r1, [sp, #84]
	.loc	9 157 19                @ /root/Bela/projects/SOFAlizer-for-Bela/filtering.cpp:157:19
	str	r6, [sp, #60]
	.loc	9 158 19                @ /root/Bela/projects/SOFAlizer-for-Bela/filtering.cpp:158:19
	str	r1, [sp, #64]
	.loc	9 159 19                @ /root/Bela/projects/SOFAlizer-for-Bela/filtering.cpp:159:19
	str	r7, [sp, #68]
.Ltmp162:
	@DEBUG_VALUE: operator[]:this <- %R10
	mov	r7, #164
.Ltmp163:
	.loc	7 781 32                @ /usr/bin/../lib/gcc/arm-linux-gnueabihf/6.3.0/../../../../include/c++/6.3.0/bits/stl_vector.h:781:32
	ldr	r1, [r10]
.Ltmp164:
	.loc	9 166 118               @ /root/Bela/projects/SOFAlizer-for-Bela/filtering.cpp:166:118
	mla	r1, r0, r7, r1
	ldr	r0, [sp, #8]            @ 4-byte Reload
.Ltmp165:
	.loc	9 162 72 discriminator 1 @ /root/Bela/projects/SOFAlizer-for-Bela/filtering.cpp:162:72
	vld1.32	{d16, d17}, [r5]
.Ltmp166:
	@DEBUG_VALUE: filtering:R1 <- %Q8
	@DEBUG_VALUE: __ret <- %Q8
	add	r5, sp, #56
.Ltmp167:
	.loc	9 163 72 discriminator 1 @ /root/Bela/projects/SOFAlizer-for-Bela/filtering.cpp:163:72
	vld1.32	{d18, d19}, [r5]
.Ltmp168:
	@DEBUG_VALUE: filtering:R2 <- %Q9
	@DEBUG_VALUE: __ret <- %Q9
	.loc	9 166 118               @ /root/Bela/projects/SOFAlizer-for-Bela/filtering.cpp:166:118
	ldr	r12, [r1, #144]
.Ltmp169:
	.loc	9 167 118               @ /root/Bela/projects/SOFAlizer-for-Bela/filtering.cpp:167:118
	ldr	lr, [r1, #148]
.Ltmp170:
	.loc	9 166 98                @ /root/Bela/projects/SOFAlizer-for-Bela/filtering.cpp:166:98
	ldr	r7, [r12, r0, lsl #2]
.Ltmp171:
	.loc	9 167 98                @ /root/Bela/projects/SOFAlizer-for-Bela/filtering.cpp:167:98
	ldr	r6, [lr, r0, lsl #2]
.Ltmp172:
	.loc	9 166 98                @ /root/Bela/projects/SOFAlizer-for-Bela/filtering.cpp:166:98
	ldr	r7, [r7, r3]
.Ltmp173:
	.loc	9 167 98                @ /root/Bela/projects/SOFAlizer-for-Bela/filtering.cpp:167:98
	ldr	r6, [r6, r3]
.Ltmp174:
	.loc	9 166 75 discriminator 2 @ /root/Bela/projects/SOFAlizer-for-Bela/filtering.cpp:166:75
	vld1.32	{d20, d21}, [r7]
.Ltmp175:
	@DEBUG_VALUE: __ret <- %Q10
	@DEBUG_VALUE: filtering:Hreal <- %Q10
	.loc	9 170 13                @ /root/Bela/projects/SOFAlizer-for-Bela/filtering.cpp:170:13
	vmul.f32	q10, q10, q8
.Ltmp176:
	@DEBUG_VALUE: filtering:C <- %Q10
	.loc	40 50 38                @ /root/Bela/projects/SOFAlizer-for-Bela/fft.h:50:38
	movw	r7, :lower16:outLeftFFT
.Ltmp177:
	.loc	9 167 75 discriminator 2 @ /root/Bela/projects/SOFAlizer-for-Bela/filtering.cpp:167:75
	vld1.32	{d22, d23}, [r6]
.Ltmp178:
	@DEBUG_VALUE: __ret <- %Q11
	@DEBUG_VALUE: filtering:Himag <- %Q11
	.loc	40 50 38                @ /root/Bela/projects/SOFAlizer-for-Bela/fft.h:50:38
	movt	r7, :upper16:outLeftFFT
.Ltmp179:
	.loc	9 171 13                @ /root/Bela/projects/SOFAlizer-for-Bela/filtering.cpp:171:13
	vmul.f32	q11, q11, q9
.Ltmp180:
	.loc	40 50 38                @ /root/Bela/projects/SOFAlizer-for-Bela/fft.h:50:38
	ldr	r5, [r7, #4]
.Ltmp181:
	.loc	9 174 29                @ /root/Bela/projects/SOFAlizer-for-Bela/filtering.cpp:174:29
	add	r7, r5, r2
	.loc	9 171 13                @ /root/Bela/projects/SOFAlizer-for-Bela/filtering.cpp:171:13
	vadd.f32	q10, q11, q10
.Ltmp182:
	@DEBUG_VALUE: fdi:this <- undef
	.loc	9 174 29                @ /root/Bela/projects/SOFAlizer-for-Bela/filtering.cpp:174:29
	vld1.32	{d22, d23}, [r7]
	vadd.f32	q10, q10, q11
	vst1.32	{d20, d21}, [r7]
.Ltmp183:
	.loc	9 180 116               @ /root/Bela/projects/SOFAlizer-for-Bela/filtering.cpp:180:116
	ldr	r4, [r1, #152]
.Ltmp184:
	.loc	9 181 116               @ /root/Bela/projects/SOFAlizer-for-Bela/filtering.cpp:181:116
	ldr	r9, [r1, #156]
.Ltmp185:
	.loc	9 180 96                @ /root/Bela/projects/SOFAlizer-for-Bela/filtering.cpp:180:96
	ldr	r6, [r4, r0, lsl #2]
.Ltmp186:
	.loc	9 181 96                @ /root/Bela/projects/SOFAlizer-for-Bela/filtering.cpp:181:96
	ldr	r1, [r9, r0, lsl #2]
.Ltmp187:
	.loc	40 50 38                @ /root/Bela/projects/SOFAlizer-for-Bela/fft.h:50:38
	movw	r0, :lower16:outRightFFT
.Ltmp188:
	.loc	9 180 96                @ /root/Bela/projects/SOFAlizer-for-Bela/filtering.cpp:180:96
	ldr	r6, [r6, r3]
.Ltmp189:
	.loc	40 50 38                @ /root/Bela/projects/SOFAlizer-for-Bela/fft.h:50:38
	movt	r0, :upper16:outRightFFT
.Ltmp190:
	.loc	9 181 96                @ /root/Bela/projects/SOFAlizer-for-Bela/filtering.cpp:181:96
	ldr	r1, [r1, r3]
.Ltmp191:
	.loc	9 180 73 discriminator 2 @ /root/Bela/projects/SOFAlizer-for-Bela/filtering.cpp:180:73
	vld1.32	{d20, d21}, [r6]
.Ltmp192:
	@DEBUG_VALUE: __ret <- %Q10
	@DEBUG_VALUE: filtering:Hreal <- %Q10
	.loc	9 184 11                @ /root/Bela/projects/SOFAlizer-for-Bela/filtering.cpp:184:11
	vmul.f32	q8, q10, q8
.Ltmp193:
	@DEBUG_VALUE: filtering:C <- %Q8
	.loc	9 105 5 discriminator 1 @ /root/Bela/projects/SOFAlizer-for-Bela/filtering.cpp:105:5
	add	r3, r3, #4
.Ltmp194:
	.loc	9 181 73 discriminator 2 @ /root/Bela/projects/SOFAlizer-for-Bela/filtering.cpp:181:73
	vld1.32	{d22, d23}, [r1]
.Ltmp195:
	@DEBUG_VALUE: __ret <- %Q11
	@DEBUG_VALUE: filtering:Himag <- %Q11
	.loc	9 105 5 discriminator 1 @ /root/Bela/projects/SOFAlizer-for-Bela/filtering.cpp:105:5
	cmp	r3, #1024
.Ltmp196:
	@DEBUG_VALUE: fd:this <- %R8
	@DEBUG_VALUE: fd:this <- %R8
	@DEBUG_VALUE: fd:this <- %R8
	@DEBUG_VALUE: fd:this <- %R8
	@DEBUG_VALUE: fd:this <- undef
	@DEBUG_VALUE: fd:this <- undef
	@DEBUG_VALUE: fd:this <- undef
	@DEBUG_VALUE: fd:this <- undef
	@DEBUG_VALUE: fdi:this <- undef
	@DEBUG_VALUE: fdr:this <- undef
	@DEBUG_VALUE: fdr:this <- undef
	@DEBUG_VALUE: fdi:this <- undef
	@DEBUG_VALUE: fdr:this <- undef
	@DEBUG_VALUE: fdr:this <- undef
	.loc	9 185 11                @ /root/Bela/projects/SOFAlizer-for-Bela/filtering.cpp:185:11
	vmul.f32	q9, q11, q9
.Ltmp197:
	.loc	40 50 38                @ /root/Bela/projects/SOFAlizer-for-Bela/fft.h:50:38
	ldr	r6, [r0, #4]
.Ltmp198:
	.loc	9 188 30                @ /root/Bela/projects/SOFAlizer-for-Bela/filtering.cpp:188:30
	add	r1, r6, r2
.Ltmp199:
	.loc	9 105 5 discriminator 1 @ /root/Bela/projects/SOFAlizer-for-Bela/filtering.cpp:105:5
	add	r2, r2, #16
.Ltmp200:
	.loc	9 185 11                @ /root/Bela/projects/SOFAlizer-for-Bela/filtering.cpp:185:11
	vadd.f32	q8, q9, q8
.Ltmp201:
	@DEBUG_VALUE: fdi:this <- undef
	.loc	9 188 30                @ /root/Bela/projects/SOFAlizer-for-Bela/filtering.cpp:188:30
	vld1.32	{d18, d19}, [r1]
	vadd.f32	q8, q8, q9
	vst1.32	{d16, d17}, [r1]
.Ltmp202:
	.loc	9 105 5 discriminator 1 @ /root/Bela/projects/SOFAlizer-for-Bela/filtering.cpp:105:5
	bne	.LBB0_22
.Ltmp203:
@ BB#23:
	@DEBUG_VALUE: fd:this <- %R8
	@DEBUG_VALUE: fd:this <- %R8
	@DEBUG_VALUE: fd:this <- %R8
	@DEBUG_VALUE: fd:this <- %R8
	@DEBUG_VALUE: __ret <- %Q11
	@DEBUG_VALUE: __ret <- %Q10
	@DEBUG_VALUE: operator[]:this <- %R10
	@DEBUG_VALUE: filtering:Himag <- %Q11
	@DEBUG_VALUE: filtering:Hreal <- %Q10
	.loc	9 197 16                @ /root/Bela/projects/SOFAlizer-for-Bela/filtering.cpp:197:16
	movw	r4, :lower16:outLeftFFT
	movt	r4, :upper16:outLeftFFT
	mov	r0, r4
	bl	_ZN3Fft4ifftEv
.Ltmp204:
	.loc	9 198 17                @ /root/Bela/projects/SOFAlizer-for-Bela/filtering.cpp:198:17
	movw	r5, :lower16:outRightFFT
	movt	r5, :upper16:outRightFFT
	mov	r0, r5
	bl	_ZN3Fft4ifftEv
.Ltmp205:
	@DEBUG_VALUE: operator bool:this <- %R0
	@DEBUG_VALUE: load:__m <- 5
	.loc	12 396 9 discriminator 3 @ /usr/bin/../lib/gcc/arm-linux-gnueabihf/6.3.0/../../../../include/c++/6.3.0/bits/atomic_base.h:396:9
	movw	r0, :lower16:bypass
.Ltmp206:
	movt	r0, :upper16:bypass
	ldrb	r0, [r0]
	dmb	ish
.Ltmp207:
	.loc	9 200 9                 @ /root/Bela/projects/SOFAlizer-for-Bela/filtering.cpp:200:9
	tst	r0, #1
	bne	.LBB0_26
.Ltmp208:
@ BB#24:                                @ %.preheader
	@DEBUG_VALUE: fd:this <- %R8
	@DEBUG_VALUE: fd:this <- %R8
	@DEBUG_VALUE: fd:this <- %R8
	@DEBUG_VALUE: fd:this <- %R8
	@DEBUG_VALUE: operator[]:this <- %R10
	ldr	r1, [sp, #4]            @ 4-byte Reload
	mov	r7, #0
.Ltmp209:
	.loc	40 63 37                @ /root/Bela/projects/SOFAlizer-for-Bela/fft.h:63:37
	ldr	r3, [r4]
.Ltmp210:
	.loc	40 63 37 is_stmt 0      @ /root/Bela/projects/SOFAlizer-for-Bela/fft.h:63:37
	ldr	r2, [r5]
.Ltmp211:
	.loc	7 781 32 is_stmt 1      @ /usr/bin/../lib/gcc/arm-linux-gnueabihf/6.3.0/../../../../include/c++/6.3.0/bits/stl_vector.h:781:32
	ldr	r0, [r1]
.Ltmp212:
	.loc	7 781 32 is_stmt 0      @ /usr/bin/../lib/gcc/arm-linux-gnueabihf/6.3.0/../../../../include/c++/6.3.0/bits/stl_vector.h:781:32
	ldr	r1, [r1, #12]
	ldr	r4, [r11, #8]
.Ltmp213:
.LBB0_25:                               @ =>This Inner Loop Header: Depth=1
	.loc	9 211 51 is_stmt 1      @ /root/Bela/projects/SOFAlizer-for-Bela/filtering.cpp:211:51
	mov	r5, r4
	.loc	9 212 55                @ /root/Bela/projects/SOFAlizer-for-Bela/filtering.cpp:212:55
	add	r6, r3, r7
	.loc	9 211 51                @ /root/Bela/projects/SOFAlizer-for-Bela/filtering.cpp:211:51
	bfc	r5, #10, #22
.Ltmp214:
	@DEBUG_VALUE: outcBuffIdx <- %R5
	@DEBUG_VALUE: operator[]:__n <- %R5
	@DEBUG_VALUE: operator[]:__n <- %R5
	.loc	9 210 9 discriminator 1 @ /root/Bela/projects/SOFAlizer-for-Bela/filtering.cpp:210:9
	add	r4, r4, #1
.Ltmp215:
	.loc	9 212 55                @ /root/Bela/projects/SOFAlizer-for-Bela/filtering.cpp:212:55
	vldr	s0, [r6]
.Ltmp216:
	.loc	7 781 41                @ /usr/bin/../lib/gcc/arm-linux-gnueabihf/6.3.0/../../../../include/c++/6.3.0/bits/stl_vector.h:781:41
	add	r6, r0, r5, lsl #2
.Ltmp217:
	.loc	9 212 41                @ /root/Bela/projects/SOFAlizer-for-Bela/filtering.cpp:212:41
	vldr	s2, [r6]
	vadd.f32	d0, d1, d0
	vstr	s0, [r6]
	.loc	9 213 57                @ /root/Bela/projects/SOFAlizer-for-Bela/filtering.cpp:213:57
	add	r6, r2, r7
.Ltmp218:
	.loc	9 210 9 discriminator 1 @ /root/Bela/projects/SOFAlizer-for-Bela/filtering.cpp:210:9
	add	r7, r7, #4
.Ltmp219:
	.loc	9 213 57                @ /root/Bela/projects/SOFAlizer-for-Bela/filtering.cpp:213:57
	vldr	s0, [r6]
.Ltmp220:
	.loc	7 781 41                @ /usr/bin/../lib/gcc/arm-linux-gnueabihf/6.3.0/../../../../include/c++/6.3.0/bits/stl_vector.h:781:41
	add	r6, r1, r5, lsl #2
.Ltmp221:
	.loc	9 210 9 discriminator 1 @ /root/Bela/projects/SOFAlizer-for-Bela/filtering.cpp:210:9
	cmp	r7, #2048
.Ltmp222:
	.loc	9 213 42                @ /root/Bela/projects/SOFAlizer-for-Bela/filtering.cpp:213:42
	vldr	s2, [r6]
	vadd.f32	d0, d1, d0
	vstr	s0, [r6]
	bne	.LBB0_25
	b	.LBB0_28
.Ltmp223:
.LBB0_26:                               @ %.preheader241
	@DEBUG_VALUE: fd:this <- %R8
	@DEBUG_VALUE: fd:this <- %R8
	@DEBUG_VALUE: fd:this <- %R8
	@DEBUG_VALUE: fd:this <- %R8
	@DEBUG_VALUE: operator[]:this <- %R10
	.loc	9 30 5                  @ /root/Bela/projects/SOFAlizer-for-Bela/filtering.cpp:30:5
	movw	r2, :lower16:.L_MergedGlobals
	ldr	r1, [sp, #4]            @ 4-byte Reload
	movt	r2, :upper16:.L_MergedGlobals
	ldr	r4, [r11, #8]
	mov	r3, r2
	mov	r7, #0
.Ltmp224:
	.loc	7 781 32                @ /usr/bin/../lib/gcc/arm-linux-gnueabihf/6.3.0/../../../../include/c++/6.3.0/bits/stl_vector.h:781:32
	ldr	r0, [r1]
.Ltmp225:
	.loc	7 781 32 is_stmt 0      @ /usr/bin/../lib/gcc/arm-linux-gnueabihf/6.3.0/../../../../include/c++/6.3.0/bits/stl_vector.h:781:32
	ldr	r2, [r3, #8]
.Ltmp226:
	.loc	7 781 32                @ /usr/bin/../lib/gcc/arm-linux-gnueabihf/6.3.0/../../../../include/c++/6.3.0/bits/stl_vector.h:781:32
	ldr	r1, [r1, #12]
.Ltmp227:
	.loc	7 781 32                @ /usr/bin/../lib/gcc/arm-linux-gnueabihf/6.3.0/../../../../include/c++/6.3.0/bits/stl_vector.h:781:32
	ldr	r3, [r3, #20]
.Ltmp228:
.LBB0_27:                               @ =>This Inner Loop Header: Depth=1
	.loc	9 203 51 is_stmt 1      @ /root/Bela/projects/SOFAlizer-for-Bela/filtering.cpp:203:51
	add	r5, r4, r7
.Ltmp229:
	@DEBUG_VALUE: operator[]:__n <- %R7
	.loc	9 204 43                @ /root/Bela/projects/SOFAlizer-for-Bela/filtering.cpp:204:43
	ldr	r6, [r2, r7, lsl #2]
	.loc	9 203 51                @ /root/Bela/projects/SOFAlizer-for-Bela/filtering.cpp:203:51
	bfc	r5, #10, #22
.Ltmp230:
	@DEBUG_VALUE: outcBuffIdx <- %R5
	@DEBUG_VALUE: operator[]:__n <- %R5
	@DEBUG_VALUE: operator[]:__n <- %R5
	.loc	9 204 41                @ /root/Bela/projects/SOFAlizer-for-Bela/filtering.cpp:204:41
	str	r6, [r0, r5, lsl #2]
	.loc	9 205 44                @ /root/Bela/projects/SOFAlizer-for-Bela/filtering.cpp:205:44
	ldr	r6, [r3, r7, lsl #2]
.Ltmp231:
	.loc	9 202 44 discriminator 3 @ /root/Bela/projects/SOFAlizer-for-Bela/filtering.cpp:202:44
	add	r7, r7, #1
.Ltmp232:
	@DEBUG_VALUE: i <- %R7
	.loc	9 205 42                @ /root/Bela/projects/SOFAlizer-for-Bela/filtering.cpp:205:42
	str	r6, [r1, r5, lsl #2]
.Ltmp233:
	.loc	9 202 9 discriminator 1 @ /root/Bela/projects/SOFAlizer-for-Bela/filtering.cpp:202:9
	cmp	r7, #256
	bne	.LBB0_27
.Ltmp234:
.LBB0_28:                               @ %.loopexit
	.loc	9 216 1 discriminator 2 @ /root/Bela/projects/SOFAlizer-for-Bela/filtering.cpp:216:1
	sub	sp, r11, #48
	vpop	{d8, d9}
	add	sp, sp, #4
	pop	{r4, r5, r6, r7, r8, r9, r10, r11, pc}
.LBB0_29:
.Ltmp235:
	.loc	37 107 2                @ /usr/bin/../lib/gcc/arm-linux-gnueabihf/6.3.0/../../../../include/c++/6.3.0/bits/std_mutex.h:107:2
	mov	lr, pc
	b	_ZSt20__throw_system_errori
.Ltmp236:
.LBB0_30:
	@DEBUG_VALUE: filtering:hrtfdata <- %R10
	@DEBUG_VALUE: filtering:incBuff <- %R4
	@DEBUG_VALUE: filtering:in_read_ptr <- %R8
	@DEBUG_VALUE: filtering:outcBuff <- %R9
.Ltmp5:
	mov	r4, r0
.Ltmp237:
	.loc	9 31 5 discriminator 13 @ /root/Bela/projects/SOFAlizer-for-Bela/filtering.cpp:31:5
	mov	r0, r7
	b	.LBB0_32
.Ltmp238:
.LBB0_31:
	@DEBUG_VALUE: filtering:hrtfdata <- %R10
	@DEBUG_VALUE: filtering:incBuff <- %R4
	@DEBUG_VALUE: filtering:in_read_ptr <- %R8
	@DEBUG_VALUE: filtering:outcBuff <- %R9
.Ltmp2:
	mov	r4, r0
.Ltmp239:
	.loc	9 30 5 discriminator 13 @ /root/Bela/projects/SOFAlizer-for-Bela/filtering.cpp:30:5
	movw	r0, :lower16:.L_MergedGlobals
	movt	r0, :upper16:.L_MergedGlobals
.Ltmp240:
.LBB0_32:
	@DEBUG_VALUE: filtering:hrtfdata <- %R10
	@DEBUG_VALUE: filtering:in_read_ptr <- %R8
	@DEBUG_VALUE: filtering:outcBuff <- %R9
	bl	__cxa_guard_abort
	mov	r0, r4
	mov	lr, pc
	b	_Unwind_Resume
.Ltmp241:
.Lfunc_end0:
	.size	_Z9filteringRSt6vectorI8HRTFDataSaIS0_EEPK8CircBuffjPS4_j, .Lfunc_end0-_Z9filteringRSt6vectorI8HRTFDataSaIS0_EEPK8CircBuffjPS4_j
	.cfi_endproc
	.file	41 "/usr/include/arm-linux-gnueabihf/bits" "pthreadtypes.h"
	.file	42 "/usr/bin/../lib/gcc/arm-linux-gnueabihf/6.3.0/../../../../include/c++/6.3.0/ext" "type_traits.h"
	.file	43 "/usr/bin/../lib/gcc/arm-linux-gnueabihf/6.3.0/../../../../include/c++/6.3.0/bits" "stl_uninitialized.h"
	.file	44 "/root/Bela/projects/SOFAlizer-for-Bela" "bela_sofa.h"
	.file	45 "/usr/include/ne10" "NE10_types.h"
	.file	46 "/usr/bin/../lib/gcc/arm-linux-gnueabihf/6.3.0/../../../../include/c++/6.3.0" "atomic"
	.globl	__gxx_personality_v0
	.personality __gxx_personality_v0
	.handlerdata
	.p2align	2
GCC_except_table0:
.Lexception0:
	.byte	255                     @ @LPStart Encoding = omit
	.byte	0                       @ @TType Encoding = absptr
	.asciz	"\266\200\200"          @ @TType base offset
	.byte	3                       @ Call site Encoding = udata4
	.byte	52                      @ Call site table length
	.long	.Ltmp0-.Lfunc_begin0    @ >> Call Site 1 <<
	.long	.Ltmp1-.Ltmp0           @   Call between .Ltmp0 and .Ltmp1
	.long	.Ltmp2-.Lfunc_begin0    @     jumps to .Ltmp2
	.byte	0                       @   On action: cleanup
	.long	.Ltmp1-.Lfunc_begin0    @ >> Call Site 2 <<
	.long	.Ltmp3-.Ltmp1           @   Call between .Ltmp1 and .Ltmp3
	.long	0                       @     has no landing pad
	.byte	0                       @   On action: cleanup
	.long	.Ltmp3-.Lfunc_begin0    @ >> Call Site 3 <<
	.long	.Ltmp4-.Ltmp3           @   Call between .Ltmp3 and .Ltmp4
	.long	.Ltmp5-.Lfunc_begin0    @     jumps to .Ltmp5
	.byte	0                       @   On action: cleanup
	.long	.Ltmp4-.Lfunc_begin0    @ >> Call Site 4 <<
	.long	.Lfunc_end0-.Ltmp4      @   Call between .Ltmp4 and .Lfunc_end0
	.long	0                       @     has no landing pad
	.byte	0                       @   On action: cleanup
	.p2align	2
	.fnend

	.section	.text._ZNSt6vectorIfSaIfEED2Ev,"axG",%progbits,_ZNSt6vectorIfSaIfEED2Ev,comdat
	.weak	_ZNSt6vectorIfSaIfEED2Ev
	.p2align	2
	.type	_ZNSt6vectorIfSaIfEED2Ev,%function
_ZNSt6vectorIfSaIfEED2Ev:               @ @_ZNSt6vectorIfSaIfEED2Ev
.Lfunc_begin1:
	.loc	7 426 0                 @ /usr/bin/../lib/gcc/arm-linux-gnueabihf/6.3.0/../../../../include/c++/6.3.0/bits/stl_vector.h:426:0
	.fnstart
	.cfi_startproc
@ BB#0:
	.save	{r4, r10, r11, lr}
	push	{r4, r10, r11, lr}
.Ltmp242:
	.cfi_def_cfa_offset 16
.Ltmp243:
	.cfi_offset lr, -4
.Ltmp244:
	.cfi_offset r11, -8
.Ltmp245:
	.cfi_offset r10, -12
.Ltmp246:
	.cfi_offset r4, -16
	.setfp	r11, sp, #8
	add	r11, sp, #8
.Ltmp247:
	.cfi_def_cfa r11, 8
	@DEBUG_VALUE: ~vector:this <- %R0
	mov	r4, r0
.Ltmp248:
	@DEBUG_VALUE: ~vector:this <- %R4
	.loc	7 160 37 prologue_end   @ /usr/bin/../lib/gcc/arm-linux-gnueabihf/6.3.0/../../../../include/c++/6.3.0/bits/stl_vector.h:160:37
	ldr	r0, [r4]
.Ltmp249:
	@DEBUG_VALUE: _M_deallocate:__p <- %R0
	@DEBUG_VALUE: deallocate:__p <- %R0
	@DEBUG_VALUE: deallocate:__p <- %R0
	.loc	7 177 6                 @ /usr/bin/../lib/gcc/arm-linux-gnueabihf/6.3.0/../../../../include/c++/6.3.0/bits/stl_vector.h:177:6
	cmp	r0, #0
	beq	.LBB1_2
.Ltmp250:
@ BB#1:
	@DEBUG_VALUE: deallocate:__p <- %R0
	@DEBUG_VALUE: deallocate:__p <- %R0
	@DEBUG_VALUE: _M_deallocate:__p <- %R0
	@DEBUG_VALUE: ~vector:this <- %R4
	.loc	3 110 9                 @ /usr/bin/../lib/gcc/arm-linux-gnueabihf/6.3.0/../../../../include/c++/6.3.0/ext/new_allocator.h:110:9
	bl	_ZdlPv
.Ltmp251:
.LBB1_2:                                @ %_ZNSt12_Vector_baseIfSaIfEED2Ev.exit
	@DEBUG_VALUE: ~vector:this <- %R4
	.loc	7 427 33 discriminator 1 @ /usr/bin/../lib/gcc/arm-linux-gnueabihf/6.3.0/../../../../include/c++/6.3.0/bits/stl_vector.h:427:33
	mov	r0, r4
	pop	{r4, r10, r11, pc}
.Ltmp252:
.Lfunc_end1:
	.size	_ZNSt6vectorIfSaIfEED2Ev, .Lfunc_end1-_ZNSt6vectorIfSaIfEED2Ev
	.cfi_endproc
	.fnend

	.type	.L_MergedGlobals,%object @ @_MergedGlobals
	.local	.L_MergedGlobals
	.comm	.L_MergedGlobals,32,16
	.file	47 "/root/Bela/projects/SOFAlizer-for-Bela" "circular_buffer.h"