	.text
	.syntax unified
	.eabi_attribute	67, "2.09"	@ Tag_conformance
	.cpu	cortex-a8
	.eabi_attribute	6, 10	@ Tag_CPU_arch
	.eabi_attribute	7, 65	@ Tag_CPU_arch_profile
	.eabi_attribute	8, 1	@ Tag_ARM_ISA_use
	.eabi_attribute	9, 2	@ Tag_THUMB_ISA_use
	.fpu	neon
	.eabi_attribute	17, 1	@ Tag_ABI_PCS_GOT_use
	.eabi_attribute	20, 2	@ Tag_ABI_FP_denormal
	.eabi_attribute	23, 1	@ Tag_ABI_FP_number_model
	.eabi_attribute	34, 1	@ Tag_CPU_unaligned_access
	.eabi_attribute	24, 1	@ Tag_ABI_align_needed
	.eabi_attribute	25, 1	@ Tag_ABI_align_preserved
	.eabi_attribute	28, 1	@ Tag_ABI_VFP_args
	.eabi_attribute	38, 1	@ Tag_ABI_FP_16bit_format
	.eabi_attribute	18, 4	@ Tag_ABI_PCS_wchar_t
	.eabi_attribute	26, 2	@ Tag_ABI_enum_size
	.eabi_attribute	14, 0	@ Tag_ABI_PCS_R9_use
	.eabi_attribute	68, 1	@ Tag_Virtualization_use
	.file	"/root/Bela/projects/SOFAlizer-for-Bela/build/filtering_test.bc"
	.file	1 "/usr/bin/../lib/gcc/arm-linux-gnueabihf/6.3.0/../../../../include/arm-linux-gnueabihf/c++/6.3.0/bits" "c++config.h"
	.file	2 "/usr/bin/../lib/gcc/arm-linux-gnueabihf/6.3.0/../../../../include/c++/6.3.0/bits" "alloc_traits.h"
	.file	3 "/usr/bin/../lib/gcc/arm-linux-gnueabihf/6.3.0/../../../../include/c++/6.3.0/ext" "new_allocator.h"
	.file	4 "/usr/bin/../lib/gcc/arm-linux-gnueabihf/6.3.0/../../../../include/arm-linux-gnueabihf/c++/6.3.0/bits" "c++allocator.h"
	.file	5 "/usr/bin/../lib/gcc/arm-linux-gnueabihf/6.3.0/../../../../include/c++/6.3.0/bits" "allocator.h"
	.file	6 "/usr/bin/../lib/gcc/arm-linux-gnueabihf/6.3.0/../../../../include/c++/6.3.0/ext" "alloc_traits.h"
	.file	7 "/usr/bin/../lib/gcc/arm-linux-gnueabihf/6.3.0/../../../../include/c++/6.3.0/bits" "stl_vector.h"
	.file	8 "/usr/bin/../lib/gcc/arm-linux-gnueabihf/6.3.0/../../../../include/c++/6.3.0" "type_traits"
	.file	9 "/root/Bela/projects/SOFAlizer-for-Bela" "filtering_test.cpp"
	.file	10 "/usr/bin/../lib/gcc/arm-linux-gnueabihf/6.3.0/../../../../include/arm-linux-gnueabihf/c++/6.3.0/bits" "gthr-default.h"
	.file	11 "/usr/bin/../lib/gcc/arm-linux-gnueabihf/6.3.0/../../../../include/c++/6.3.0/ext" "concurrence.h"
	.file	12 "/usr/lib/llvm-3.9/bin/../lib/clang/3.9.1/include" "arm_neon.h"
	.file	13 "/usr/bin/../lib/gcc/arm-linux-gnueabihf/6.3.0/../../../../include/c++/6.3.0/debug" "debug.h"
	.file	14 "/usr/bin/../lib/gcc/arm-linux-gnueabihf/6.3.0/../../../../include/c++/6.3.0/bits" "exception_ptr.h"
	.file	15 "/usr/include" "wchar.h"
	.file	16 "/usr/lib/llvm-3.9/bin/../lib/clang/3.9.1/include" "stddef.h"
	.file	17 "/usr/include" "libio.h"
	.file	18 "/usr/include/arm-linux-gnueabihf/bits" "types.h"
	.file	19 "/usr/include" "stdio.h"
	.file	20 "/usr/lib/llvm-3.9/bin/../lib/clang/3.9.1/include" "stdarg.h"
	.file	21 "/usr/include" "stdint.h"
	.file	22 "/usr/include" "locale.h"
	.file	23 "/usr/include" "ctype.h"
	.file	24 "/usr/include" "stdlib.h"
	.file	25 "/usr/include/arm-linux-gnueabihf/bits" "stdlib-float.h"
	.file	26 "/usr/include/arm-linux-gnueabihf/bits" "stdlib-bsearch.h"
	.file	27 "/usr/bin/../lib/gcc/arm-linux-gnueabihf/6.3.0/../../../../include/c++/6.3.0" "cstdlib"
	.file	28 "/usr/include" "_G_config.h"
	.file	29 "/usr/include/arm-linux-gnueabihf/bits" "stdio.h"
	.file	30 "/root/Bela/projects/SOFAlizer-for-Bela/build" "filtering_test.cpp"
	.file	31 "/usr/include/arm-linux-gnueabihf/bits" "math-finite.h"
	.file	32 "/usr/include/arm-linux-gnueabihf/bits" "mathcalls.h"
	.file	33 "/usr/include/arm-linux-gnueabihf/bits" "mathdef.h"
	.file	34 "/usr/include" "time.h"
	.file	35 "/usr/include" "string.h"
	.globl	_Z32filtering_multiple_positions_cpuRSt6vectorI8HRTFDataSaIS0_EEPK8CircBuffjPS4_j
	.p2align	2
	.type	_Z32filtering_multiple_positions_cpuRSt6vectorI8HRTFDataSaIS0_EEPK8CircBuffjPS4_j,%function
_Z32filtering_multiple_positions_cpuRSt6vectorI8HRTFDataSaIS0_EEPK8CircBuffjPS4_j: @ @_Z32filtering_multiple_positions_cpuRSt6vectorI8HRTFDataSaIS0_EEPK8CircBuffjPS4_j
.Lfunc_begin0:
	.loc	9 21 0                  @ /root/Bela/projects/SOFAlizer-for-Bela/filtering_test.cpp:21:0
	.fnstart
	.cfi_startproc
@ BB#0:
	.save	{r4, r5, r6, r7, r8, r9, r10, r11, lr}
	push	{r4, r5, r6, r7, r8, r9, r10, r11, lr}
.Ltmp6:
	.cfi_def_cfa_offset 36
.Ltmp7:
	.cfi_offset lr, -4
.Ltmp8:
	.cfi_offset r11, -8
.Ltmp9:
	.cfi_offset r10, -12
.Ltmp10:
	.cfi_offset r9, -16
.Ltmp11:
	.cfi_offset r8, -20
.Ltmp12:
	.cfi_offset r7, -24
.Ltmp13:
	.cfi_offset r6, -28
.Ltmp14:
	.cfi_offset r5, -32
.Ltmp15:
	.cfi_offset r4, -36
	.setfp	r11, sp, #28
	add	r11, sp, #28
.Ltmp16:
	.cfi_def_cfa r11, 8
	.pad	#28
	sub	sp, sp, #28
	@DEBUG_VALUE: filtering_multiple_positions_cpu:hrtfdata <- %R0
	@DEBUG_VALUE: filtering_multiple_positions_cpu:incBuff <- %R1
	@DEBUG_VALUE: filtering_multiple_positions_cpu:in_read_ptr <- %R2
	@DEBUG_VALUE: filtering_multiple_positions_cpu:outcBuff <- %R3
.Ltmp17:
	.loc	10 747 7 prologue_end   @ /usr/bin/../lib/gcc/arm-linux-gnueabihf/6.3.0/../../../../include/arm-linux-gnueabihf/c++/6.3.0/bits/gthr-default.h:747:7
	movw	r4, :lower16:__pthread_key_create
	mov	r5, r3
.Ltmp18:
	@DEBUG_VALUE: filtering_multiple_positions_cpu:outcBuff <- %R5
	movt	r4, :upper16:__pthread_key_create
	mov	r8, r2
.Ltmp19:
	@DEBUG_VALUE: filtering_multiple_positions_cpu:in_read_ptr <- %R8
	mov	r7, r1
.Ltmp20:
	@DEBUG_VALUE: filtering_multiple_positions_cpu:incBuff <- %R7
	mov	r9, r0
.Ltmp21:
	@DEBUG_VALUE: filtering_multiple_positions_cpu:hrtfdata <- %R9
	cmp	r4, #0
	beq	.LBB0_2
.Ltmp22:
@ BB#1:                                 @ %_ZL20__gthread_mutex_lockP15pthread_mutex_t.exit.i
	@DEBUG_VALUE: filtering_multiple_positions_cpu:hrtfdata <- %R9
	@DEBUG_VALUE: filtering_multiple_positions_cpu:incBuff <- %R7
	@DEBUG_VALUE: filtering_multiple_positions_cpu:in_read_ptr <- %R8
	@DEBUG_VALUE: filtering_multiple_positions_cpu:outcBuff <- %R5
	.loc	10 748 12               @ /usr/bin/../lib/gcc/arm-linux-gnueabihf/6.3.0/../../../../include/arm-linux-gnueabihf/c++/6.3.0/bits/gthr-default.h:748:12
	movw	r0, :lower16:m_hrtf_num
	movt	r0, :upper16:m_hrtf_num
.Ltmp23:
	@DEBUG_VALUE: lock:this <- %R0
	bl	pthread_mutex_lock
.Ltmp24:
	@DEBUG_VALUE: lock:__e <- %R0
	.file	36 "/usr/bin/../lib/gcc/arm-linux-gnueabihf/6.3.0/../../../../include/c++/6.3.0/bits" "std_mutex.h"
	.loc	36 106 11               @ /usr/bin/../lib/gcc/arm-linux-gnueabihf/6.3.0/../../../../include/c++/6.3.0/bits/std_mutex.h:106:11
	cmp	r0, #0
	bne	.LBB0_24
.Ltmp25:
.LBB0_2:                                @ %_ZNSt5mutex4lockEv.exit
	@DEBUG_VALUE: filtering_multiple_positions_cpu:hrtfdata <- %R9
	@DEBUG_VALUE: filtering_multiple_positions_cpu:incBuff <- %R7
	@DEBUG_VALUE: filtering_multiple_positions_cpu:in_read_ptr <- %R8
	@DEBUG_VALUE: filtering_multiple_positions_cpu:outcBuff <- %R5
	.loc	9 24 30                 @ /root/Bela/projects/SOFAlizer-for-Bela/filtering_test.cpp:24:30
	movw	r0, :lower16:hrtf_num
	str	r5, [sp, #4]            @ 4-byte Spill
	movt	r0, :upper16:hrtf_num
.Ltmp26:
	.loc	10 777 7                @ /usr/bin/../lib/gcc/arm-linux-gnueabihf/6.3.0/../../../../include/arm-linux-gnueabihf/c++/6.3.0/bits/gthr-default.h:777:7
	cmp	r4, #0
.Ltmp27:
	.loc	9 24 30                 @ /root/Bela/projects/SOFAlizer-for-Bela/filtering_test.cpp:24:30
	ldr	r10, [r0]
.Ltmp28:
	@DEBUG_VALUE: filtering_multiple_positions_cpu:hrtf_num2 <- %R10
	@DEBUG_VALUE: operator[]:__n <- %R10
	@DEBUG_VALUE: operator[]:__n <- %R10
	@DEBUG_VALUE: operator[]:__n <- %R10
	@DEBUG_VALUE: operator[]:__n <- %R10
	@DEBUG_VALUE: operator[]:__n <- %R10
	@DEBUG_VALUE: operator[]:__n <- %R10
	@DEBUG_VALUE: operator[]:__n <- %R10
	@DEBUG_VALUE: operator[]:__n <- %R10
	@DEBUG_VALUE: operator[]:__n <- %R10
	@DEBUG_VALUE: operator[]:__n <- %R10
	@DEBUG_VALUE: operator[]:__n <- %R10
	@DEBUG_VALUE: operator[]:__n <- %R10
	@DEBUG_VALUE: operator[]:__n <- %R10
	@DEBUG_VALUE: operator[]:__n <- %R10
	@DEBUG_VALUE: operator[]:__n <- %R10
	@DEBUG_VALUE: operator[]:__n <- %R10
	beq	.LBB0_4
.Ltmp29:
@ BB#3:
	@DEBUG_VALUE: operator[]:__n <- %R10
	@DEBUG_VALUE: operator[]:__n <- %R10
	@DEBUG_VALUE: operator[]:__n <- %R10
	@DEBUG_VALUE: operator[]:__n <- %R10
	@DEBUG_VALUE: operator[]:__n <- %R10
	@DEBUG_VALUE: operator[]:__n <- %R10
	@DEBUG_VALUE: operator[]:__n <- %R10
	@DEBUG_VALUE: operator[]:__n <- %R10
	@DEBUG_VALUE: operator[]:__n <- %R10
	@DEBUG_VALUE: operator[]:__n <- %R10
	@DEBUG_VALUE: operator[]:__n <- %R10
	@DEBUG_VALUE: operator[]:__n <- %R10
	@DEBUG_VALUE: operator[]:__n <- %R10
	@DEBUG_VALUE: operator[]:__n <- %R10
	@DEBUG_VALUE: operator[]:__n <- %R10
	@DEBUG_VALUE: operator[]:__n <- %R10
	@DEBUG_VALUE: filtering_multiple_positions_cpu:hrtf_num2 <- %R10
	@DEBUG_VALUE: filtering_multiple_positions_cpu:hrtfdata <- %R9
	@DEBUG_VALUE: filtering_multiple_positions_cpu:incBuff <- %R7
	@DEBUG_VALUE: filtering_multiple_positions_cpu:in_read_ptr <- %R8
	@DEBUG_VALUE: filtering_multiple_positions_cpu:outcBuff <- %R5
	.loc	10 778 12               @ /usr/bin/../lib/gcc/arm-linux-gnueabihf/6.3.0/../../../../include/arm-linux-gnueabihf/c++/6.3.0/bits/gthr-default.h:778:12
	movw	r0, :lower16:m_hrtf_num
	movt	r0, :upper16:m_hrtf_num
.Ltmp30:
	@DEBUG_VALUE: unlock:this <- %R0
	bl	pthread_mutex_unlock
.Ltmp31:
.LBB0_4:                                @ %_ZNSt5mutex6unlockEv.exit
	@DEBUG_VALUE: operator[]:__n <- %R10
	@DEBUG_VALUE: operator[]:__n <- %R10
	@DEBUG_VALUE: operator[]:__n <- %R10
	@DEBUG_VALUE: operator[]:__n <- %R10
	@DEBUG_VALUE: operator[]:__n <- %R10
	@DEBUG_VALUE: operator[]:__n <- %R10
	@DEBUG_VALUE: operator[]:__n <- %R10
	@DEBUG_VALUE: operator[]:__n <- %R10
	@DEBUG_VALUE: operator[]:__n <- %R10
	@DEBUG_VALUE: operator[]:__n <- %R10
	@DEBUG_VALUE: operator[]:__n <- %R10
	@DEBUG_VALUE: operator[]:__n <- %R10
	@DEBUG_VALUE: operator[]:__n <- %R10
	@DEBUG_VALUE: operator[]:__n <- %R10
	@DEBUG_VALUE: operator[]:__n <- %R10
	@DEBUG_VALUE: operator[]:__n <- %R10
	@DEBUG_VALUE: filtering_multiple_positions_cpu:hrtf_num2 <- %R10
	@DEBUG_VALUE: filtering_multiple_positions_cpu:hrtfdata <- %R9
	@DEBUG_VALUE: filtering_multiple_positions_cpu:incBuff <- %R7
	@DEBUG_VALUE: filtering_multiple_positions_cpu:in_read_ptr <- %R8
	@DEBUG_VALUE: filtering_multiple_positions_cpu:outcBuff <- %R5
	.loc	9 27 5                  @ /root/Bela/projects/SOFAlizer-for-Bela/filtering_test.cpp:27:5
	movw	r6, :lower16:.L_MergedGlobals
	movt	r6, :upper16:.L_MergedGlobals
	ldrb	r0, [r6]
	dmb	ish
	tst	r0, #1
	bne	.LBB0_8
.Ltmp32:
@ BB#5:
	@DEBUG_VALUE: operator[]:__n <- %R10
	@DEBUG_VALUE: operator[]:__n <- %R10
	@DEBUG_VALUE: operator[]:__n <- %R10
	@DEBUG_VALUE: operator[]:__n <- %R10
	@DEBUG_VALUE: operator[]:__n <- %R10
	@DEBUG_VALUE: operator[]:__n <- %R10
	@DEBUG_VALUE: operator[]:__n <- %R10
	@DEBUG_VALUE: operator[]:__n <- %R10
	@DEBUG_VALUE: operator[]:__n <- %R10
	@DEBUG_VALUE: operator[]:__n <- %R10
	@DEBUG_VALUE: operator[]:__n <- %R10
	@DEBUG_VALUE: operator[]:__n <- %R10
	@DEBUG_VALUE: operator[]:__n <- %R10
	@DEBUG_VALUE: operator[]:__n <- %R10
	@DEBUG_VALUE: operator[]:__n <- %R10
	@DEBUG_VALUE: operator[]:__n <- %R10
	@DEBUG_VALUE: filtering_multiple_positions_cpu:hrtf_num2 <- %R10
	@DEBUG_VALUE: filtering_multiple_positions_cpu:hrtfdata <- %R9
	@DEBUG_VALUE: filtering_multiple_positions_cpu:incBuff <- %R7
	@DEBUG_VALUE: filtering_multiple_positions_cpu:in_read_ptr <- %R8
	@DEBUG_VALUE: filtering_multiple_positions_cpu:outcBuff <- %R5
	.loc	9 27 5 is_stmt 0 discriminator 1 @ /root/Bela/projects/SOFAlizer-for-Bela/filtering_test.cpp:27:5
	movw	r4, :lower16:.L_MergedGlobals
	movt	r4, :upper16:.L_MergedGlobals
	mov	r0, r4
	bl	__cxa_guard_acquire
	cmp	r0, #0
	beq	.LBB0_8
.Ltmp33:
@ BB#6:
	@DEBUG_VALUE: operator[]:__n <- %R10
	@DEBUG_VALUE: operator[]:__n <- %R10
	@DEBUG_VALUE: operator[]:__n <- %R10
	@DEBUG_VALUE: operator[]:__n <- %R10
	@DEBUG_VALUE: operator[]:__n <- %R10
	@DEBUG_VALUE: operator[]:__n <- %R10
	@DEBUG_VALUE: operator[]:__n <- %R10
	@DEBUG_VALUE: operator[]:__n <- %R10
	@DEBUG_VALUE: operator[]:__n <- %R10
	@DEBUG_VALUE: operator[]:__n <- %R10
	@DEBUG_VALUE: operator[]:__n <- %R10
	@DEBUG_VALUE: operator[]:__n <- %R10
	@DEBUG_VALUE: operator[]:__n <- %R10
	@DEBUG_VALUE: operator[]:__n <- %R10
	@DEBUG_VALUE: operator[]:__n <- %R10
	@DEBUG_VALUE: operator[]:__n <- %R10
	@DEBUG_VALUE: filtering_multiple_positions_cpu:hrtf_num2 <- %R10
	@DEBUG_VALUE: filtering_multiple_positions_cpu:hrtfdata <- %R9
	@DEBUG_VALUE: filtering_multiple_positions_cpu:incBuff <- %R7
	@DEBUG_VALUE: filtering_multiple_positions_cpu:in_read_ptr <- %R8
	@DEBUG_VALUE: filtering_multiple_positions_cpu:outcBuff <- %R5
	@DEBUG_VALUE: vector:__n <- 512
	@DEBUG_VALUE: _Vector_base:__n <- 512
	mov	r0, #0
.Ltmp34:
	@DEBUG_VALUE: allocate:__n <- 512
	@DEBUG_VALUE: allocate:__n <- 512
	@DEBUG_VALUE: _M_allocate:__n <- 512
	@DEBUG_VALUE: _M_create_storage:__n <- 512
	.loc	7 91 25 is_stmt 1       @ /usr/bin/../lib/gcc/arm-linux-gnueabihf/6.3.0/../../../../include/c++/6.3.0/bits/stl_vector.h:91:25
	str	r0, [r4, #16]
	.loc	7 91 37 is_stmt 0       @ /usr/bin/../lib/gcc/arm-linux-gnueabihf/6.3.0/../../../../include/c++/6.3.0/bits/stl_vector.h:91:37
	str	r0, [r4, #20]
	.loc	7 91 50                 @ /usr/bin/../lib/gcc/arm-linux-gnueabihf/6.3.0/../../../../include/c++/6.3.0/bits/stl_vector.h:91:50
	str	r0, [r4, #24]
.Ltmp35:
	.loc	3 104 27 is_stmt 1      @ /usr/bin/../lib/gcc/arm-linux-gnueabihf/6.3.0/../../../../include/c++/6.3.0/ext/new_allocator.h:104:27
.Ltmp0:
	mov	r0, #2048
	bl	_Znwj
.Ltmp1:
.Ltmp36:
@ BB#7:                                 @ %.noexc
	@DEBUG_VALUE: operator[]:__n <- %R10
	@DEBUG_VALUE: operator[]:__n <- %R10
	@DEBUG_VALUE: operator[]:__n <- %R10
	@DEBUG_VALUE: operator[]:__n <- %R10
	@DEBUG_VALUE: operator[]:__n <- %R10
	@DEBUG_VALUE: operator[]:__n <- %R10
	@DEBUG_VALUE: operator[]:__n <- %R10
	@DEBUG_VALUE: operator[]:__n <- %R10
	@DEBUG_VALUE: operator[]:__n <- %R10
	@DEBUG_VALUE: operator[]:__n <- %R10
	@DEBUG_VALUE: operator[]:__n <- %R10
	@DEBUG_VALUE: operator[]:__n <- %R10
	@DEBUG_VALUE: operator[]:__n <- %R10
	@DEBUG_VALUE: operator[]:__n <- %R10
	@DEBUG_VALUE: operator[]:__n <- %R10
	@DEBUG_VALUE: operator[]:__n <- %R10
	@DEBUG_VALUE: filtering_multiple_positions_cpu:hrtf_num2 <- %R10
	@DEBUG_VALUE: filtering_multiple_positions_cpu:hrtfdata <- %R9
	@DEBUG_VALUE: filtering_multiple_positions_cpu:incBuff <- %R7
	@DEBUG_VALUE: filtering_multiple_positions_cpu:in_read_ptr <- %R8
	@DEBUG_VALUE: filtering_multiple_positions_cpu:outcBuff <- %R5
	.loc	7 185 25                @ /usr/bin/../lib/gcc/arm-linux-gnueabihf/6.3.0/../../../../include/c++/6.3.0/bits/stl_vector.h:185:25
	mov	r5, r4
.Ltmp37:
	.file	37 "/usr/bin/../lib/gcc/arm-linux-gnueabihf/6.3.0/../../../../include/c++/6.3.0/bits" "stl_algobase.h"
	.loc	37 754 11               @ /usr/bin/../lib/gcc/arm-linux-gnueabihf/6.3.0/../../../../include/c++/6.3.0/bits/stl_algobase.h:754:11
	mov	r1, #0
	mov	r2, #2048
.Ltmp38:
	.loc	7 185 25                @ /usr/bin/../lib/gcc/arm-linux-gnueabihf/6.3.0/../../../../include/c++/6.3.0/bits/stl_vector.h:185:25
	str	r0, [r5, #16]!
.Ltmp39:
	@DEBUG_VALUE: _M_fill_initialize:this <- %R5
	@DEBUG_VALUE: vector:this <- %R5
	.loc	7 187 59                @ /usr/bin/../lib/gcc/arm-linux-gnueabihf/6.3.0/../../../../include/c++/6.3.0/bits/stl_vector.h:187:59
	add	r6, r0, #2048
	.loc	7 187 34 is_stmt 0      @ /usr/bin/../lib/gcc/arm-linux-gnueabihf/6.3.0/../../../../include/c++/6.3.0/bits/stl_vector.h:187:34
	str	r6, [r4, #24]
.Ltmp40:
	@DEBUG_VALUE: __niter <- 512
	@DEBUG_VALUE: __fill_n_a<float *, unsigned int, float>:__n <- 512
	@DEBUG_VALUE: fill_n<float *, unsigned int, float>:__n <- 512
	@DEBUG_VALUE: __uninit_fill_n<float *, unsigned int, float>:__n <- 512
	@DEBUG_VALUE: uninitialized_fill_n<float *, unsigned int, float>:__assignable <- 1
	@DEBUG_VALUE: uninitialized_fill_n<float *, unsigned int, float>:__n <- 512
	@DEBUG_VALUE: __uninitialized_fill_n_a<float *, unsigned int, float, float>:__n <- 512
	@DEBUG_VALUE: _M_fill_initialize:__n <- 512
	.loc	37 754 11 is_stmt 1     @ /usr/bin/../lib/gcc/arm-linux-gnueabihf/6.3.0/../../../../include/c++/6.3.0/bits/stl_algobase.h:754:11
	bl	memset
.Ltmp41:
	.loc	9 27 5 discriminator 9  @ /root/Bela/projects/SOFAlizer-for-Bela/filtering_test.cpp:27:5
	movw	r0, :lower16:_ZNSt6vectorIfSaIfEED2Ev
	movw	r2, :lower16:__dso_handle
	movt	r0, :upper16:_ZNSt6vectorIfSaIfEED2Ev
	movt	r2, :upper16:__dso_handle
	mov	r1, r5
.Ltmp42:
	.loc	7 1298 26               @ /usr/bin/../lib/gcc/arm-linux-gnueabihf/6.3.0/../../../../include/c++/6.3.0/bits/stl_vector.h:1298:26
	str	r6, [r4, #20]
.Ltmp43:
	.loc	9 27 5 discriminator 9  @ /root/Bela/projects/SOFAlizer-for-Bela/filtering_test.cpp:27:5
	bl	__cxa_atexit
	.loc	9 27 5 is_stmt 0 discriminator 10 @ /root/Bela/projects/SOFAlizer-for-Bela/filtering_test.cpp:27:5
	mov	r0, r4
	bl	__cxa_guard_release
	.loc	9 27 5                  @ /root/Bela/projects/SOFAlizer-for-Bela/filtering_test.cpp:27:5
	movw	r6, :lower16:.L_MergedGlobals
	movt	r6, :upper16:.L_MergedGlobals
.Ltmp44:
.LBB0_8:
	@DEBUG_VALUE: operator[]:__n <- %R10
	@DEBUG_VALUE: operator[]:__n <- %R10
	@DEBUG_VALUE: operator[]:__n <- %R10
	@DEBUG_VALUE: operator[]:__n <- %R10
	@DEBUG_VALUE: operator[]:__n <- %R10
	@DEBUG_VALUE: operator[]:__n <- %R10
	@DEBUG_VALUE: operator[]:__n <- %R10
	@DEBUG_VALUE: operator[]:__n <- %R10
	@DEBUG_VALUE: operator[]:__n <- %R10
	@DEBUG_VALUE: operator[]:__n <- %R10
	@DEBUG_VALUE: operator[]:__n <- %R10
	@DEBUG_VALUE: operator[]:__n <- %R10
	@DEBUG_VALUE: operator[]:__n <- %R10
	@DEBUG_VALUE: operator[]:__n <- %R10
	@DEBUG_VALUE: operator[]:__n <- %R10
	@DEBUG_VALUE: operator[]:__n <- %R10
	@DEBUG_VALUE: filtering_multiple_positions_cpu:hrtf_num2 <- %R10
	@DEBUG_VALUE: filtering_multiple_positions_cpu:hrtfdata <- %R9
	@DEBUG_VALUE: filtering_multiple_positions_cpu:incBuff <- %R7
	@DEBUG_VALUE: filtering_multiple_positions_cpu:in_read_ptr <- %R8
	.loc	9 28 5 is_stmt 1        @ /root/Bela/projects/SOFAlizer-for-Bela/filtering_test.cpp:28:5
	ldrb	r0, [r6, #4]
	dmb	ish
	tst	r0, #1
	bne	.LBB0_12
.Ltmp45:
@ BB#9:
	@DEBUG_VALUE: operator[]:__n <- %R10
	@DEBUG_VALUE: operator[]:__n <- %R10
	@DEBUG_VALUE: operator[]:__n <- %R10
	@DEBUG_VALUE: operator[]:__n <- %R10
	@DEBUG_VALUE: operator[]:__n <- %R10
	@DEBUG_VALUE: operator[]:__n <- %R10
	@DEBUG_VALUE: operator[]:__n <- %R10
	@DEBUG_VALUE: operator[]:__n <- %R10
	@DEBUG_VALUE: operator[]:__n <- %R10
	@DEBUG_VALUE: operator[]:__n <- %R10
	@DEBUG_VALUE: operator[]:__n <- %R10
	@DEBUG_VALUE: operator[]:__n <- %R10
	@DEBUG_VALUE: operator[]:__n <- %R10
	@DEBUG_VALUE: operator[]:__n <- %R10
	@DEBUG_VALUE: operator[]:__n <- %R10
	@DEBUG_VALUE: operator[]:__n <- %R10
	@DEBUG_VALUE: filtering_multiple_positions_cpu:hrtf_num2 <- %R10
	@DEBUG_VALUE: filtering_multiple_positions_cpu:hrtfdata <- %R9
	@DEBUG_VALUE: filtering_multiple_positions_cpu:incBuff <- %R7
	@DEBUG_VALUE: filtering_multiple_positions_cpu:in_read_ptr <- %R8
	.loc	9 28 5 is_stmt 0 discriminator 1 @ /root/Bela/projects/SOFAlizer-for-Bela/filtering_test.cpp:28:5
	add	r4, r6, #4
	mov	r0, r4
	bl	__cxa_guard_acquire
	cmp	r0, #0
	beq	.LBB0_12
.Ltmp46:
@ BB#10:
	@DEBUG_VALUE: operator[]:__n <- %R10
	@DEBUG_VALUE: operator[]:__n <- %R10
	@DEBUG_VALUE: operator[]:__n <- %R10
	@DEBUG_VALUE: operator[]:__n <- %R10
	@DEBUG_VALUE: operator[]:__n <- %R10
	@DEBUG_VALUE: operator[]:__n <- %R10
	@DEBUG_VALUE: operator[]:__n <- %R10
	@DEBUG_VALUE: operator[]:__n <- %R10
	@DEBUG_VALUE: operator[]:__n <- %R10
	@DEBUG_VALUE: operator[]:__n <- %R10
	@DEBUG_VALUE: operator[]:__n <- %R10
	@DEBUG_VALUE: operator[]:__n <- %R10
	@DEBUG_VALUE: operator[]:__n <- %R10
	@DEBUG_VALUE: operator[]:__n <- %R10
	@DEBUG_VALUE: operator[]:__n <- %R10
	@DEBUG_VALUE: operator[]:__n <- %R10
	@DEBUG_VALUE: filtering_multiple_positions_cpu:hrtf_num2 <- %R10
	@DEBUG_VALUE: filtering_multiple_positions_cpu:hrtfdata <- %R9
	@DEBUG_VALUE: filtering_multiple_positions_cpu:incBuff <- %R7
	@DEBUG_VALUE: filtering_multiple_positions_cpu:in_read_ptr <- %R8
	@DEBUG_VALUE: vector:__n <- 512
	@DEBUG_VALUE: _Vector_base:__n <- 512
	mov	r0, #0
.Ltmp47:
	@DEBUG_VALUE: allocate:__n <- 512
	@DEBUG_VALUE: allocate:__n <- 512
	@DEBUG_VALUE: _M_allocate:__n <- 512
	@DEBUG_VALUE: _M_create_storage:__n <- 512
	.loc	7 91 25 is_stmt 1       @ /usr/bin/../lib/gcc/arm-linux-gnueabihf/6.3.0/../../../../include/c++/6.3.0/bits/stl_vector.h:91:25
	str	r0, [r6, #28]
	.loc	7 91 37 is_stmt 0       @ /usr/bin/../lib/gcc/arm-linux-gnueabihf/6.3.0/../../../../include/c++/6.3.0/bits/stl_vector.h:91:37
	str	r0, [r6, #32]
	.loc	7 91 50                 @ /usr/bin/../lib/gcc/arm-linux-gnueabihf/6.3.0/../../../../include/c++/6.3.0/bits/stl_vector.h:91:50
	str	r0, [r6, #36]
.Ltmp48:
	.loc	3 104 27 is_stmt 1      @ /usr/bin/../lib/gcc/arm-linux-gnueabihf/6.3.0/../../../../include/c++/6.3.0/ext/new_allocator.h:104:27
.Ltmp3:
	mov	r0, #2048
	bl	_Znwj
.Ltmp4:
.Ltmp49:
@ BB#11:                                @ %.noexc154
	@DEBUG_VALUE: operator[]:__n <- %R10
	@DEBUG_VALUE: operator[]:__n <- %R10
	@DEBUG_VALUE: operator[]:__n <- %R10
	@DEBUG_VALUE: operator[]:__n <- %R10
	@DEBUG_VALUE: operator[]:__n <- %R10
	@DEBUG_VALUE: operator[]:__n <- %R10
	@DEBUG_VALUE: operator[]:__n <- %R10
	@DEBUG_VALUE: operator[]:__n <- %R10
	@DEBUG_VALUE: operator[]:__n <- %R10
	@DEBUG_VALUE: operator[]:__n <- %R10
	@DEBUG_VALUE: operator[]:__n <- %R10
	@DEBUG_VALUE: operator[]:__n <- %R10
	@DEBUG_VALUE: operator[]:__n <- %R10
	@DEBUG_VALUE: operator[]:__n <- %R10
	@DEBUG_VALUE: operator[]:__n <- %R10
	@DEBUG_VALUE: operator[]:__n <- %R10
	@DEBUG_VALUE: filtering_multiple_positions_cpu:hrtf_num2 <- %R10
	@DEBUG_VALUE: filtering_multiple_positions_cpu:hrtfdata <- %R9
	@DEBUG_VALUE: filtering_multiple_positions_cpu:incBuff <- %R7
	@DEBUG_VALUE: filtering_multiple_positions_cpu:in_read_ptr <- %R8
	.loc	7 185 25                @ /usr/bin/../lib/gcc/arm-linux-gnueabihf/6.3.0/../../../../include/c++/6.3.0/bits/stl_vector.h:185:25
	mov	r4, r6
.Ltmp50:
	.loc	37 754 11               @ /usr/bin/../lib/gcc/arm-linux-gnueabihf/6.3.0/../../../../include/c++/6.3.0/bits/stl_algobase.h:754:11
	mov	r1, #0
.Ltmp51:
	.loc	7 185 25                @ /usr/bin/../lib/gcc/arm-linux-gnueabihf/6.3.0/../../../../include/c++/6.3.0/bits/stl_vector.h:185:25
	str	r0, [r4, #28]!
.Ltmp52:
	@DEBUG_VALUE: _M_fill_initialize:this <- %R4
	@DEBUG_VALUE: vector:this <- %R4
	.loc	37 754 11               @ /usr/bin/../lib/gcc/arm-linux-gnueabihf/6.3.0/../../../../include/c++/6.3.0/bits/stl_algobase.h:754:11
	mov	r2, #2048
.Ltmp53:
	.loc	7 187 59                @ /usr/bin/../lib/gcc/arm-linux-gnueabihf/6.3.0/../../../../include/c++/6.3.0/bits/stl_vector.h:187:59
	add	r5, r0, #2048
	.loc	7 187 34 is_stmt 0      @ /usr/bin/../lib/gcc/arm-linux-gnueabihf/6.3.0/../../../../include/c++/6.3.0/bits/stl_vector.h:187:34
	str	r5, [r4, #8]
.Ltmp54:
	@DEBUG_VALUE: __niter <- 512
	@DEBUG_VALUE: __fill_n_a<float *, unsigned int, float>:__n <- 512
	@DEBUG_VALUE: fill_n<float *, unsigned int, float>:__n <- 512
	@DEBUG_VALUE: __uninit_fill_n<float *, unsigned int, float>:__n <- 512
	@DEBUG_VALUE: uninitialized_fill_n<float *, unsigned int, float>:__assignable <- 1
	@DEBUG_VALUE: uninitialized_fill_n<float *, unsigned int, float>:__n <- 512
	@DEBUG_VALUE: __uninitialized_fill_n_a<float *, unsigned int, float, float>:__n <- 512
	@DEBUG_VALUE: _M_fill_initialize:__n <- 512
	.loc	37 754 11 is_stmt 1     @ /usr/bin/../lib/gcc/arm-linux-gnueabihf/6.3.0/../../../../include/c++/6.3.0/bits/stl_algobase.h:754:11
	bl	memset
.Ltmp55:
	.loc	9 28 5 discriminator 9  @ /root/Bela/projects/SOFAlizer-for-Bela/filtering_test.cpp:28:5
	movw	r0, :lower16:_ZNSt6vectorIfSaIfEED2Ev
	movw	r2, :lower16:__dso_handle
	movt	r0, :upper16:_ZNSt6vectorIfSaIfEED2Ev
	movt	r2, :upper16:__dso_handle
	mov	r1, r4
.Ltmp56:
	.loc	7 1298 26               @ /usr/bin/../lib/gcc/arm-linux-gnueabihf/6.3.0/../../../../include/c++/6.3.0/bits/stl_vector.h:1298:26
	str	r5, [r4, #4]
.Ltmp57:
	.loc	9 28 5 discriminator 9  @ /root/Bela/projects/SOFAlizer-for-Bela/filtering_test.cpp:28:5
	bl	__cxa_atexit
	.loc	9 28 5 is_stmt 0 discriminator 10 @ /root/Bela/projects/SOFAlizer-for-Bela/filtering_test.cpp:28:5
	sub	r0, r4, #24
	bl	__cxa_guard_release
.Ltmp58:
.LBB0_12:                               @ %.preheader165
	@DEBUG_VALUE: operator[]:__n <- %R10
	@DEBUG_VALUE: operator[]:__n <- %R10
	@DEBUG_VALUE: operator[]:__n <- %R10
	@DEBUG_VALUE: operator[]:__n <- %R10
	@DEBUG_VALUE: operator[]:__n <- %R10
	@DEBUG_VALUE: operator[]:__n <- %R10
	@DEBUG_VALUE: operator[]:__n <- %R10
	@DEBUG_VALUE: operator[]:__n <- %R10
	@DEBUG_VALUE: operator[]:__n <- %R10
	@DEBUG_VALUE: operator[]:__n <- %R10
	@DEBUG_VALUE: operator[]:__n <- %R10
	@DEBUG_VALUE: operator[]:__n <- %R10
	@DEBUG_VALUE: operator[]:__n <- %R10
	@DEBUG_VALUE: operator[]:__n <- %R10
	@DEBUG_VALUE: operator[]:__n <- %R10
	@DEBUG_VALUE: operator[]:__n <- %R10
	@DEBUG_VALUE: filtering_multiple_positions_cpu:hrtf_num2 <- %R10
	@DEBUG_VALUE: filtering_multiple_positions_cpu:hrtfdata <- %R9
	@DEBUG_VALUE: filtering_multiple_positions_cpu:incBuff <- %R7
	@DEBUG_VALUE: filtering_multiple_positions_cpu:in_read_ptr <- %R8
	@DEBUG_VALUE: filtering_multiple_positions_cpu:out_write_ptr <- undef
	.loc	7 796 32 is_stmt 1      @ /usr/bin/../lib/gcc/arm-linux-gnueabihf/6.3.0/../../../../include/c++/6.3.0/bits/stl_vector.h:796:32
	ldr	r0, [r7]
.Ltmp59:
	.loc	9 31 5 discriminator 1  @ /root/Bela/projects/SOFAlizer-for-Bela/filtering_test.cpp:31:5
	add	r2, r8, #768
.Ltmp60:
	.loc	7 796 32                @ /usr/bin/../lib/gcc/arm-linux-gnueabihf/6.3.0/../../../../include/c++/6.3.0/bits/stl_vector.h:796:32
	ldr	r1, [r7, #12]
.Ltmp61:
	.loc	7 781 32                @ /usr/bin/../lib/gcc/arm-linux-gnueabihf/6.3.0/../../../../include/c++/6.3.0/bits/stl_vector.h:781:32
	ldr	r3, [r6, #16]
.Ltmp62:
	.loc	7 781 32 is_stmt 0      @ /usr/bin/../lib/gcc/arm-linux-gnueabihf/6.3.0/../../../../include/c++/6.3.0/bits/stl_vector.h:781:32
	ldr	r7, [r6, #28]
.Ltmp63:
	mov	r6, #0
.Ltmp64:
.LBB0_13:                               @ =>This Inner Loop Header: Depth=1
	.loc	9 32 58 is_stmt 1       @ /root/Bela/projects/SOFAlizer-for-Bela/filtering_test.cpp:32:58
	add	r5, r2, r6
.Ltmp65:
	@DEBUG_VALUE: operator[]:__n <- %R6
	bfc	r5, #10, #22
.Ltmp66:
	@DEBUG_VALUE: operator[]:__n <- %R5
	@DEBUG_VALUE: in_buff_idx <- %R5
	@DEBUG_VALUE: operator[]:__n <- %R5
	.loc	9 33 32                 @ /root/Bela/projects/SOFAlizer-for-Bela/filtering_test.cpp:33:32
	ldr	r4, [r0, r5, lsl #2]
	.loc	9 33 30 is_stmt 0       @ /root/Bela/projects/SOFAlizer-for-Bela/filtering_test.cpp:33:30
	str	r4, [r3, r6, lsl #2]
	.loc	9 34 33 is_stmt 1       @ /root/Bela/projects/SOFAlizer-for-Bela/filtering_test.cpp:34:33
	ldr	r5, [r1, r5, lsl #2]
.Ltmp67:
	.loc	9 34 31 is_stmt 0       @ /root/Bela/projects/SOFAlizer-for-Bela/filtering_test.cpp:34:31
	str	r5, [r7, r6, lsl #2]
.Ltmp68:
	.loc	9 31 40 is_stmt 1 discriminator 3 @ /root/Bela/projects/SOFAlizer-for-Bela/filtering_test.cpp:31:40
	add	r6, r6, #1
.Ltmp69:
	@DEBUG_VALUE: i <- %R6
	.loc	9 31 5 is_stmt 0 discriminator 1 @ /root/Bela/projects/SOFAlizer-for-Bela/filtering_test.cpp:31:5
	cmp	r6, #256
	bne	.LBB0_13
.Ltmp70:
@ BB#14:
	@DEBUG_VALUE: i <- %R6
	.loc	9 27 5 is_stmt 1        @ /root/Bela/projects/SOFAlizer-for-Bela/filtering_test.cpp:27:5
	movw	r0, :lower16:.L_MergedGlobals
	.loc	9 38 15                 @ /root/Bela/projects/SOFAlizer-for-Bela/filtering_test.cpp:38:15
	movw	r4, :lower16:chInL_FFT
	.loc	9 27 5                  @ /root/Bela/projects/SOFAlizer-for-Bela/filtering_test.cpp:27:5
	movt	r0, :upper16:.L_MergedGlobals
	.loc	9 38 15                 @ /root/Bela/projects/SOFAlizer-for-Bela/filtering_test.cpp:38:15
	movt	r4, :upper16:chInL_FFT
	mov	r5, r0
	add	r1, r5, #16
.Ltmp71:
	@DEBUG_VALUE: operator[]:this <- %R1
	mov	r0, r4
	bl	_ZN3Fft3fftERKSt6vectorIfSaIfEE
.Ltmp72:
	.loc	9 39 15                 @ /root/Bela/projects/SOFAlizer-for-Bela/filtering_test.cpp:39:15
	add	r1, r5, #28
.Ltmp73:
	@DEBUG_VALUE: operator[]:this <- %R1
	movw	r5, :lower16:chInR_FFT
	movt	r5, :upper16:chInR_FFT
	mov	r0, r5
	bl	_ZN3Fft3fftERKSt6vectorIfSaIfEE
.Ltmp74:
	mov	r0, #164
.Ltmp75:
	.loc	7 781 32                @ /usr/bin/../lib/gcc/arm-linux-gnueabihf/6.3.0/../../../../include/c++/6.3.0/bits/stl_vector.h:781:32
	ldr	r1, [r9]
.Ltmp76:
	.loc	7 781 32 is_stmt 0      @ /usr/bin/../lib/gcc/arm-linux-gnueabihf/6.3.0/../../../../include/c++/6.3.0/bits/stl_vector.h:781:32
	mla	r0, r10, r0, r1
.Ltmp77:
	.file	38 "/root/Bela/projects/SOFAlizer-for-Bela" "fft.h"
	.loc	38 46 44 is_stmt 1      @ /root/Bela/projects/SOFAlizer-for-Bela/fft.h:46:44
	ldr	r1, [r5, #4]
.Ltmp78:
	.loc	38 50 38                @ /root/Bela/projects/SOFAlizer-for-Bela/fft.h:50:38
	str	r1, [sp, #20]           @ 4-byte Spill
	movw	r1, :lower16:outRightFFT
.Ltmp79:
	.loc	38 46 44                @ /root/Bela/projects/SOFAlizer-for-Bela/fft.h:46:44
	ldr	r2, [r4, #4]
.Ltmp80:
	.loc	38 50 38                @ /root/Bela/projects/SOFAlizer-for-Bela/fft.h:50:38
	movt	r1, :upper16:outRightFFT
	str	r2, [sp, #16]           @ 4-byte Spill
	ldr	r1, [r1, #4]
	mov	r4, #0
.Ltmp81:
	.loc	38 50 38 is_stmt 0      @ /root/Bela/projects/SOFAlizer-for-Bela/fft.h:50:38
	str	r1, [sp, #12]           @ 4-byte Spill
	movw	r1, :lower16:outLeftFFT
	movt	r1, :upper16:outLeftFFT
.Ltmp82:
	.loc	9 53 174 is_stmt 1      @ /root/Bela/projects/SOFAlizer-for-Bela/filtering_test.cpp:53:174
	vldr	s0, .LCPI0_0
.Ltmp83:
	.loc	38 50 38                @ /root/Bela/projects/SOFAlizer-for-Bela/fft.h:50:38
	ldr	r1, [r1, #4]
.Ltmp84:
	.loc	7 781 32                @ /usr/bin/../lib/gcc/arm-linux-gnueabihf/6.3.0/../../../../include/c++/6.3.0/bits/stl_vector.h:781:32
	str	r1, [sp, #8]            @ 4-byte Spill
	ldr	r6, [r0, #120]
.Ltmp85:
	.loc	7 781 32 is_stmt 0      @ /usr/bin/../lib/gcc/arm-linux-gnueabihf/6.3.0/../../../../include/c++/6.3.0/bits/stl_vector.h:781:32
	ldr	r0, [r0, #132]
	str	r0, [sp, #24]           @ 4-byte Spill
.Ltmp86:
	@DEBUG_VALUE: i <- 0
.LBB0_15:                               @ =>This Loop Header: Depth=1
                                        @     Child Loop BB0_16 Depth 2
	@DEBUG_VALUE: fdr:n <- %R4
	.loc	9 46 27 is_stmt 1       @ /root/Bela/projects/SOFAlizer-for-Bela/filtering_test.cpp:46:27
	ldr	r3, [sp, #8]            @ 4-byte Reload
	mov	r0, #0
	mov	r5, #0
	str	r0, [r3, r4, lsl #3]!
	.loc	9 47 27                 @ /root/Bela/projects/SOFAlizer-for-Bela/filtering_test.cpp:47:27
	mov	r1, r3
	str	r0, [r1, #4]!
	.loc	9 48 28                 @ /root/Bela/projects/SOFAlizer-for-Bela/filtering_test.cpp:48:28
	ldr	r2, [sp, #12]           @ 4-byte Reload
	str	r0, [r2, r4, lsl #3]!
	.loc	9 49 28                 @ /root/Bela/projects/SOFAlizer-for-Bela/filtering_test.cpp:49:28
	mov	r10, r2
	str	r0, [r10, #4]!
.Ltmp87:
	.loc	9 60 53                 @ /root/Bela/projects/SOFAlizer-for-Bela/filtering_test.cpp:60:53
	ldr	r0, [sp, #20]           @ 4-byte Reload
	add	r12, r0, r4, lsl #3
.Ltmp88:
	@DEBUG_VALUE: pos <- 0
	.loc	9 53 53                 @ /root/Bela/projects/SOFAlizer-for-Bela/filtering_test.cpp:53:53
	ldr	r0, [sp, #16]           @ 4-byte Reload
	.loc	9 60 123                @ /root/Bela/projects/SOFAlizer-for-Bela/filtering_test.cpp:60:123
	add	lr, r12, #4
	.loc	9 53 53                 @ /root/Bela/projects/SOFAlizer-for-Bela/filtering_test.cpp:53:53
	add	r9, r0, r4, lsl #3
	.loc	9 53 123 is_stmt 0      @ /root/Bela/projects/SOFAlizer-for-Bela/filtering_test.cpp:53:123
	add	r0, r9, #4
.Ltmp89:
.LBB0_16:                               @   Parent Loop BB0_15 Depth=1
                                        @ =>  This Inner Loop Header: Depth=2
	.loc	9 53 57                 @ /root/Bela/projects/SOFAlizer-for-Bela/filtering_test.cpp:53:57
	ldr	r7, [r6, -r5, lsl #2]
.Ltmp90:
	@DEBUG_VALUE: fd:this <- %R7
	@DEBUG_VALUE: fd:this <- %R7
	@DEBUG_VALUE: fd:this <- %R7
	@DEBUG_VALUE: fd:this <- %R7
	@DEBUG_VALUE: fd:this <- %R7
	@DEBUG_VALUE: fd:this <- %R7
	@DEBUG_VALUE: fd:this <- %R7
	@DEBUG_VALUE: fd:this <- %R7
	.loc	9 53 123                @ /root/Bela/projects/SOFAlizer-for-Bela/filtering_test.cpp:53:123
	vldr	s6, [r0]
	.loc	9 53 53                 @ /root/Bela/projects/SOFAlizer-for-Bela/filtering_test.cpp:53:53
	vldr	s8, [r9]
.Ltmp91:
	.loc	38 46 44 is_stmt 1      @ /root/Bela/projects/SOFAlizer-for-Bela/fft.h:46:44
	ldr	r7, [r7, #4]
.Ltmp92:
	.loc	9 53 101                @ /root/Bela/projects/SOFAlizer-for-Bela/filtering_test.cpp:53:101
	add	r8, r7, r4, lsl #3
	vldr	s2, [r8]
	.loc	9 53 171 is_stmt 0      @ /root/Bela/projects/SOFAlizer-for-Bela/filtering_test.cpp:53:171
	vldr	s4, [r8, #4]
	.loc	9 53 55                 @ /root/Bela/projects/SOFAlizer-for-Bela/filtering_test.cpp:53:55
	vmul.f32	d17, d1, d4
	.loc	9 53 31                 @ /root/Bela/projects/SOFAlizer-for-Bela/filtering_test.cpp:53:31
	vldr	s2, [r3]
	.loc	9 53 125                @ /root/Bela/projects/SOFAlizer-for-Bela/filtering_test.cpp:53:125
	vmul.f32	d16, d2, d3
	.loc	9 53 103                @ /root/Bela/projects/SOFAlizer-for-Bela/filtering_test.cpp:53:103
	vsub.f32	d16, d17, d16
	.loc	9 53 174                @ /root/Bela/projects/SOFAlizer-for-Bela/filtering_test.cpp:53:174
	vmul.f32	d16, d16, d0
	.loc	9 53 31                 @ /root/Bela/projects/SOFAlizer-for-Bela/filtering_test.cpp:53:31
	vadd.f32	d1, d16, d1
	vstr	s2, [r3]
	.loc	9 54 171 is_stmt 1      @ /root/Bela/projects/SOFAlizer-for-Bela/filtering_test.cpp:54:171
	vldr	s2, [r8]
	.loc	9 54 123 is_stmt 0      @ /root/Bela/projects/SOFAlizer-for-Bela/filtering_test.cpp:54:123
	vldr	s8, [r0]
	.loc	9 54 101                @ /root/Bela/projects/SOFAlizer-for-Bela/filtering_test.cpp:54:101
	vldr	s4, [r8, #4]
	.loc	9 54 53                 @ /root/Bela/projects/SOFAlizer-for-Bela/filtering_test.cpp:54:53
	vldr	s6, [r9]
	.loc	9 54 125                @ /root/Bela/projects/SOFAlizer-for-Bela/filtering_test.cpp:54:125
	vmul.f32	d17, d1, d4
	.loc	9 54 31                 @ /root/Bela/projects/SOFAlizer-for-Bela/filtering_test.cpp:54:31
	vldr	s2, [r1]
	.loc	9 54 55                 @ /root/Bela/projects/SOFAlizer-for-Bela/filtering_test.cpp:54:55
	vmul.f32	d16, d2, d3
	.loc	9 54 103                @ /root/Bela/projects/SOFAlizer-for-Bela/filtering_test.cpp:54:103
	vadd.f32	d16, d17, d16
	.loc	9 54 174                @ /root/Bela/projects/SOFAlizer-for-Bela/filtering_test.cpp:54:174
	vmul.f32	d16, d16, d0
	.loc	9 54 31                 @ /root/Bela/projects/SOFAlizer-for-Bela/filtering_test.cpp:54:31
	vadd.f32	d1, d16, d1
	vstr	s2, [r1]
	.loc	9 56 58 is_stmt 1       @ /root/Bela/projects/SOFAlizer-for-Bela/filtering_test.cpp:56:58
	ldr	r7, [sp, #24]           @ 4-byte Reload
	.loc	9 56 125 is_stmt 0      @ /root/Bela/projects/SOFAlizer-for-Bela/filtering_test.cpp:56:125
	vldr	s6, [r0]
	.loc	9 56 54                 @ /root/Bela/projects/SOFAlizer-for-Bela/filtering_test.cpp:56:54
	vldr	s8, [r9]
	.loc	9 56 58                 @ /root/Bela/projects/SOFAlizer-for-Bela/filtering_test.cpp:56:58
	ldr	r7, [r7, -r5, lsl #2]
.Ltmp93:
	@DEBUG_VALUE: fd:this <- %R7
	@DEBUG_VALUE: fd:this <- %R7
	@DEBUG_VALUE: fd:this <- %R7
	@DEBUG_VALUE: fd:this <- %R7
	@DEBUG_VALUE: fd:this <- %R7
	@DEBUG_VALUE: fd:this <- %R7
	@DEBUG_VALUE: fd:this <- %R7
	@DEBUG_VALUE: fd:this <- %R7
	.loc	9 51 9 is_stmt 1 discriminator 1 @ /root/Bela/projects/SOFAlizer-for-Bela/filtering_test.cpp:51:9
	sub	r5, r5, #1
	cmn	r5, #65
.Ltmp94:
	.loc	38 46 44                @ /root/Bela/projects/SOFAlizer-for-Bela/fft.h:46:44
	ldr	r7, [r7, #4]
.Ltmp95:
	.loc	9 56 103                @ /root/Bela/projects/SOFAlizer-for-Bela/filtering_test.cpp:56:103
	add	r7, r7, r4, lsl #3
	vldr	s2, [r7]
	.loc	9 56 174 is_stmt 0      @ /root/Bela/projects/SOFAlizer-for-Bela/filtering_test.cpp:56:174
	vldr	s4, [r7, #4]
	.loc	9 56 56                 @ /root/Bela/projects/SOFAlizer-for-Bela/filtering_test.cpp:56:56
	vmul.f32	d17, d1, d4
	.loc	9 56 32                 @ /root/Bela/projects/SOFAlizer-for-Bela/filtering_test.cpp:56:32
	vldr	s2, [r2]
	.loc	9 56 127                @ /root/Bela/projects/SOFAlizer-for-Bela/filtering_test.cpp:56:127
	vmul.f32	d16, d2, d3
	.loc	9 56 105                @ /root/Bela/projects/SOFAlizer-for-Bela/filtering_test.cpp:56:105
	vsub.f32	d16, d17, d16
	.loc	9 56 177                @ /root/Bela/projects/SOFAlizer-for-Bela/filtering_test.cpp:56:177
	vmul.f32	d16, d16, d0
	.loc	9 56 32                 @ /root/Bela/projects/SOFAlizer-for-Bela/filtering_test.cpp:56:32
	vadd.f32	d1, d16, d1
	vstr	s2, [r2]
	.loc	9 57 174 is_stmt 1      @ /root/Bela/projects/SOFAlizer-for-Bela/filtering_test.cpp:57:174
	vldr	s2, [r7]
	.loc	9 57 125 is_stmt 0      @ /root/Bela/projects/SOFAlizer-for-Bela/filtering_test.cpp:57:125
	vldr	s8, [r0]
	.loc	9 57 103                @ /root/Bela/projects/SOFAlizer-for-Bela/filtering_test.cpp:57:103
	vldr	s4, [r7, #4]
	.loc	9 57 54                 @ /root/Bela/projects/SOFAlizer-for-Bela/filtering_test.cpp:57:54
	vldr	s6, [r9]
	.loc	9 57 127                @ /root/Bela/projects/SOFAlizer-for-Bela/filtering_test.cpp:57:127
	vmul.f32	d17, d1, d4
	.loc	9 57 32                 @ /root/Bela/projects/SOFAlizer-for-Bela/filtering_test.cpp:57:32
	vldr	s2, [r10]
	.loc	9 57 56                 @ /root/Bela/projects/SOFAlizer-for-Bela/filtering_test.cpp:57:56
	vmul.f32	d16, d2, d3
	.loc	9 57 105                @ /root/Bela/projects/SOFAlizer-for-Bela/filtering_test.cpp:57:105
	vadd.f32	d16, d17, d16
	.loc	9 57 177                @ /root/Bela/projects/SOFAlizer-for-Bela/filtering_test.cpp:57:177
	vmul.f32	d16, d16, d0
	.loc	9 57 32                 @ /root/Bela/projects/SOFAlizer-for-Bela/filtering_test.cpp:57:32
	vadd.f32	d1, d16, d1
	vstr	s2, [r10]
	.loc	9 60 101 is_stmt 1      @ /root/Bela/projects/SOFAlizer-for-Bela/filtering_test.cpp:60:101
	vldr	s2, [r8]
	.loc	9 60 53 is_stmt 0       @ /root/Bela/projects/SOFAlizer-for-Bela/filtering_test.cpp:60:53
	vldr	s8, [r12]
	.loc	9 60 171                @ /root/Bela/projects/SOFAlizer-for-Bela/filtering_test.cpp:60:171
	vldr	s4, [r8, #4]
	.loc	9 60 123                @ /root/Bela/projects/SOFAlizer-for-Bela/filtering_test.cpp:60:123
	vldr	s6, [lr]
	.loc	9 60 55                 @ /root/Bela/projects/SOFAlizer-for-Bela/filtering_test.cpp:60:55
	vmul.f32	d17, d1, d4
	.loc	9 60 31                 @ /root/Bela/projects/SOFAlizer-for-Bela/filtering_test.cpp:60:31
	vldr	s2, [r3]
	.loc	9 60 125                @ /root/Bela/projects/SOFAlizer-for-Bela/filtering_test.cpp:60:125
	vmul.f32	d16, d2, d3
	.loc	9 60 103                @ /root/Bela/projects/SOFAlizer-for-Bela/filtering_test.cpp:60:103
	vsub.f32	d16, d17, d16
	.loc	9 60 174                @ /root/Bela/projects/SOFAlizer-for-Bela/filtering_test.cpp:60:174
	vmul.f32	d16, d16, d0
	.loc	9 60 31                 @ /root/Bela/projects/SOFAlizer-for-Bela/filtering_test.cpp:60:31
	vadd.f32	d1, d16, d1
	vstr	s2, [r3]
	.loc	9 61 171 is_stmt 1      @ /root/Bela/projects/SOFAlizer-for-Bela/filtering_test.cpp:61:171
	vldr	s2, [r8]
	.loc	9 61 123 is_stmt 0      @ /root/Bela/projects/SOFAlizer-for-Bela/filtering_test.cpp:61:123
	vldr	s8, [lr]
	.loc	9 61 101                @ /root/Bela/projects/SOFAlizer-for-Bela/filtering_test.cpp:61:101
	vldr	s4, [r8, #4]
	.loc	9 61 53                 @ /root/Bela/projects/SOFAlizer-for-Bela/filtering_test.cpp:61:53
	vldr	s6, [r12]
	.loc	9 61 125                @ /root/Bela/projects/SOFAlizer-for-Bela/filtering_test.cpp:61:125
	vmul.f32	d17, d1, d4
	.loc	9 61 31                 @ /root/Bela/projects/SOFAlizer-for-Bela/filtering_test.cpp:61:31
	vldr	s2, [r1]
	.loc	9 61 55                 @ /root/Bela/projects/SOFAlizer-for-Bela/filtering_test.cpp:61:55
	vmul.f32	d16, d2, d3
	.loc	9 61 103                @ /root/Bela/projects/SOFAlizer-for-Bela/filtering_test.cpp:61:103
	vadd.f32	d16, d17, d16
	.loc	9 61 174                @ /root/Bela/projects/SOFAlizer-for-Bela/filtering_test.cpp:61:174
	vmul.f32	d16, d16, d0
	.loc	9 61 31                 @ /root/Bela/projects/SOFAlizer-for-Bela/filtering_test.cpp:61:31
	vadd.f32	d1, d16, d1
	vstr	s2, [r1]
	.loc	9 63 103 is_stmt 1      @ /root/Bela/projects/SOFAlizer-for-Bela/filtering_test.cpp:63:103
	vldr	s2, [r7]
	.loc	9 63 54 is_stmt 0       @ /root/Bela/projects/SOFAlizer-for-Bela/filtering_test.cpp:63:54
	vldr	s8, [r12]
	.loc	9 63 174                @ /root/Bela/projects/SOFAlizer-for-Bela/filtering_test.cpp:63:174
	vldr	s4, [r7, #4]
	.loc	9 63 125                @ /root/Bela/projects/SOFAlizer-for-Bela/filtering_test.cpp:63:125
	vldr	s6, [lr]
	.loc	9 63 56                 @ /root/Bela/projects/SOFAlizer-for-Bela/filtering_test.cpp:63:56
	vmul.f32	d17, d1, d4
	.loc	9 63 32                 @ /root/Bela/projects/SOFAlizer-for-Bela/filtering_test.cpp:63:32
	vldr	s2, [r2]
	.loc	9 63 127                @ /root/Bela/projects/SOFAlizer-for-Bela/filtering_test.cpp:63:127
	vmul.f32	d16, d2, d3
	.loc	9 63 105                @ /root/Bela/projects/SOFAlizer-for-Bela/filtering_test.cpp:63:105
	vsub.f32	d16, d17, d16
	.loc	9 63 177                @ /root/Bela/projects/SOFAlizer-for-Bela/filtering_test.cpp:63:177
	vmul.f32	d16, d16, d0
	.loc	9 63 32                 @ /root/Bela/projects/SOFAlizer-for-Bela/filtering_test.cpp:63:32
	vadd.f32	d1, d16, d1
	vstr	s2, [r2]
	.loc	9 64 174 is_stmt 1      @ /root/Bela/projects/SOFAlizer-for-Bela/filtering_test.cpp:64:174
	vldr	s2, [r7]
	.loc	9 64 125 is_stmt 0      @ /root/Bela/projects/SOFAlizer-for-Bela/filtering_test.cpp:64:125
	vldr	s8, [lr]
	.loc	9 64 103                @ /root/Bela/projects/SOFAlizer-for-Bela/filtering_test.cpp:64:103
	vldr	s4, [r7, #4]
	.loc	9 64 54                 @ /root/Bela/projects/SOFAlizer-for-Bela/filtering_test.cpp:64:54
	vldr	s6, [r12]
	.loc	9 64 127                @ /root/Bela/projects/SOFAlizer-for-Bela/filtering_test.cpp:64:127
	vmul.f32	d17, d1, d4
	.loc	9 64 32                 @ /root/Bela/projects/SOFAlizer-for-Bela/filtering_test.cpp:64:32
	vldr	s2, [r10]
	.loc	9 64 56                 @ /root/Bela/projects/SOFAlizer-for-Bela/filtering_test.cpp:64:56
	vmul.f32	d16, d2, d3
	.loc	9 64 105                @ /root/Bela/projects/SOFAlizer-for-Bela/filtering_test.cpp:64:105
	vadd.f32	d16, d17, d16
	.loc	9 64 177                @ /root/Bela/projects/SOFAlizer-for-Bela/filtering_test.cpp:64:177
	vmul.f32	d16, d16, d0
	.loc	9 64 32                 @ /root/Bela/projects/SOFAlizer-for-Bela/filtering_test.cpp:64:32
	vadd.f32	d1, d16, d1
	vstr	s2, [r10]
	bne	.LBB0_16
.Ltmp96:
@ BB#17:                                @   in Loop: Header=BB0_15 Depth=1
	.loc	9 44 40 is_stmt 1 discriminator 3 @ /root/Bela/projects/SOFAlizer-for-Bela/filtering_test.cpp:44:40
	add	r4, r4, #1
.Ltmp97:
	@DEBUG_VALUE: i <- %R4
	.loc	9 44 5 is_stmt 0 discriminator 1 @ /root/Bela/projects/SOFAlizer-for-Bela/filtering_test.cpp:44:5
	cmp	r4, #512
	bne	.LBB0_15
.Ltmp98:
@ BB#18:
	@DEBUG_VALUE: i <- %R4
	.loc	9 69 16 is_stmt 1       @ /root/Bela/projects/SOFAlizer-for-Bela/filtering_test.cpp:69:16
	movw	r4, :lower16:outLeftFFT
.Ltmp99:
	movt	r4, :upper16:outLeftFFT
.Ltmp100:
	@DEBUG_VALUE: fdi:this <- %R4
	mov	r0, r4
	bl	_ZN3Fft4ifftEv
	.loc	9 70 17                 @ /root/Bela/projects/SOFAlizer-for-Bela/filtering_test.cpp:70:17
	movw	r5, :lower16:outRightFFT
	movt	r5, :upper16:outRightFFT
.Ltmp101:
	@DEBUG_VALUE: fdi:this <- %R5
	mov	r0, r5
	bl	_ZN3Fft4ifftEv
.Ltmp102:
	.loc	9 72 9                  @ /root/Bela/projects/SOFAlizer-for-Bela/filtering_test.cpp:72:9
	movw	r0, :lower16:bypass
	movt	r0, :upper16:bypass
	ldrb	r0, [r0]
.Ltmp103:
	.loc	9 72 9 is_stmt 0        @ /root/Bela/projects/SOFAlizer-for-Bela/filtering_test.cpp:72:9
	cmp	r0, #0
	beq	.LBB0_21
.Ltmp104:
@ BB#19:                                @ %.preheader163
	@DEBUG_VALUE: fdi:this <- %R5
	@DEBUG_VALUE: fdi:this <- %R4
	.loc	9 27 5 is_stmt 1        @ /root/Bela/projects/SOFAlizer-for-Bela/filtering_test.cpp:27:5
	movw	r2, :lower16:.L_MergedGlobals
	ldr	r1, [sp, #4]            @ 4-byte Reload
	movt	r2, :upper16:.L_MergedGlobals
	ldr	r4, [r11, #8]
.Ltmp105:
	mov	r3, r2
	mov	r7, #0
.Ltmp106:
	.loc	7 781 32                @ /usr/bin/../lib/gcc/arm-linux-gnueabihf/6.3.0/../../../../include/c++/6.3.0/bits/stl_vector.h:781:32
	ldr	r0, [r1]
.Ltmp107:
	.loc	7 781 32 is_stmt 0      @ /usr/bin/../lib/gcc/arm-linux-gnueabihf/6.3.0/../../../../include/c++/6.3.0/bits/stl_vector.h:781:32
	ldr	r2, [r3, #16]
.Ltmp108:
	.loc	7 781 32                @ /usr/bin/../lib/gcc/arm-linux-gnueabihf/6.3.0/../../../../include/c++/6.3.0/bits/stl_vector.h:781:32
	ldr	r1, [r1, #12]
.Ltmp109:
	.loc	7 781 32                @ /usr/bin/../lib/gcc/arm-linux-gnueabihf/6.3.0/../../../../include/c++/6.3.0/bits/stl_vector.h:781:32
	ldr	r3, [r3, #28]
.Ltmp110:
.LBB0_20:                               @ =>This Inner Loop Header: Depth=1
	.loc	9 75 48 is_stmt 1       @ /root/Bela/projects/SOFAlizer-for-Bela/filtering_test.cpp:75:48
	add	r5, r4, r7
.Ltmp111:
	@DEBUG_VALUE: operator[]:__n <- %R7
	.loc	9 76 40                 @ /root/Bela/projects/SOFAlizer-for-Bela/filtering_test.cpp:76:40
	ldr	r6, [r2, r7, lsl #2]
	.loc	9 75 48                 @ /root/Bela/projects/SOFAlizer-for-Bela/filtering_test.cpp:75:48
	bfc	r5, #10, #22
.Ltmp112:
	@DEBUG_VALUE: outcBuffIdx <- %R5
	@DEBUG_VALUE: operator[]:__n <- %R5
	@DEBUG_VALUE: operator[]:__n <- %R5
	.loc	9 76 38                 @ /root/Bela/projects/SOFAlizer-for-Bela/filtering_test.cpp:76:38
	str	r6, [r0, r5, lsl #2]
	.loc	9 77 41                 @ /root/Bela/projects/SOFAlizer-for-Bela/filtering_test.cpp:77:41
	ldr	r6, [r3, r7, lsl #2]
.Ltmp113:
	.loc	9 74 41 discriminator 3 @ /root/Bela/projects/SOFAlizer-for-Bela/filtering_test.cpp:74:41
	add	r7, r7, #1
.Ltmp114:
	@DEBUG_VALUE: i <- %R7
	.loc	9 77 39                 @ /root/Bela/projects/SOFAlizer-for-Bela/filtering_test.cpp:77:39
	str	r6, [r1, r5, lsl #2]
.Ltmp115:
	.loc	9 74 6 discriminator 1  @ /root/Bela/projects/SOFAlizer-for-Bela/filtering_test.cpp:74:6
	cmp	r7, #256
	bne	.LBB0_20
	b	.LBB0_23
.Ltmp116:
.LBB0_21:                               @ %.preheader
	@DEBUG_VALUE: fdi:this <- %R5
	@DEBUG_VALUE: fdi:this <- %R4
	ldr	r1, [sp, #4]            @ 4-byte Reload
	mov	r7, #0
.Ltmp117:
	.loc	38 63 37                @ /root/Bela/projects/SOFAlizer-for-Bela/fft.h:63:37
	ldr	r3, [r4]
.Ltmp118:
	.loc	38 63 37 is_stmt 0      @ /root/Bela/projects/SOFAlizer-for-Bela/fft.h:63:37
	ldr	r2, [r5]
.Ltmp119:
	.loc	7 781 32 is_stmt 1      @ /usr/bin/../lib/gcc/arm-linux-gnueabihf/6.3.0/../../../../include/c++/6.3.0/bits/stl_vector.h:781:32
	ldr	r0, [r1]
.Ltmp120:
	.loc	7 781 32 is_stmt 0      @ /usr/bin/../lib/gcc/arm-linux-gnueabihf/6.3.0/../../../../include/c++/6.3.0/bits/stl_vector.h:781:32
	ldr	r1, [r1, #12]
	ldr	r4, [r11, #8]
.Ltmp121:
.LBB0_22:                               @ =>This Inner Loop Header: Depth=1
	.loc	9 83 51 is_stmt 1       @ /root/Bela/projects/SOFAlizer-for-Bela/filtering_test.cpp:83:51
	mov	r5, r4
	.loc	9 84 55                 @ /root/Bela/projects/SOFAlizer-for-Bela/filtering_test.cpp:84:55
	add	r6, r3, r7
	.loc	9 83 51                 @ /root/Bela/projects/SOFAlizer-for-Bela/filtering_test.cpp:83:51
	bfc	r5, #10, #22
.Ltmp122:
	@DEBUG_VALUE: outcBuffIdx <- %R5
	@DEBUG_VALUE: operator[]:__n <- %R5
	@DEBUG_VALUE: operator[]:__n <- %R5
	.loc	9 82 9 discriminator 1  @ /root/Bela/projects/SOFAlizer-for-Bela/filtering_test.cpp:82:9
	add	r4, r4, #1
.Ltmp123:
	.loc	9 84 55                 @ /root/Bela/projects/SOFAlizer-for-Bela/filtering_test.cpp:84:55
	vldr	s0, [r6]
.Ltmp124:
	.loc	7 781 41                @ /usr/bin/../lib/gcc/arm-linux-gnueabihf/6.3.0/../../../../include/c++/6.3.0/bits/stl_vector.h:781:41
	add	r6, r0, r5, lsl #2
.Ltmp125:
	.loc	9 84 41                 @ /root/Bela/projects/SOFAlizer-for-Bela/filtering_test.cpp:84:41
	vldr	s2, [r6]
	vadd.f32	d0, d1, d0
	vstr	s0, [r6]
	.loc	9 85 57                 @ /root/Bela/projects/SOFAlizer-for-Bela/filtering_test.cpp:85:57
	add	r6, r2, r7
.Ltmp126:
	.loc	9 82 9 discriminator 1  @ /root/Bela/projects/SOFAlizer-for-Bela/filtering_test.cpp:82:9
	add	r7, r7, #4
.Ltmp127:
	.loc	9 85 57                 @ /root/Bela/projects/SOFAlizer-for-Bela/filtering_test.cpp:85:57
	vldr	s0, [r6]
.Ltmp128:
	.loc	7 781 41                @ /usr/bin/../lib/gcc/arm-linux-gnueabihf/6.3.0/../../../../include/c++/6.3.0/bits/stl_vector.h:781:41
	add	r6, r1, r5, lsl #2
.Ltmp129:
	.loc	9 82 9 discriminator 1  @ /root/Bela/projects/SOFAlizer-for-Bela/filtering_test.cpp:82:9
	cmp	r7, #2048
.Ltmp130:
	.loc	9 85 42                 @ /root/Bela/projects/SOFAlizer-for-Bela/filtering_test.cpp:85:42
	vldr	s2, [r6]
	vadd.f32	d0, d1, d0
	vstr	s0, [r6]
	bne	.LBB0_22
.Ltmp131:
.LBB0_23:                               @ %.loopexit
	.loc	9 88 1 discriminator 2  @ /root/Bela/projects/SOFAlizer-for-Bela/filtering_test.cpp:88:1
	sub	sp, r11, #28
	pop	{r4, r5, r6, r7, r8, r9, r10, r11, pc}
.LBB0_24:
.Ltmp132:
	@DEBUG_VALUE: lock:__e <- %R0
	@DEBUG_VALUE: filtering_multiple_positions_cpu:hrtfdata <- %R9
	@DEBUG_VALUE: filtering_multiple_positions_cpu:incBuff <- %R7
	@DEBUG_VALUE: filtering_multiple_positions_cpu:in_read_ptr <- %R8
	@DEBUG_VALUE: filtering_multiple_positions_cpu:outcBuff <- %R5
	.loc	36 107 2                @ /usr/bin/../lib/gcc/arm-linux-gnueabihf/6.3.0/../../../../include/c++/6.3.0/bits/std_mutex.h:107:2
	mov	lr, pc
	b	_ZSt20__throw_system_errori
.Ltmp133:
.LBB0_25:
	@DEBUG_VALUE: operator[]:__n <- %R10
	@DEBUG_VALUE: operator[]:__n <- %R10
	@DEBUG_VALUE: operator[]:__n <- %R10
	@DEBUG_VALUE: operator[]:__n <- %R10
	@DEBUG_VALUE: operator[]:__n <- %R10
	@DEBUG_VALUE: operator[]:__n <- %R10
	@DEBUG_VALUE: operator[]:__n <- %R10
	@DEBUG_VALUE: operator[]:__n <- %R10
	@DEBUG_VALUE: operator[]:__n <- %R10
	@DEBUG_VALUE: operator[]:__n <- %R10
	@DEBUG_VALUE: operator[]:__n <- %R10
	@DEBUG_VALUE: operator[]:__n <- %R10
	@DEBUG_VALUE: operator[]:__n <- %R10
	@DEBUG_VALUE: operator[]:__n <- %R10
	@DEBUG_VALUE: operator[]:__n <- %R10
	@DEBUG_VALUE: operator[]:__n <- %R10
	@DEBUG_VALUE: filtering_multiple_positions_cpu:hrtf_num2 <- %R10
	@DEBUG_VALUE: filtering_multiple_positions_cpu:hrtfdata <- %R9
	@DEBUG_VALUE: filtering_multiple_positions_cpu:incBuff <- %R7
	@DEBUG_VALUE: filtering_multiple_positions_cpu:in_read_ptr <- %R8
.Ltmp5:
	mov	r5, r0
	.loc	9 28 5 discriminator 13 @ /root/Bela/projects/SOFAlizer-for-Bela/filtering_test.cpp:28:5
	mov	r0, r4
	b	.LBB0_27
.Ltmp134:
.LBB0_26:
	@DEBUG_VALUE: operator[]:__n <- %R10
	@DEBUG_VALUE: operator[]:__n <- %R10
	@DEBUG_VALUE: operator[]:__n <- %R10
	@DEBUG_VALUE: operator[]:__n <- %R10
	@DEBUG_VALUE: operator[]:__n <- %R10
	@DEBUG_VALUE: operator[]:__n <- %R10
	@DEBUG_VALUE: operator[]:__n <- %R10
	@DEBUG_VALUE: operator[]:__n <- %R10
	@DEBUG_VALUE: operator[]:__n <- %R10
	@DEBUG_VALUE: operator[]:__n <- %R10
	@DEBUG_VALUE: operator[]:__n <- %R10
	@DEBUG_VALUE: operator[]:__n <- %R10
	@DEBUG_VALUE: operator[]:__n <- %R10
	@DEBUG_VALUE: operator[]:__n <- %R10
	@DEBUG_VALUE: operator[]:__n <- %R10
	@DEBUG_VALUE: operator[]:__n <- %R10
	@DEBUG_VALUE: filtering_multiple_positions_cpu:hrtf_num2 <- %R10
	@DEBUG_VALUE: filtering_multiple_positions_cpu:hrtfdata <- %R9
	@DEBUG_VALUE: filtering_multiple_positions_cpu:incBuff <- %R7
	@DEBUG_VALUE: filtering_multiple_positions_cpu:in_read_ptr <- %R8
	@DEBUG_VALUE: filtering_multiple_positions_cpu:outcBuff <- %R5
.Ltmp2:
	mov	r5, r0
.Ltmp135:
	.loc	9 27 5 discriminator 13 @ /root/Bela/projects/SOFAlizer-for-Bela/filtering_test.cpp:27:5
	movw	r0, :lower16:.L_MergedGlobals
	movt	r0, :upper16:.L_MergedGlobals
.Ltmp136:
.LBB0_27:
	@DEBUG_VALUE: operator[]:__n <- %R10
	@DEBUG_VALUE: operator[]:__n <- %R10
	@DEBUG_VALUE: operator[]:__n <- %R10
	@DEBUG_VALUE: operator[]:__n <- %R10
	@DEBUG_VALUE: operator[]:__n <- %R10
	@DEBUG_VALUE: operator[]:__n <- %R10
	@DEBUG_VALUE: operator[]:__n <- %R10
	@DEBUG_VALUE: operator[]:__n <- %R10
	@DEBUG_VALUE: operator[]:__n <- %R10
	@DEBUG_VALUE: operator[]:__n <- %R10
	@DEBUG_VALUE: operator[]:__n <- %R10
	@DEBUG_VALUE: operator[]:__n <- %R10
	@DEBUG_VALUE: operator[]:__n <- %R10
	@DEBUG_VALUE: operator[]:__n <- %R10
	@DEBUG_VALUE: operator[]:__n <- %R10
	@DEBUG_VALUE: operator[]:__n <- %R10
	@DEBUG_VALUE: filtering_multiple_positions_cpu:hrtf_num2 <- %R10
	@DEBUG_VALUE: filtering_multiple_positions_cpu:hrtfdata <- %R9
	@DEBUG_VALUE: filtering_multiple_positions_cpu:incBuff <- %R7
	@DEBUG_VALUE: filtering_multiple_positions_cpu:in_read_ptr <- %R8
	bl	__cxa_guard_abort
	mov	r0, r5
	mov	lr, pc
	b	_Unwind_Resume
.Ltmp137:
	.p2align	2
@ BB#28:
.LCPI0_0:
	.long	1014763457              @ float 0.0153846154
.Lfunc_end0:
	.size	_Z32filtering_multiple_positions_cpuRSt6vectorI8HRTFDataSaIS0_EEPK8CircBuffjPS4_j, .Lfunc_end0-_Z32filtering_multiple_positions_cpuRSt6vectorI8HRTFDataSaIS0_EEPK8CircBuffjPS4_j
	.cfi_endproc
	.file	39 "/usr/include/arm-linux-gnueabihf/bits" "pthreadtypes.h"
	.file	40 "/usr/bin/../lib/gcc/arm-linux-gnueabihf/6.3.0/../../../../include/c++/6.3.0/ext" "type_traits.h"
	.file	41 "/usr/bin/../lib/gcc/arm-linux-gnueabihf/6.3.0/../../../../include/c++/6.3.0/bits" "stl_uninitialized.h"
	.file	42 "/root/Bela/projects/SOFAlizer-for-Bela" "bela_sofa.h"
	.file	43 "/usr/include/ne10" "NE10_types.h"
	.globl	__gxx_personality_v0
	.personality __gxx_personality_v0
	.handlerdata
	.p2align	2
GCC_except_table0:
.Lexception0:
	.byte	255                     @ @LPStart Encoding = omit
	.byte	0                       @ @TType Encoding = absptr
	.asciz	"\266\200\200"          @ @TType base offset
	.byte	3                       @ Call site Encoding = udata4
	.byte	52                      @ Call site table length
	.long	.Ltmp0-.Lfunc_begin0    @ >> Call Site 1 <<
	.long	.Ltmp1-.Ltmp0           @   Call between .Ltmp0 and .Ltmp1
	.long	.Ltmp2-.Lfunc_begin0    @     jumps to .Ltmp2
	.byte	0                       @   On action: cleanup
	.long	.Ltmp1-.Lfunc_begin0    @ >> Call Site 2 <<
	.long	.Ltmp3-.Ltmp1           @   Call between .Ltmp1 and .Ltmp3
	.long	0                       @     has no landing pad
	.byte	0                       @   On action: cleanup
	.long	.Ltmp3-.Lfunc_begin0    @ >> Call Site 3 <<
	.long	.Ltmp4-.Ltmp3           @   Call between .Ltmp3 and .Ltmp4
	.long	.Ltmp5-.Lfunc_begin0    @     jumps to .Ltmp5
	.byte	0                       @   On action: cleanup
	.long	.Ltmp4-.Lfunc_begin0    @ >> Call Site 4 <<
	.long	.Lfunc_end0-.Ltmp4      @   Call between .Ltmp4 and .Lfunc_end0
	.long	0                       @     has no landing pad
	.byte	0                       @   On action: cleanup
	.p2align	2
	.fnend

	.section	.text._ZNSt6vectorIfSaIfEED2Ev,"axG",%progbits,_ZNSt6vectorIfSaIfEED2Ev,comdat
	.weak	_ZNSt6vectorIfSaIfEED2Ev
	.p2align	2
	.type	_ZNSt6vectorIfSaIfEED2Ev,%function
_ZNSt6vectorIfSaIfEED2Ev:               @ @_ZNSt6vectorIfSaIfEED2Ev
.Lfunc_begin1:
	.loc	7 426 0                 @ /usr/bin/../lib/gcc/arm-linux-gnueabihf/6.3.0/../../../../include/c++/6.3.0/bits/stl_vector.h:426:0
	.fnstart
	.cfi_startproc
@ BB#0:
	.save	{r4, r10, r11, lr}
	push	{r4, r10, r11, lr}
.Ltmp138:
	.cfi_def_cfa_offset 16
.Ltmp139:
	.cfi_offset lr, -4
.Ltmp140:
	.cfi_offset r11, -8
.Ltmp141:
	.cfi_offset r10, -12
.Ltmp142:
	.cfi_offset r4, -16
	.setfp	r11, sp, #8
	add	r11, sp, #8
.Ltmp143:
	.cfi_def_cfa r11, 8
	@DEBUG_VALUE: ~vector:this <- %R0
	mov	r4, r0
.Ltmp144:
	@DEBUG_VALUE: ~vector:this <- %R4
	.loc	7 160 37 prologue_end   @ /usr/bin/../lib/gcc/arm-linux-gnueabihf/6.3.0/../../../../include/c++/6.3.0/bits/stl_vector.h:160:37
	ldr	r0, [r4]
.Ltmp145:
	@DEBUG_VALUE: _M_deallocate:__p <- %R0
	@DEBUG_VALUE: deallocate:__p <- %R0
	@DEBUG_VALUE: deallocate:__p <- %R0
	.loc	7 177 6                 @ /usr/bin/../lib/gcc/arm-linux-gnueabihf/6.3.0/../../../../include/c++/6.3.0/bits/stl_vector.h:177:6
	cmp	r0, #0
	beq	.LBB1_2
.Ltmp146:
@ BB#1:
	@DEBUG_VALUE: deallocate:__p <- %R0
	@DEBUG_VALUE: deallocate:__p <- %R0
	@DEBUG_VALUE: _M_deallocate:__p <- %R0
	@DEBUG_VALUE: ~vector:this <- %R4
	.loc	3 110 9                 @ /usr/bin/../lib/gcc/arm-linux-gnueabihf/6.3.0/../../../../include/c++/6.3.0/ext/new_allocator.h:110:9
	bl	_ZdlPv
.Ltmp147:
.LBB1_2:                                @ %_ZNSt12_Vector_baseIfSaIfEED2Ev.exit
	@DEBUG_VALUE: ~vector:this <- %R4
	.loc	7 427 33 discriminator 1 @ /usr/bin/../lib/gcc/arm-linux-gnueabihf/6.3.0/../../../../include/c++/6.3.0/bits/stl_vector.h:427:33
	mov	r0, r4
	pop	{r4, r10, r11, pc}
.Ltmp148:
.Lfunc_end1:
	.size	_ZNSt6vectorIfSaIfEED2Ev, .Lfunc_end1-_ZNSt6vectorIfSaIfEED2Ev
	.cfi_endproc
	.fnend

	.text
	.globl	_Z33filtering_multiple_positions_neonRSt6vectorI8HRTFDataSaIS0_EEPK8CircBuffjPS4_j
	.p2align	4
	.type	_Z33filtering_multiple_positions_neonRSt6vectorI8HRTFDataSaIS0_EEPK8CircBuffjPS4_j,%function
_Z33filtering_multiple_positions_neonRSt6vectorI8HRTFDataSaIS0_EEPK8CircBuffjPS4_j: @ @_Z33filtering_multiple_positions_neonRSt6vectorI8HRTFDataSaIS0_EEPK8CircBuffjPS4_j
.Lfunc_begin2:
	.loc	9 102 0                 @ /root/Bela/projects/SOFAlizer-for-Bela/filtering_test.cpp:102:0
	.fnstart
	.cfi_startproc
@ BB#0:
	.save	{r4, r5, r6, r7, r8, r9, r10, r11, lr}
	push	{r4, r5, r6, r7, r8, r9, r10, r11, lr}
.Ltmp155:
	.cfi_def_cfa_offset 36
.Ltmp156:
	.cfi_offset lr, -4
.Ltmp157:
	.cfi_offset r11, -8
.Ltmp158:
	.cfi_offset r10, -12
.Ltmp159:
	.cfi_offset r9, -16
.Ltmp160:
	.cfi_offset r8, -20
.Ltmp161:
	.cfi_offset r7, -24
.Ltmp162:
	.cfi_offset r6, -28
.Ltmp163:
	.cfi_offset r5, -32
.Ltmp164:
	.cfi_offset r4, -36
	.setfp	r11, sp, #28
	add	r11, sp, #28
.Ltmp165:
	.cfi_def_cfa r11, 8
	.pad	#84
	sub	sp, sp, #84
	@DEBUG_VALUE: filtering_multiple_positions_neon:hrtfdata <- %R0
	@DEBUG_VALUE: filtering_multiple_positions_neon:incBuff <- %R1
	@DEBUG_VALUE: filtering_multiple_positions_neon:in_read_ptr <- %R2
	@DEBUG_VALUE: filtering_multiple_positions_neon:outcBuff <- %R3
.Ltmp166:
	.loc	10 747 7 prologue_end   @ /usr/bin/../lib/gcc/arm-linux-gnueabihf/6.3.0/../../../../include/arm-linux-gnueabihf/c++/6.3.0/bits/gthr-default.h:747:7
	movw	r4, :lower16:__pthread_key_create
	mov	r6, r3
.Ltmp167:
	@DEBUG_VALUE: filtering_multiple_positions_neon:outcBuff <- %R6
	movt	r4, :upper16:__pthread_key_create
	mov	r8, r2
.Ltmp168:
	@DEBUG_VALUE: filtering_multiple_positions_neon:in_read_ptr <- %R8
	mov	r7, r1
.Ltmp169:
	@DEBUG_VALUE: filtering_multiple_positions_neon:incBuff <- %R7
	mov	r9, r0
.Ltmp170:
	@DEBUG_VALUE: filtering_multiple_positions_neon:hrtfdata <- %R9
	cmp	r4, #0
	beq	.LBB2_2
.Ltmp171:
@ BB#1:                                 @ %_ZL20__gthread_mutex_lockP15pthread_mutex_t.exit.i
	@DEBUG_VALUE: filtering_multiple_positions_neon:hrtfdata <- %R9
	@DEBUG_VALUE: filtering_multiple_positions_neon:incBuff <- %R7
	@DEBUG_VALUE: filtering_multiple_positions_neon:in_read_ptr <- %R8
	@DEBUG_VALUE: filtering_multiple_positions_neon:outcBuff <- %R6
	.loc	10 748 12               @ /usr/bin/../lib/gcc/arm-linux-gnueabihf/6.3.0/../../../../include/arm-linux-gnueabihf/c++/6.3.0/bits/gthr-default.h:748:12
	movw	r0, :lower16:m_hrtf_num
	movt	r0, :upper16:m_hrtf_num
.Ltmp172:
	@DEBUG_VALUE: lock:this <- %R0
	bl	pthread_mutex_lock
.Ltmp173:
	@DEBUG_VALUE: lock:__e <- %R0
	.loc	36 106 11               @ /usr/bin/../lib/gcc/arm-linux-gnueabihf/6.3.0/../../../../include/c++/6.3.0/bits/std_mutex.h:106:11
	cmp	r0, #0
	bne	.LBB2_26
.Ltmp174:
.LBB2_2:                                @ %_ZNSt5mutex4lockEv.exit
	@DEBUG_VALUE: filtering_multiple_positions_neon:hrtfdata <- %R9
	@DEBUG_VALUE: filtering_multiple_positions_neon:incBuff <- %R7
	@DEBUG_VALUE: filtering_multiple_positions_neon:in_read_ptr <- %R8
	@DEBUG_VALUE: filtering_multiple_positions_neon:outcBuff <- %R6
	.loc	9 105 30                @ /root/Bela/projects/SOFAlizer-for-Bela/filtering_test.cpp:105:30
	movw	r0, :lower16:hrtf_num
.Ltmp175:
	.loc	10 777 7                @ /usr/bin/../lib/gcc/arm-linux-gnueabihf/6.3.0/../../../../include/arm-linux-gnueabihf/c++/6.3.0/bits/gthr-default.h:777:7
	cmp	r4, #0
.Ltmp176:
	.loc	9 105 30                @ /root/Bela/projects/SOFAlizer-for-Bela/filtering_test.cpp:105:30
	movt	r0, :upper16:hrtf_num
	ldr	r0, [r0]
.Ltmp177:
	@DEBUG_VALUE: filtering_multiple_positions_neon:hrtf_num2 <- [%SP+16]
	@DEBUG_VALUE: operator[]:__n <- [%SP+16]
	@DEBUG_VALUE: operator[]:__n <- [%SP+16]
	@DEBUG_VALUE: operator[]:__n <- [%SP+16]
	@DEBUG_VALUE: operator[]:__n <- [%SP+16]
	@DEBUG_VALUE: operator[]:__n <- [%SP+16]
	@DEBUG_VALUE: operator[]:__n <- [%SP+16]
	@DEBUG_VALUE: operator[]:__n <- [%SP+16]
	@DEBUG_VALUE: operator[]:__n <- [%SP+16]
	.loc	10 777 7                @ /usr/bin/../lib/gcc/arm-linux-gnueabihf/6.3.0/../../../../include/arm-linux-gnueabihf/c++/6.3.0/bits/gthr-default.h:777:7
	str	r0, [sp, #16]           @ 4-byte Spill
	beq	.LBB2_4
.Ltmp178:
@ BB#3:
	@DEBUG_VALUE: operator[]:__n <- [%SP+16]
	@DEBUG_VALUE: operator[]:__n <- [%SP+16]
	@DEBUG_VALUE: operator[]:__n <- [%SP+16]
	@DEBUG_VALUE: operator[]:__n <- [%SP+16]
	@DEBUG_VALUE: operator[]:__n <- [%SP+16]
	@DEBUG_VALUE: operator[]:__n <- [%SP+16]
	@DEBUG_VALUE: operator[]:__n <- [%SP+16]
	@DEBUG_VALUE: operator[]:__n <- [%SP+16]
	@DEBUG_VALUE: filtering_multiple_positions_neon:hrtf_num2 <- [%SP+16]
	@DEBUG_VALUE: filtering_multiple_positions_neon:hrtfdata <- %R9
	@DEBUG_VALUE: filtering_multiple_positions_neon:incBuff <- %R7
	@DEBUG_VALUE: filtering_multiple_positions_neon:in_read_ptr <- %R8
	@DEBUG_VALUE: filtering_multiple_positions_neon:outcBuff <- %R6
	.loc	10 778 12               @ /usr/bin/../lib/gcc/arm-linux-gnueabihf/6.3.0/../../../../include/arm-linux-gnueabihf/c++/6.3.0/bits/gthr-default.h:778:12
	movw	r0, :lower16:m_hrtf_num
	movt	r0, :upper16:m_hrtf_num
.Ltmp179:
	@DEBUG_VALUE: unlock:this <- %R0
	bl	pthread_mutex_unlock
.Ltmp180:
.LBB2_4:                                @ %_ZNSt5mutex6unlockEv.exit
	@DEBUG_VALUE: filtering_multiple_positions_neon:hrtfdata <- %R9
	@DEBUG_VALUE: filtering_multiple_positions_neon:incBuff <- %R7
	@DEBUG_VALUE: filtering_multiple_positions_neon:in_read_ptr <- %R8
	@DEBUG_VALUE: filtering_multiple_positions_neon:outcBuff <- %R6
	.loc	9 108 5                 @ /root/Bela/projects/SOFAlizer-for-Bela/filtering_test.cpp:108:5
	movw	r10, :lower16:.L_MergedGlobals
	movt	r10, :upper16:.L_MergedGlobals
	ldrb	r0, [r10, #8]
	dmb	ish
	tst	r0, #1
	bne	.LBB2_8
.Ltmp181:
@ BB#5:
	@DEBUG_VALUE: filtering_multiple_positions_neon:hrtfdata <- %R9
	@DEBUG_VALUE: filtering_multiple_positions_neon:incBuff <- %R7
	@DEBUG_VALUE: filtering_multiple_positions_neon:in_read_ptr <- %R8
	@DEBUG_VALUE: filtering_multiple_positions_neon:outcBuff <- %R6
	.loc	9 108 5 is_stmt 0 discriminator 1 @ /root/Bela/projects/SOFAlizer-for-Bela/filtering_test.cpp:108:5
	add	r4, r10, #8
	mov	r0, r4
	bl	__cxa_guard_acquire
	cmp	r0, #0
	beq	.LBB2_8
.Ltmp182:
@ BB#6:
	@DEBUG_VALUE: filtering_multiple_positions_neon:hrtfdata <- %R9
	@DEBUG_VALUE: filtering_multiple_positions_neon:incBuff <- %R7
	@DEBUG_VALUE: filtering_multiple_positions_neon:in_read_ptr <- %R8
	@DEBUG_VALUE: filtering_multiple_positions_neon:outcBuff <- %R6
	@DEBUG_VALUE: vector:__n <- 512
	@DEBUG_VALUE: _Vector_base:__n <- 512
	mov	r0, #0
.Ltmp183:
	@DEBUG_VALUE: allocate:__n <- 512
	@DEBUG_VALUE: allocate:__n <- 512
	@DEBUG_VALUE: _M_allocate:__n <- 512
	@DEBUG_VALUE: _M_create_storage:__n <- 512
	.loc	7 91 25 is_stmt 1       @ /usr/bin/../lib/gcc/arm-linux-gnueabihf/6.3.0/../../../../include/c++/6.3.0/bits/stl_vector.h:91:25
	str	r0, [r10, #40]
	.loc	7 91 37 is_stmt 0       @ /usr/bin/../lib/gcc/arm-linux-gnueabihf/6.3.0/../../../../include/c++/6.3.0/bits/stl_vector.h:91:37
	str	r0, [r10, #44]
	.loc	7 91 50                 @ /usr/bin/../lib/gcc/arm-linux-gnueabihf/6.3.0/../../../../include/c++/6.3.0/bits/stl_vector.h:91:50
	str	r0, [r10, #48]
.Ltmp184:
	.loc	3 104 27 is_stmt 1      @ /usr/bin/../lib/gcc/arm-linux-gnueabihf/6.3.0/../../../../include/c++/6.3.0/ext/new_allocator.h:104:27
.Ltmp149:
	mov	r0, #2048
	bl	_Znwj
.Ltmp150:
.Ltmp185:
@ BB#7:                                 @ %.noexc
	@DEBUG_VALUE: filtering_multiple_positions_neon:hrtfdata <- %R9
	@DEBUG_VALUE: filtering_multiple_positions_neon:incBuff <- %R7
	@DEBUG_VALUE: filtering_multiple_positions_neon:in_read_ptr <- %R8
	@DEBUG_VALUE: filtering_multiple_positions_neon:outcBuff <- %R6
	.loc	7 185 25                @ /usr/bin/../lib/gcc/arm-linux-gnueabihf/6.3.0/../../../../include/c++/6.3.0/bits/stl_vector.h:185:25
	mov	r4, r10
.Ltmp186:
	.loc	37 754 11               @ /usr/bin/../lib/gcc/arm-linux-gnueabihf/6.3.0/../../../../include/c++/6.3.0/bits/stl_algobase.h:754:11
	mov	r1, #0
.Ltmp187:
	.loc	7 185 25                @ /usr/bin/../lib/gcc/arm-linux-gnueabihf/6.3.0/../../../../include/c++/6.3.0/bits/stl_vector.h:185:25
	str	r0, [r4, #40]!
.Ltmp188:
	@DEBUG_VALUE: _M_fill_initialize:this <- %R4
	@DEBUG_VALUE: vector:this <- %R4
	.loc	37 754 11               @ /usr/bin/../lib/gcc/arm-linux-gnueabihf/6.3.0/../../../../include/c++/6.3.0/bits/stl_algobase.h:754:11
	mov	r2, #2048
.Ltmp189:
	.loc	7 187 59                @ /usr/bin/../lib/gcc/arm-linux-gnueabihf/6.3.0/../../../../include/c++/6.3.0/bits/stl_vector.h:187:59
	add	r5, r0, #2048
	.loc	7 187 34 is_stmt 0      @ /usr/bin/../lib/gcc/arm-linux-gnueabihf/6.3.0/../../../../include/c++/6.3.0/bits/stl_vector.h:187:34
	str	r5, [r4, #8]
.Ltmp190:
	@DEBUG_VALUE: __niter <- 512
	@DEBUG_VALUE: __fill_n_a<float *, unsigned int, float>:__n <- 512
	@DEBUG_VALUE: fill_n<float *, unsigned int, float>:__n <- 512
	@DEBUG_VALUE: __uninit_fill_n<float *, unsigned int, float>:__n <- 512
	@DEBUG_VALUE: uninitialized_fill_n<float *, unsigned int, float>:__assignable <- 1
	@DEBUG_VALUE: uninitialized_fill_n<float *, unsigned int, float>:__n <- 512
	@DEBUG_VALUE: __uninitialized_fill_n_a<float *, unsigned int, float, float>:__n <- 512
	@DEBUG_VALUE: _M_fill_initialize:__n <- 512
	.loc	37 754 11 is_stmt 1     @ /usr/bin/../lib/gcc/arm-linux-gnueabihf/6.3.0/../../../../include/c++/6.3.0/bits/stl_algobase.h:754:11
	bl	memset
.Ltmp191:
	.loc	9 108 5 discriminator 9 @ /root/Bela/projects/SOFAlizer-for-Bela/filtering_test.cpp:108:5
	movw	r0, :lower16:_ZNSt6vectorIfSaIfEED2Ev
	movw	r2, :lower16:__dso_handle
	movt	r0, :upper16:_ZNSt6vectorIfSaIfEED2Ev
	movt	r2, :upper16:__dso_handle
	mov	r1, r4
.Ltmp192:
	.loc	7 1298 26               @ /usr/bin/../lib/gcc/arm-linux-gnueabihf/6.3.0/../../../../include/c++/6.3.0/bits/stl_vector.h:1298:26
	str	r5, [r4, #4]
.Ltmp193:
	.loc	9 108 5 discriminator 9 @ /root/Bela/projects/SOFAlizer-for-Bela/filtering_test.cpp:108:5
	bl	__cxa_atexit
	.loc	9 108 5 is_stmt 0 discriminator 10 @ /root/Bela/projects/SOFAlizer-for-Bela/filtering_test.cpp:108:5
	sub	r0, r4, #32
	bl	__cxa_guard_release
.Ltmp194:
.LBB2_8:
	@DEBUG_VALUE: filtering_multiple_positions_neon:hrtfdata <- %R9
	@DEBUG_VALUE: filtering_multiple_positions_neon:incBuff <- %R7
	@DEBUG_VALUE: filtering_multiple_positions_neon:in_read_ptr <- %R8
	@DEBUG_VALUE: filtering_multiple_positions_neon:outcBuff <- %R6
	.loc	9 109 5 is_stmt 1       @ /root/Bela/projects/SOFAlizer-for-Bela/filtering_test.cpp:109:5
	ldrb	r0, [r10, #12]
	dmb	ish
	tst	r0, #1
	bne	.LBB2_12
.Ltmp195:
@ BB#9:
	@DEBUG_VALUE: filtering_multiple_positions_neon:hrtfdata <- %R9
	@DEBUG_VALUE: filtering_multiple_positions_neon:incBuff <- %R7
	@DEBUG_VALUE: filtering_multiple_positions_neon:in_read_ptr <- %R8
	@DEBUG_VALUE: filtering_multiple_positions_neon:outcBuff <- %R6
	.loc	9 109 5 is_stmt 0 discriminator 1 @ /root/Bela/projects/SOFAlizer-for-Bela/filtering_test.cpp:109:5
	add	r4, r10, #12
	mov	r0, r4
	bl	__cxa_guard_acquire
	cmp	r0, #0
	beq	.LBB2_12
.Ltmp196:
@ BB#10:
	@DEBUG_VALUE: filtering_multiple_positions_neon:hrtfdata <- %R9
	@DEBUG_VALUE: filtering_multiple_positions_neon:incBuff <- %R7
	@DEBUG_VALUE: filtering_multiple_positions_neon:in_read_ptr <- %R8
	@DEBUG_VALUE: filtering_multiple_positions_neon:outcBuff <- %R6
	@DEBUG_VALUE: vector:__n <- 512
	@DEBUG_VALUE: _Vector_base:__n <- 512
	mov	r0, #0
.Ltmp197:
	@DEBUG_VALUE: allocate:__n <- 512
	@DEBUG_VALUE: allocate:__n <- 512
	@DEBUG_VALUE: _M_allocate:__n <- 512
	@DEBUG_VALUE: _M_create_storage:__n <- 512
	.loc	7 91 25 is_stmt 1       @ /usr/bin/../lib/gcc/arm-linux-gnueabihf/6.3.0/../../../../include/c++/6.3.0/bits/stl_vector.h:91:25
	str	r0, [r10, #52]
	.loc	7 91 37 is_stmt 0       @ /usr/bin/../lib/gcc/arm-linux-gnueabihf/6.3.0/../../../../include/c++/6.3.0/bits/stl_vector.h:91:37
	str	r0, [r10, #56]
	.loc	7 91 50                 @ /usr/bin/../lib/gcc/arm-linux-gnueabihf/6.3.0/../../../../include/c++/6.3.0/bits/stl_vector.h:91:50
	str	r0, [r10, #60]
.Ltmp198:
	.loc	3 104 27 is_stmt 1      @ /usr/bin/../lib/gcc/arm-linux-gnueabihf/6.3.0/../../../../include/c++/6.3.0/ext/new_allocator.h:104:27
.Ltmp152:
	mov	r0, #2048
	bl	_Znwj
.Ltmp153:
.Ltmp199:
@ BB#11:                                @ %.noexc233
	@DEBUG_VALUE: filtering_multiple_positions_neon:hrtfdata <- %R9
	@DEBUG_VALUE: filtering_multiple_positions_neon:incBuff <- %R7
	@DEBUG_VALUE: filtering_multiple_positions_neon:in_read_ptr <- %R8
	@DEBUG_VALUE: filtering_multiple_positions_neon:outcBuff <- %R6
	.loc	7 185 25                @ /usr/bin/../lib/gcc/arm-linux-gnueabihf/6.3.0/../../../../include/c++/6.3.0/bits/stl_vector.h:185:25
	mov	r4, r10
.Ltmp200:
	.loc	37 754 11               @ /usr/bin/../lib/gcc/arm-linux-gnueabihf/6.3.0/../../../../include/c++/6.3.0/bits/stl_algobase.h:754:11
	mov	r1, #0
.Ltmp201:
	.loc	7 185 25                @ /usr/bin/../lib/gcc/arm-linux-gnueabihf/6.3.0/../../../../include/c++/6.3.0/bits/stl_vector.h:185:25
	str	r0, [r4, #52]!
.Ltmp202:
	@DEBUG_VALUE: _M_fill_initialize:this <- %R4
	@DEBUG_VALUE: vector:this <- %R4
	.loc	37 754 11               @ /usr/bin/../lib/gcc/arm-linux-gnueabihf/6.3.0/../../../../include/c++/6.3.0/bits/stl_algobase.h:754:11
	mov	r2, #2048
.Ltmp203:
	.loc	7 187 59                @ /usr/bin/../lib/gcc/arm-linux-gnueabihf/6.3.0/../../../../include/c++/6.3.0/bits/stl_vector.h:187:59
	add	r5, r0, #2048
	.loc	7 187 34 is_stmt 0      @ /usr/bin/../lib/gcc/arm-linux-gnueabihf/6.3.0/../../../../include/c++/6.3.0/bits/stl_vector.h:187:34
	str	r5, [r4, #8]
.Ltmp204:
	@DEBUG_VALUE: __niter <- 512
	@DEBUG_VALUE: __fill_n_a<float *, unsigned int, float>:__n <- 512
	@DEBUG_VALUE: fill_n<float *, unsigned int, float>:__n <- 512
	@DEBUG_VALUE: __uninit_fill_n<float *, unsigned int, float>:__n <- 512
	@DEBUG_VALUE: uninitialized_fill_n<float *, unsigned int, float>:__assignable <- 1
	@DEBUG_VALUE: uninitialized_fill_n<float *, unsigned int, float>:__n <- 512
	@DEBUG_VALUE: __uninitialized_fill_n_a<float *, unsigned int, float, float>:__n <- 512
	@DEBUG_VALUE: _M_fill_initialize:__n <- 512
	.loc	37 754 11 is_stmt 1     @ /usr/bin/../lib/gcc/arm-linux-gnueabihf/6.3.0/../../../../include/c++/6.3.0/bits/stl_algobase.h:754:11
	bl	memset
.Ltmp205:
	.loc	9 109 5 discriminator 9 @ /root/Bela/projects/SOFAlizer-for-Bela/filtering_test.cpp:109:5
	movw	r0, :lower16:_ZNSt6vectorIfSaIfEED2Ev
	movw	r2, :lower16:__dso_handle
	movt	r0, :upper16:_ZNSt6vectorIfSaIfEED2Ev
	movt	r2, :upper16:__dso_handle
	mov	r1, r4
.Ltmp206:
	.loc	7 1298 26               @ /usr/bin/../lib/gcc/arm-linux-gnueabihf/6.3.0/../../../../include/c++/6.3.0/bits/stl_vector.h:1298:26
	str	r5, [r4, #4]
.Ltmp207:
	.loc	9 109 5 discriminator 9 @ /root/Bela/projects/SOFAlizer-for-Bela/filtering_test.cpp:109:5
	bl	__cxa_atexit
	.loc	9 109 5 is_stmt 0 discriminator 10 @ /root/Bela/projects/SOFAlizer-for-Bela/filtering_test.cpp:109:5
	sub	r0, r4, #40
	bl	__cxa_guard_release
.Ltmp208:
.LBB2_12:                               @ %.preheader244
	@DEBUG_VALUE: filtering_multiple_positions_neon:hrtfdata <- %R9
	@DEBUG_VALUE: filtering_multiple_positions_neon:incBuff <- %R7
	@DEBUG_VALUE: filtering_multiple_positions_neon:in_read_ptr <- %R8
	@DEBUG_VALUE: filtering_multiple_positions_neon:outcBuff <- %R6
	str	r6, [sp, #4]            @ 4-byte Spill
	@DEBUG_VALUE: filtering_multiple_positions_neon:out_write_ptr <- undef
.Ltmp209:
	.loc	9 114 5 is_stmt 1 discriminator 1 @ /root/Bela/projects/SOFAlizer-for-Bela/filtering_test.cpp:114:5
	add	r2, r8, #768
.Ltmp210:
	.loc	7 796 32                @ /usr/bin/../lib/gcc/arm-linux-gnueabihf/6.3.0/../../../../include/c++/6.3.0/bits/stl_vector.h:796:32
	ldr	r0, [r7]
	mov	r6, #0
.Ltmp211:
	.loc	7 796 32 is_stmt 0      @ /usr/bin/../lib/gcc/arm-linux-gnueabihf/6.3.0/../../../../include/c++/6.3.0/bits/stl_vector.h:796:32
	ldr	r1, [r7, #12]
.Ltmp212:
	.loc	7 781 32 is_stmt 1      @ /usr/bin/../lib/gcc/arm-linux-gnueabihf/6.3.0/../../../../include/c++/6.3.0/bits/stl_vector.h:781:32
	ldr	r3, [r10, #40]
.Ltmp213:
	.loc	7 781 32 is_stmt 0      @ /usr/bin/../lib/gcc/arm-linux-gnueabihf/6.3.0/../../../../include/c++/6.3.0/bits/stl_vector.h:781:32
	ldr	r7, [r10, #52]
.Ltmp214:
.LBB2_13:                               @ =>This Inner Loop Header: Depth=1
	.loc	9 115 58 is_stmt 1      @ /root/Bela/projects/SOFAlizer-for-Bela/filtering_test.cpp:115:58
	add	r5, r2, r6
.Ltmp215:
	@DEBUG_VALUE: operator[]:__n <- %R6
	bfc	r5, #10, #22
.Ltmp216:
	@DEBUG_VALUE: operator[]:__n <- %R5
	@DEBUG_VALUE: in_buff_idx <- %R5
	@DEBUG_VALUE: operator[]:__n <- %R5
	.loc	9 116 32                @ /root/Bela/projects/SOFAlizer-for-Bela/filtering_test.cpp:116:32
	ldr	r4, [r0, r5, lsl #2]
	.loc	9 116 30 is_stmt 0      @ /root/Bela/projects/SOFAlizer-for-Bela/filtering_test.cpp:116:30
	str	r4, [r3, r6, lsl #2]
	.loc	9 117 33 is_stmt 1      @ /root/Bela/projects/SOFAlizer-for-Bela/filtering_test.cpp:117:33
	ldr	r5, [r1, r5, lsl #2]
.Ltmp217:
	.loc	9 117 31 is_stmt 0      @ /root/Bela/projects/SOFAlizer-for-Bela/filtering_test.cpp:117:31
	str	r5, [r7, r6, lsl #2]
.Ltmp218:
	.loc	9 114 40 is_stmt 1 discriminator 3 @ /root/Bela/projects/SOFAlizer-for-Bela/filtering_test.cpp:114:40
	add	r6, r6, #1
.Ltmp219:
	@DEBUG_VALUE: i <- %R6
	.loc	9 114 5 is_stmt 0 discriminator 1 @ /root/Bela/projects/SOFAlizer-for-Bela/filtering_test.cpp:114:5
	cmp	r6, #256
	bne	.LBB2_13
.Ltmp220:
@ BB#14:
	@DEBUG_VALUE: i <- %R6
	.loc	9 121 15 is_stmt 1      @ /root/Bela/projects/SOFAlizer-for-Bela/filtering_test.cpp:121:15
	movw	r0, :lower16:chInL_FFT
	add	r1, r10, #40
.Ltmp221:
	@DEBUG_VALUE: operator[]:this <- %R1
	movt	r0, :upper16:chInL_FFT
	bl	_ZN3Fft3fftERKSt6vectorIfSaIfEE
.Ltmp222:
	.loc	9 122 15                @ /root/Bela/projects/SOFAlizer-for-Bela/filtering_test.cpp:122:15
	movw	r0, :lower16:chInR_FFT
	add	r1, r10, #52
.Ltmp223:
	@DEBUG_VALUE: operator[]:this <- %R1
	movt	r0, :upper16:chInR_FFT
	bl	_ZN3Fft3fftERKSt6vectorIfSaIfEE
.Ltmp224:
	.loc	9 187 120               @ /root/Bela/projects/SOFAlizer-for-Bela/filtering_test.cpp:187:120
	ldr	r2, [sp, #16]           @ 4-byte Reload
	mov	r0, #164
.Ltmp225:
	.loc	7 781 32                @ /usr/bin/../lib/gcc/arm-linux-gnueabihf/6.3.0/../../../../include/c++/6.3.0/bits/stl_vector.h:781:32
	ldr	r1, [r9]
.Ltmp226:
	.loc	9 136 29                @ /root/Bela/projects/SOFAlizer-for-Bela/filtering_test.cpp:136:29
	vmov.i32	q8, #0x0
	mov	r9, #0
.Ltmp227:
	@DEBUG_VALUE: i <- 0
	@DEBUG_VALUE: filtering_multiple_positions_neon:cnt <- 0
	mov	r10, #0
.Ltmp228:
	.loc	9 187 120               @ /root/Bela/projects/SOFAlizer-for-Bela/filtering_test.cpp:187:120
	mla	r0, r2, r0, r1
.Ltmp229:
	.loc	38 50 38                @ /root/Bela/projects/SOFAlizer-for-Bela/fft.h:50:38
	movw	r1, :lower16:outRightFFT
	movt	r1, :upper16:outRightFFT
	ldr	r1, [r1, #4]
.Ltmp230:
	.loc	38 50 38 is_stmt 0      @ /root/Bela/projects/SOFAlizer-for-Bela/fft.h:50:38
	str	r1, [sp, #12]           @ 4-byte Spill
	movw	r1, :lower16:outLeftFFT
	movt	r1, :upper16:outLeftFFT
	ldr	r1, [r1, #4]
.Ltmp231:
	.loc	9 173 122 is_stmt 1     @ /root/Bela/projects/SOFAlizer-for-Bela/filtering_test.cpp:173:122
	add	r6, r0, #144
.Ltmp232:
	str	r1, [sp, #8]            @ 4-byte Spill
	ldm	r6, {r2, r3, r5, r6}
.Ltmp233:
.LBB2_15:                               @ =>This Loop Header: Depth=1
                                        @     Child Loop BB2_16 Depth 2
                                        @     Child Loop BB2_18 Depth 2
	@DEBUG_VALUE: fdr:n <- %R9
	.loc	38 50 57                @ /root/Bela/projects/SOFAlizer-for-Bela/fft.h:50:57
	ldr	r0, [sp, #8]            @ 4-byte Reload
.Ltmp234:
	.loc	9 138 27                @ /root/Bela/projects/SOFAlizer-for-Bela/filtering_test.cpp:138:27
	orr	r7, r9, #1
.Ltmp235:
	@DEBUG_VALUE: fdr:n <- %R7
	@DEBUG_VALUE: fdi:n <- %R7
	@DEBUG_VALUE: fdr:n <- %R7
	@DEBUG_VALUE: fdi:n <- %R7
	@DEBUG_VALUE: fdr:n <- %R7
	@DEBUG_VALUE: fdi:n <- %R7
	@DEBUG_VALUE: fdr:n <- %R7
	@DEBUG_VALUE: fdi:n <- %R7
	@DEBUG_VALUE: fdr:n <- %R7
	@DEBUG_VALUE: fdi:n <- %R7
	@DEBUG_VALUE: fdi:n <- %R7
	@DEBUG_VALUE: fdr:n <- %R7
	.loc	38 50 57                @ /root/Bela/projects/SOFAlizer-for-Bela/fft.h:50:57
	add	r12, r0, r9, lsl #3
.Ltmp236:
	.loc	9 136 29                @ /root/Bela/projects/SOFAlizer-for-Bela/filtering_test.cpp:136:29
	vst1.32	{d16, d17}, [r12]
.Ltmp237:
	.loc	38 50 57                @ /root/Bela/projects/SOFAlizer-for-Bela/fft.h:50:57
	ldr	r0, [sp, #12]           @ 4-byte Reload
	add	lr, r0, r9, lsl #3
.Ltmp238:
	.loc	9 121 15                @ /root/Bela/projects/SOFAlizer-for-Bela/filtering_test.cpp:121:15
	movw	r0, :lower16:chInL_FFT
	movt	r0, :upper16:chInL_FFT
.Ltmp239:
	.loc	9 140 30                @ /root/Bela/projects/SOFAlizer-for-Bela/filtering_test.cpp:140:30
	vst1.32	{d16, d17}, [lr]
.Ltmp240:
	.loc	38 46 44                @ /root/Bela/projects/SOFAlizer-for-Bela/fft.h:46:44
	ldr	r0, [r0, #4]
.Ltmp241:
	.loc	9 146 40                @ /root/Bela/projects/SOFAlizer-for-Bela/filtering_test.cpp:146:40
	mov	r4, r0
	ldr	r1, [r4, r9, lsl #3]!
	.loc	9 146 18 is_stmt 0      @ /root/Bela/projects/SOFAlizer-for-Bela/filtering_test.cpp:146:18
	str	r1, [r11, #-44]
	.loc	9 147 40 is_stmt 1      @ /root/Bela/projects/SOFAlizer-for-Bela/filtering_test.cpp:147:40
	ldr	r4, [r4, #4]
	.loc	9 147 18 is_stmt 0      @ /root/Bela/projects/SOFAlizer-for-Bela/filtering_test.cpp:147:18
	str	r4, [r11, #-40]
	str	r7, [sp, #16]           @ 4-byte Spill
.Ltmp242:
	@DEBUG_VALUE: fdr:n <- [%SP+16]
	@DEBUG_VALUE: fdi:n <- [%SP+16]
	@DEBUG_VALUE: fdr:n <- [%SP+16]
	@DEBUG_VALUE: fdi:n <- [%SP+16]
	@DEBUG_VALUE: fdr:n <- [%SP+16]
	@DEBUG_VALUE: fdi:n <- [%SP+16]
	@DEBUG_VALUE: fdr:n <- [%SP+16]
	@DEBUG_VALUE: fdi:n <- [%SP+16]
	@DEBUG_VALUE: fdr:n <- [%SP+16]
	@DEBUG_VALUE: fdi:n <- [%SP+16]
	@DEBUG_VALUE: fdi:n <- [%SP+16]
	@DEBUG_VALUE: fdr:n <- [%SP+16]
	.loc	9 148 42 is_stmt 1      @ /root/Bela/projects/SOFAlizer-for-Bela/filtering_test.cpp:148:42
	ldr	r8, [r0, r7, lsl #3]!
	sub	r7, r11, #44
	.loc	9 148 18 is_stmt 0      @ /root/Bela/projects/SOFAlizer-for-Bela/filtering_test.cpp:148:18
	str	r8, [r11, #-36]
	.loc	9 149 42 is_stmt 1      @ /root/Bela/projects/SOFAlizer-for-Bela/filtering_test.cpp:149:42
	ldr	r0, [r0, #4]
	.loc	9 149 18 is_stmt 0      @ /root/Bela/projects/SOFAlizer-for-Bela/filtering_test.cpp:149:18
	str	r0, [r11, #-32]
	.loc	9 156 22 is_stmt 1      @ /root/Bela/projects/SOFAlizer-for-Bela/filtering_test.cpp:156:22
	str	r4, [sp, #52]
	.loc	9 157 22                @ /root/Bela/projects/SOFAlizer-for-Bela/filtering_test.cpp:157:22
	str	r1, [sp, #56]
	.loc	9 158 22                @ /root/Bela/projects/SOFAlizer-for-Bela/filtering_test.cpp:158:22
	str	r0, [sp, #60]
	add	r0, sp, #52
	.loc	9 159 22                @ /root/Bela/projects/SOFAlizer-for-Bela/filtering_test.cpp:159:22
	str	r8, [sp, #64]
.Ltmp243:
	.loc	9 161 76 discriminator 1 @ /root/Bela/projects/SOFAlizer-for-Bela/filtering_test.cpp:161:76
	vld1.32	{d20, d21}, [r0]
.Ltmp244:
	@DEBUG_VALUE: fd:this <- undef
	@DEBUG_VALUE: fd:this <- undef
	@DEBUG_VALUE: fd:this <- undef
	@DEBUG_VALUE: fd:this <- undef
	@DEBUG_VALUE: pos <- 0
	@DEBUG_VALUE: filtering_multiple_positions_neon:L2 <- %Q10
	@DEBUG_VALUE: __ret <- %Q10
	mov	r0, #0
.Ltmp245:
	.loc	9 152 72 discriminator 1 @ /root/Bela/projects/SOFAlizer-for-Bela/filtering_test.cpp:152:72
	vld1.32	{d18, d19}, [r7]
.Ltmp246:
	@DEBUG_VALUE: filtering_multiple_positions_neon:L1 <- %Q9
	@DEBUG_VALUE: __ret <- %Q9
.LBB2_16:                               @   Parent Loop BB2_15 Depth=1
                                        @ =>  This Inner Loop Header: Depth=2
	.loc	9 173 102               @ /root/Bela/projects/SOFAlizer-for-Bela/filtering_test.cpp:173:102
	ldr	r1, [r2, r0, lsl #2]
.Ltmp247:
	.loc	9 174 102               @ /root/Bela/projects/SOFAlizer-for-Bela/filtering_test.cpp:174:102
	ldr	r4, [r3, r0, lsl #2]
.Ltmp248:
	.loc	9 173 102               @ /root/Bela/projects/SOFAlizer-for-Bela/filtering_test.cpp:173:102
	ldr	r1, [r1, r10, lsl #2]
.Ltmp249:
	.loc	9 174 102               @ /root/Bela/projects/SOFAlizer-for-Bela/filtering_test.cpp:174:102
	ldr	r4, [r4, r10, lsl #2]
.Ltmp250:
	.loc	9 173 79 discriminator 2 @ /root/Bela/projects/SOFAlizer-for-Bela/filtering_test.cpp:173:79
	vld1.32	{d22, d23}, [r1]
.Ltmp251:
	@DEBUG_VALUE: filtering_multiple_positions_neon:Hreal <- %Q11
	@DEBUG_VALUE: __ret <- %Q11
	.loc	9 177 17                @ /root/Bela/projects/SOFAlizer-for-Bela/filtering_test.cpp:177:17
	vmul.f32	q11, q11, q9
.Ltmp252:
	@DEBUG_VALUE: filtering_multiple_positions_neon:C <- %Q11
	.loc	9 174 79 discriminator 2 @ /root/Bela/projects/SOFAlizer-for-Bela/filtering_test.cpp:174:79
	vld1.32	{d24, d25}, [r4]
.Ltmp253:
	@DEBUG_VALUE: filtering_multiple_positions_neon:Himag <- %Q12
	@DEBUG_VALUE: __ret <- %Q12
	adr	r1, .LCPI2_0
.Ltmp254:
	.loc	9 178 17                @ /root/Bela/projects/SOFAlizer-for-Bela/filtering_test.cpp:178:17
	vmul.f32	q12, q12, q10
.Ltmp255:
	.loc	9 181 33                @ /root/Bela/projects/SOFAlizer-for-Bela/filtering_test.cpp:181:33
	vld1.32	{d26, d27}, [r12]
	.loc	9 178 17                @ /root/Bela/projects/SOFAlizer-for-Bela/filtering_test.cpp:178:17
	vadd.f32	q11, q12, q11
.Ltmp256:
	.loc	9 181 41                @ /root/Bela/projects/SOFAlizer-for-Bela/filtering_test.cpp:181:41
	vld1.64	{d24, d25}, [r1:128]
	vmul.f32	q11, q11, q12
	.loc	9 181 33 is_stmt 0      @ /root/Bela/projects/SOFAlizer-for-Bela/filtering_test.cpp:181:33
	vadd.f32	q11, q11, q13
	vst1.32	{d22, d23}, [r12]
.Ltmp257:
	.loc	9 187 100 is_stmt 1     @ /root/Bela/projects/SOFAlizer-for-Bela/filtering_test.cpp:187:100
	ldr	r1, [r5, r0, lsl #2]
.Ltmp258:
	.loc	9 188 100               @ /root/Bela/projects/SOFAlizer-for-Bela/filtering_test.cpp:188:100
	ldr	r4, [r6, r0, lsl #2]
.Ltmp259:
	.loc	9 170 45 discriminator 3 @ /root/Bela/projects/SOFAlizer-for-Bela/filtering_test.cpp:170:45
	add	r0, r0, #1
.Ltmp260:
	@DEBUG_VALUE: pos <- %R0
	.loc	9 187 100               @ /root/Bela/projects/SOFAlizer-for-Bela/filtering_test.cpp:187:100
	ldr	r1, [r1, r10, lsl #2]
.Ltmp261:
	.loc	9 170 9 discriminator 1 @ /root/Bela/projects/SOFAlizer-for-Bela/filtering_test.cpp:170:9
	cmp	r0, #65
.Ltmp262:
	.loc	9 188 100               @ /root/Bela/projects/SOFAlizer-for-Bela/filtering_test.cpp:188:100
	ldr	r4, [r4, r10, lsl #2]
.Ltmp263:
	.loc	9 187 77 discriminator 2 @ /root/Bela/projects/SOFAlizer-for-Bela/filtering_test.cpp:187:77
	vld1.32	{d22, d23}, [r1]
.Ltmp264:
	@DEBUG_VALUE: __ret <- %Q11
	@DEBUG_VALUE: filtering_multiple_positions_neon:Hreal <- %Q11
	.loc	9 191 15                @ /root/Bela/projects/SOFAlizer-for-Bela/filtering_test.cpp:191:15
	vmul.f32	q11, q11, q9
.Ltmp265:
	@DEBUG_VALUE: filtering_multiple_positions_neon:C <- %Q11
	.loc	9 188 77 discriminator 2 @ /root/Bela/projects/SOFAlizer-for-Bela/filtering_test.cpp:188:77
	vld1.32	{d26, d27}, [r4]
.Ltmp266:
	@DEBUG_VALUE: __ret <- %Q13
	@DEBUG_VALUE: filtering_multiple_positions_neon:Himag <- %Q13
	.loc	9 192 15                @ /root/Bela/projects/SOFAlizer-for-Bela/filtering_test.cpp:192:15
	vmul.f32	q13, q13, q10
.Ltmp267:
	vadd.f32	q11, q13, q11
.Ltmp268:
	.loc	9 195 42                @ /root/Bela/projects/SOFAlizer-for-Bela/filtering_test.cpp:195:42
	vmul.f32	q11, q11, q12
	.loc	9 195 34 is_stmt 0      @ /root/Bela/projects/SOFAlizer-for-Bela/filtering_test.cpp:195:34
	vld1.32	{d24, d25}, [lr]
	vadd.f32	q11, q11, q12
	vst1.32	{d22, d23}, [lr]
	bne	.LBB2_16
.Ltmp269:
@ BB#17:                                @   in Loop: Header=BB2_15 Depth=1
	@DEBUG_VALUE: pos <- %R0
	.loc	9 122 15 is_stmt 1      @ /root/Bela/projects/SOFAlizer-for-Bela/filtering_test.cpp:122:15
	movw	r0, :lower16:chInR_FFT
.Ltmp270:
	movt	r0, :upper16:chInR_FFT
.Ltmp271:
	.loc	38 46 44                @ /root/Bela/projects/SOFAlizer-for-Bela/fft.h:46:44
	ldr	r0, [r0, #4]
.Ltmp272:
	.loc	9 202 41                @ /root/Bela/projects/SOFAlizer-for-Bela/filtering_test.cpp:202:41
	mov	r1, r0
	ldr	r8, [r1, r9, lsl #3]!
	.loc	9 202 19 is_stmt 0      @ /root/Bela/projects/SOFAlizer-for-Bela/filtering_test.cpp:202:19
	str	r8, [sp, #36]
	.loc	9 204 43 is_stmt 1      @ /root/Bela/projects/SOFAlizer-for-Bela/filtering_test.cpp:204:43
	ldr	r4, [sp, #16]           @ 4-byte Reload
	.loc	9 203 41                @ /root/Bela/projects/SOFAlizer-for-Bela/filtering_test.cpp:203:41
	ldr	r1, [r1, #4]
	.loc	9 203 19 is_stmt 0      @ /root/Bela/projects/SOFAlizer-for-Bela/filtering_test.cpp:203:19
	str	r1, [sp, #40]
	.loc	9 204 43 is_stmt 1      @ /root/Bela/projects/SOFAlizer-for-Bela/filtering_test.cpp:204:43
	ldr	r7, [r0, r4, lsl #3]!
	add	r4, sp, #36
	.loc	9 204 19 is_stmt 0      @ /root/Bela/projects/SOFAlizer-for-Bela/filtering_test.cpp:204:19
	str	r7, [sp, #44]
	.loc	9 205 43 is_stmt 1      @ /root/Bela/projects/SOFAlizer-for-Bela/filtering_test.cpp:205:43
	ldr	r0, [r0, #4]
	.loc	9 205 19 is_stmt 0      @ /root/Bela/projects/SOFAlizer-for-Bela/filtering_test.cpp:205:19
	str	r0, [sp, #48]
	.loc	9 212 23 is_stmt 1      @ /root/Bela/projects/SOFAlizer-for-Bela/filtering_test.cpp:212:23
	str	r1, [sp, #20]
	.loc	9 213 23                @ /root/Bela/projects/SOFAlizer-for-Bela/filtering_test.cpp:213:23
	str	r8, [sp, #24]
	.loc	9 214 23                @ /root/Bela/projects/SOFAlizer-for-Bela/filtering_test.cpp:214:23
	str	r0, [sp, #28]
	add	r0, sp, #20
	.loc	9 215 23                @ /root/Bela/projects/SOFAlizer-for-Bela/filtering_test.cpp:215:23
	str	r7, [sp, #32]
.Ltmp273:
	.loc	9 217 76 discriminator 1 @ /root/Bela/projects/SOFAlizer-for-Bela/filtering_test.cpp:217:76
	vld1.32	{d20, d21}, [r0]
.Ltmp274:
	@DEBUG_VALUE: pos <- 0
	@DEBUG_VALUE: filtering_multiple_positions_neon:R2 <- %Q10
	@DEBUG_VALUE: __ret <- %Q10
	mov	r0, #0
.Ltmp275:
	@DEBUG_VALUE: fd:this <- undef
	@DEBUG_VALUE: fd:this <- undef
	@DEBUG_VALUE: fd:this <- undef
	@DEBUG_VALUE: fd:this <- undef
	.loc	9 208 72 discriminator 1 @ /root/Bela/projects/SOFAlizer-for-Bela/filtering_test.cpp:208:72
	vld1.32	{d18, d19}, [r4]
.Ltmp276:
	@DEBUG_VALUE: filtering_multiple_positions_neon:R1 <- %Q9
	@DEBUG_VALUE: __ret <- %Q9
.LBB2_18:                               @   Parent Loop BB2_15 Depth=1
                                        @ =>  This Inner Loop Header: Depth=2
	.loc	9 229 102               @ /root/Bela/projects/SOFAlizer-for-Bela/filtering_test.cpp:229:102
	ldr	r1, [r2, r0, lsl #2]
.Ltmp277:
	.loc	9 230 102               @ /root/Bela/projects/SOFAlizer-for-Bela/filtering_test.cpp:230:102
	ldr	r4, [r3, r0, lsl #2]
.Ltmp278:
	.loc	9 229 102               @ /root/Bela/projects/SOFAlizer-for-Bela/filtering_test.cpp:229:102
	ldr	r1, [r1, r10, lsl #2]
.Ltmp279:
	.loc	9 230 102               @ /root/Bela/projects/SOFAlizer-for-Bela/filtering_test.cpp:230:102
	ldr	r4, [r4, r10, lsl #2]
.Ltmp280:
	.loc	9 229 79 discriminator 2 @ /root/Bela/projects/SOFAlizer-for-Bela/filtering_test.cpp:229:79
	vld1.32	{d22, d23}, [r1]
.Ltmp281:
	@DEBUG_VALUE: __ret <- %Q11
	@DEBUG_VALUE: filtering_multiple_positions_neon:Hreal <- %Q11
	.loc	9 233 17                @ /root/Bela/projects/SOFAlizer-for-Bela/filtering_test.cpp:233:17
	vmul.f32	q11, q11, q9
.Ltmp282:
	@DEBUG_VALUE: filtering_multiple_positions_neon:C <- %Q11
	.loc	9 230 79 discriminator 2 @ /root/Bela/projects/SOFAlizer-for-Bela/filtering_test.cpp:230:79
	vld1.32	{d24, d25}, [r4]
.Ltmp283:
	@DEBUG_VALUE: __ret <- %Q12
	@DEBUG_VALUE: filtering_multiple_positions_neon:Himag <- %Q12
	adr	r1, .LCPI2_0
.Ltmp284:
	.loc	9 234 17                @ /root/Bela/projects/SOFAlizer-for-Bela/filtering_test.cpp:234:17
	vmul.f32	q12, q12, q10
.Ltmp285:
	.loc	9 237 33                @ /root/Bela/projects/SOFAlizer-for-Bela/filtering_test.cpp:237:33
	vld1.32	{d26, d27}, [r12]
	.loc	9 234 17                @ /root/Bela/projects/SOFAlizer-for-Bela/filtering_test.cpp:234:17
	vadd.f32	q11, q12, q11
.Ltmp286:
	.loc	9 237 41                @ /root/Bela/projects/SOFAlizer-for-Bela/filtering_test.cpp:237:41
	vld1.64	{d24, d25}, [r1:128]
	vmul.f32	q11, q11, q12
	.loc	9 237 33 is_stmt 0      @ /root/Bela/projects/SOFAlizer-for-Bela/filtering_test.cpp:237:33
	vadd.f32	q11, q11, q13
	vst1.32	{d22, d23}, [r12]
.Ltmp287:
	.loc	9 243 100 is_stmt 1     @ /root/Bela/projects/SOFAlizer-for-Bela/filtering_test.cpp:243:100
	ldr	r1, [r5, r0, lsl #2]
.Ltmp288:
	.loc	9 244 100               @ /root/Bela/projects/SOFAlizer-for-Bela/filtering_test.cpp:244:100
	ldr	r4, [r6, r0, lsl #2]
.Ltmp289:
	.loc	9 226 45 discriminator 3 @ /root/Bela/projects/SOFAlizer-for-Bela/filtering_test.cpp:226:45
	add	r0, r0, #1
.Ltmp290:
	@DEBUG_VALUE: pos <- %R0
	.loc	9 243 100               @ /root/Bela/projects/SOFAlizer-for-Bela/filtering_test.cpp:243:100
	ldr	r1, [r1, r10, lsl #2]
.Ltmp291:
	.loc	9 226 9 discriminator 1 @ /root/Bela/projects/SOFAlizer-for-Bela/filtering_test.cpp:226:9
	cmp	r0, #65
.Ltmp292:
	.loc	9 244 100               @ /root/Bela/projects/SOFAlizer-for-Bela/filtering_test.cpp:244:100
	ldr	r4, [r4, r10, lsl #2]
.Ltmp293:
	.loc	9 243 77 discriminator 2 @ /root/Bela/projects/SOFAlizer-for-Bela/filtering_test.cpp:243:77
	vld1.32	{d22, d23}, [r1]
.Ltmp294:
	@DEBUG_VALUE: __ret <- %Q11
	@DEBUG_VALUE: filtering_multiple_positions_neon:Hreal <- %Q11
	.loc	9 247 15                @ /root/Bela/projects/SOFAlizer-for-Bela/filtering_test.cpp:247:15
	vmul.f32	q11, q11, q9
.Ltmp295:
	@DEBUG_VALUE: filtering_multiple_positions_neon:C <- %Q11
	.loc	9 244 77 discriminator 2 @ /root/Bela/projects/SOFAlizer-for-Bela/filtering_test.cpp:244:77
	vld1.32	{d26, d27}, [r4]
.Ltmp296:
	@DEBUG_VALUE: __ret <- %Q13
	@DEBUG_VALUE: filtering_multiple_positions_neon:Himag <- %Q13
	.loc	9 248 15                @ /root/Bela/projects/SOFAlizer-for-Bela/filtering_test.cpp:248:15
	vmul.f32	q13, q13, q10
.Ltmp297:
	vadd.f32	q11, q13, q11
.Ltmp298:
	.loc	9 251 42                @ /root/Bela/projects/SOFAlizer-for-Bela/filtering_test.cpp:251:42
	vmul.f32	q11, q11, q12
	.loc	9 251 34 is_stmt 0      @ /root/Bela/projects/SOFAlizer-for-Bela/filtering_test.cpp:251:34
	vld1.32	{d24, d25}, [lr]
	vadd.f32	q11, q11, q12
	vst1.32	{d22, d23}, [lr]
	bne	.LBB2_18
.Ltmp299:
@ BB#19:                                @   in Loop: Header=BB2_15 Depth=1
	@DEBUG_VALUE: pos <- %R0
	.loc	9 133 44 is_stmt 1 discriminator 3 @ /root/Bela/projects/SOFAlizer-for-Bela/filtering_test.cpp:133:44
	add	r10, r10, #1
.Ltmp300:
	@DEBUG_VALUE: i <- %R10
	.loc	9 257 18                @ /root/Bela/projects/SOFAlizer-for-Bela/filtering_test.cpp:257:18
	add	r9, r9, #2
.Ltmp301:
	@DEBUG_VALUE: filtering_multiple_positions_neon:cnt <- %R9
	.loc	9 133 5 discriminator 1 @ /root/Bela/projects/SOFAlizer-for-Bela/filtering_test.cpp:133:5
	cmp	r10, #128
	bne	.LBB2_15
.Ltmp302:
@ BB#20:
	@DEBUG_VALUE: filtering_multiple_positions_neon:cnt <- %R9
	@DEBUG_VALUE: i <- %R10
	@DEBUG_VALUE: pos <- %R0
	.loc	9 261 16                @ /root/Bela/projects/SOFAlizer-for-Bela/filtering_test.cpp:261:16
	movw	r6, :lower16:outLeftFFT
	movt	r6, :upper16:outLeftFFT
.Ltmp303:
	@DEBUG_VALUE: fdi:this <- %R6
	mov	r0, r6
.Ltmp304:
	bl	_ZN3Fft4ifftEv
	.loc	9 262 17                @ /root/Bela/projects/SOFAlizer-for-Bela/filtering_test.cpp:262:17
	movw	r5, :lower16:outRightFFT
	movt	r5, :upper16:outRightFFT
.Ltmp305:
	@DEBUG_VALUE: fdi:this <- %R5
	mov	r0, r5
	bl	_ZN3Fft4ifftEv
.Ltmp306:
	.loc	9 264 9                 @ /root/Bela/projects/SOFAlizer-for-Bela/filtering_test.cpp:264:9
	movw	r0, :lower16:bypass
	movt	r0, :upper16:bypass
	ldrb	r0, [r0]
.Ltmp307:
	.loc	9 264 9 is_stmt 0       @ /root/Bela/projects/SOFAlizer-for-Bela/filtering_test.cpp:264:9
	cmp	r0, #0
	beq	.LBB2_23
.Ltmp308:
@ BB#21:                                @ %.preheader242
	@DEBUG_VALUE: fdi:this <- %R5
	@DEBUG_VALUE: fdi:this <- %R6
	@DEBUG_VALUE: filtering_multiple_positions_neon:cnt <- %R9
	@DEBUG_VALUE: i <- %R10
	.loc	9 108 5 is_stmt 1       @ /root/Bela/projects/SOFAlizer-for-Bela/filtering_test.cpp:108:5
	movw	r2, :lower16:.L_MergedGlobals
	ldr	r1, [sp, #4]            @ 4-byte Reload
	movt	r2, :upper16:.L_MergedGlobals
	ldr	r4, [r11, #8]
	mov	r3, r2
	mov	r7, #0
.Ltmp309:
	.loc	7 781 32                @ /usr/bin/../lib/gcc/arm-linux-gnueabihf/6.3.0/../../../../include/c++/6.3.0/bits/stl_vector.h:781:32
	ldr	r0, [r1]
.Ltmp310:
	.loc	7 781 32 is_stmt 0      @ /usr/bin/../lib/gcc/arm-linux-gnueabihf/6.3.0/../../../../include/c++/6.3.0/bits/stl_vector.h:781:32
	ldr	r2, [r3, #40]
.Ltmp311:
	.loc	7 781 32                @ /usr/bin/../lib/gcc/arm-linux-gnueabihf/6.3.0/../../../../include/c++/6.3.0/bits/stl_vector.h:781:32
	ldr	r1, [r1, #12]
.Ltmp312:
	.loc	7 781 32                @ /usr/bin/../lib/gcc/arm-linux-gnueabihf/6.3.0/../../../../include/c++/6.3.0/bits/stl_vector.h:781:32
	ldr	r3, [r3, #52]
.Ltmp313:
.LBB2_22:                               @ =>This Inner Loop Header: Depth=1
	.loc	9 267 48 is_stmt 1      @ /root/Bela/projects/SOFAlizer-for-Bela/filtering_test.cpp:267:48
	add	r5, r4, r7
.Ltmp314:
	@DEBUG_VALUE: operator[]:__n <- %R7
	.loc	9 268 40                @ /root/Bela/projects/SOFAlizer-for-Bela/filtering_test.cpp:268:40
	ldr	r6, [r2, r7, lsl #2]
	.loc	9 267 48                @ /root/Bela/projects/SOFAlizer-for-Bela/filtering_test.cpp:267:48
	bfc	r5, #10, #22
.Ltmp315:
	@DEBUG_VALUE: outcBuffIdx <- %R5
	@DEBUG_VALUE: operator[]:__n <- %R5
	@DEBUG_VALUE: operator[]:__n <- %R5
	.loc	9 268 38                @ /root/Bela/projects/SOFAlizer-for-Bela/filtering_test.cpp:268:38
	str	r6, [r0, r5, lsl #2]
	.loc	9 269 41                @ /root/Bela/projects/SOFAlizer-for-Bela/filtering_test.cpp:269:41
	ldr	r6, [r3, r7, lsl #2]
.Ltmp316:
	.loc	9 266 41 discriminator 3 @ /root/Bela/projects/SOFAlizer-for-Bela/filtering_test.cpp:266:41
	add	r7, r7, #1
.Ltmp317:
	@DEBUG_VALUE: i <- %R7
	.loc	9 269 39                @ /root/Bela/projects/SOFAlizer-for-Bela/filtering_test.cpp:269:39
	str	r6, [r1, r5, lsl #2]
.Ltmp318:
	.loc	9 266 6 discriminator 1 @ /root/Bela/projects/SOFAlizer-for-Bela/filtering_test.cpp:266:6
	cmp	r7, #256
	bne	.LBB2_22
	b	.LBB2_25
.Ltmp319:
.LBB2_23:                               @ %.preheader
	@DEBUG_VALUE: fdi:this <- %R5
	@DEBUG_VALUE: fdi:this <- %R6
	@DEBUG_VALUE: filtering_multiple_positions_neon:cnt <- %R9
	@DEBUG_VALUE: i <- %R10
	ldr	r1, [sp, #4]            @ 4-byte Reload
	mov	r7, #0
.Ltmp320:
	.loc	38 63 37                @ /root/Bela/projects/SOFAlizer-for-Bela/fft.h:63:37
	ldr	r2, [r5]
.Ltmp321:
	.loc	38 63 37 is_stmt 0      @ /root/Bela/projects/SOFAlizer-for-Bela/fft.h:63:37
	ldr	r3, [r6]
.Ltmp322:
	.loc	7 781 32 is_stmt 1      @ /usr/bin/../lib/gcc/arm-linux-gnueabihf/6.3.0/../../../../include/c++/6.3.0/bits/stl_vector.h:781:32
	ldr	r0, [r1]
.Ltmp323:
	.loc	7 781 32 is_stmt 0      @ /usr/bin/../lib/gcc/arm-linux-gnueabihf/6.3.0/../../../../include/c++/6.3.0/bits/stl_vector.h:781:32
	ldr	r1, [r1, #12]
	ldr	r4, [r11, #8]
.Ltmp324:
.LBB2_24:                               @ =>This Inner Loop Header: Depth=1
	.loc	9 275 51 is_stmt 1      @ /root/Bela/projects/SOFAlizer-for-Bela/filtering_test.cpp:275:51
	mov	r5, r4
	.loc	9 276 55                @ /root/Bela/projects/SOFAlizer-for-Bela/filtering_test.cpp:276:55
	add	r6, r3, r7
	.loc	9 275 51                @ /root/Bela/projects/SOFAlizer-for-Bela/filtering_test.cpp:275:51
	bfc	r5, #10, #22
.Ltmp325:
	@DEBUG_VALUE: outcBuffIdx <- %R5
	@DEBUG_VALUE: operator[]:__n <- %R5
	@DEBUG_VALUE: operator[]:__n <- %R5
	.loc	9 274 9 discriminator 1 @ /root/Bela/projects/SOFAlizer-for-Bela/filtering_test.cpp:274:9
	add	r4, r4, #1
.Ltmp326:
	.loc	9 276 55                @ /root/Bela/projects/SOFAlizer-for-Bela/filtering_test.cpp:276:55
	vldr	s0, [r6]
.Ltmp327:
	.loc	7 781 41                @ /usr/bin/../lib/gcc/arm-linux-gnueabihf/6.3.0/../../../../include/c++/6.3.0/bits/stl_vector.h:781:41
	add	r6, r0, r5, lsl #2
.Ltmp328:
	.loc	9 276 41                @ /root/Bela/projects/SOFAlizer-for-Bela/filtering_test.cpp:276:41
	vldr	s2, [r6]
	vadd.f32	d0, d1, d0
	vstr	s0, [r6]
	.loc	9 277 57                @ /root/Bela/projects/SOFAlizer-for-Bela/filtering_test.cpp:277:57
	add	r6, r2, r7
.Ltmp329:
	.loc	9 274 9 discriminator 1 @ /root/Bela/projects/SOFAlizer-for-Bela/filtering_test.cpp:274:9
	add	r7, r7, #4
.Ltmp330:
	.loc	9 277 57                @ /root/Bela/projects/SOFAlizer-for-Bela/filtering_test.cpp:277:57
	vldr	s0, [r6]
.Ltmp331:
	.loc	7 781 41                @ /usr/bin/../lib/gcc/arm-linux-gnueabihf/6.3.0/../../../../include/c++/6.3.0/bits/stl_vector.h:781:41
	add	r6, r1, r5, lsl #2
.Ltmp332:
	.loc	9 274 9 discriminator 1 @ /root/Bela/projects/SOFAlizer-for-Bela/filtering_test.cpp:274:9
	cmp	r7, #2048
.Ltmp333:
	.loc	9 277 42                @ /root/Bela/projects/SOFAlizer-for-Bela/filtering_test.cpp:277:42
	vldr	s2, [r6]
	vadd.f32	d0, d1, d0
	vstr	s0, [r6]
	bne	.LBB2_24
.Ltmp334:
.LBB2_25:                               @ %.loopexit
	.loc	9 280 1 discriminator 2 @ /root/Bela/projects/SOFAlizer-for-Bela/filtering_test.cpp:280:1
	sub	sp, r11, #28
	pop	{r4, r5, r6, r7, r8, r9, r10, r11, pc}
.LBB2_26:
.Ltmp335:
	@DEBUG_VALUE: lock:__e <- %R0
	@DEBUG_VALUE: filtering_multiple_positions_neon:hrtfdata <- %R9
	@DEBUG_VALUE: filtering_multiple_positions_neon:incBuff <- %R7
	@DEBUG_VALUE: filtering_multiple_positions_neon:in_read_ptr <- %R8
	@DEBUG_VALUE: filtering_multiple_positions_neon:outcBuff <- %R6
	.loc	36 107 2                @ /usr/bin/../lib/gcc/arm-linux-gnueabihf/6.3.0/../../../../include/c++/6.3.0/bits/std_mutex.h:107:2
	mov	lr, pc
	b	_ZSt20__throw_system_errori
.Ltmp336:
.LBB2_27:
	@DEBUG_VALUE: filtering_multiple_positions_neon:hrtfdata <- %R9
	@DEBUG_VALUE: filtering_multiple_positions_neon:incBuff <- %R7
	@DEBUG_VALUE: filtering_multiple_positions_neon:in_read_ptr <- %R8
	@DEBUG_VALUE: filtering_multiple_positions_neon:outcBuff <- %R6
.Ltmp154:
	b	.LBB2_29
.Ltmp337:
.LBB2_28:
	@DEBUG_VALUE: filtering_multiple_positions_neon:hrtfdata <- %R9
	@DEBUG_VALUE: filtering_multiple_positions_neon:incBuff <- %R7
	@DEBUG_VALUE: filtering_multiple_positions_neon:in_read_ptr <- %R8
	@DEBUG_VALUE: filtering_multiple_positions_neon:outcBuff <- %R6
.Ltmp151:
.Ltmp338:
.LBB2_29:
	@DEBUG_VALUE: filtering_multiple_positions_neon:hrtfdata <- %R9
	@DEBUG_VALUE: filtering_multiple_positions_neon:incBuff <- %R7
	@DEBUG_VALUE: filtering_multiple_positions_neon:in_read_ptr <- %R8
	@DEBUG_VALUE: filtering_multiple_positions_neon:outcBuff <- %R6
	mov	r5, r0
	.loc	9 108 5 discriminator 13 @ /root/Bela/projects/SOFAlizer-for-Bela/filtering_test.cpp:108:5
	mov	r0, r4
	bl	__cxa_guard_abort
	mov	r0, r5
	mov	lr, pc
	b	_Unwind_Resume
.Ltmp339:
	.p2align	4
@ BB#30:
.LCPI2_0:
	.long	1014763457              @ float 0.0153846154
	.long	1014763457              @ float 0.0153846154
	.long	1014763457              @ float 0.0153846154
	.long	1014763457              @ float 0.0153846154
.Lfunc_end2:
	.size	_Z33filtering_multiple_positions_neonRSt6vectorI8HRTFDataSaIS0_EEPK8CircBuffjPS4_j, .Lfunc_end2-_Z33filtering_multiple_positions_neonRSt6vectorI8HRTFDataSaIS0_EEPK8CircBuffjPS4_j
	.cfi_endproc
	.globl	__gxx_personality_v0
	.personality __gxx_personality_v0
	.handlerdata
	.p2align	2
GCC_except_table2:
.Lexception1:
	.byte	255                     @ @LPStart Encoding = omit
	.byte	0                       @ @TType Encoding = absptr
	.asciz	"\266\200\200"          @ @TType base offset
	.byte	3                       @ Call site Encoding = udata4
	.byte	52                      @ Call site table length
	.long	.Ltmp149-.Lfunc_begin2  @ >> Call Site 1 <<
	.long	.Ltmp150-.Ltmp149       @   Call between .Ltmp149 and .Ltmp150
	.long	.Ltmp151-.Lfunc_begin2  @     jumps to .Ltmp151
	.byte	0                       @   On action: cleanup
	.long	.Ltmp150-.Lfunc_begin2  @ >> Call Site 2 <<
	.long	.Ltmp152-.Ltmp150       @   Call between .Ltmp150 and .Ltmp152
	.long	0                       @     has no landing pad
	.byte	0                       @   On action: cleanup
	.long	.Ltmp152-.Lfunc_begin2  @ >> Call Site 3 <<
	.long	.Ltmp153-.Ltmp152       @   Call between .Ltmp152 and .Ltmp153
	.long	.Ltmp154-.Lfunc_begin2  @     jumps to .Ltmp154
	.byte	0                       @   On action: cleanup
	.long	.Ltmp153-.Lfunc_begin2  @ >> Call Site 4 <<
	.long	.Lfunc_end2-.Ltmp153    @   Call between .Ltmp153 and .Lfunc_end2
	.long	0                       @     has no landing pad
	.byte	0                       @   On action: cleanup
	.p2align	2
	.fnend

	.type	.L_MergedGlobals,%object @ @_MergedGlobals
	.local	.L_MergedGlobals
	.comm	.L_MergedGlobals,64,16
	.file	44 "/root/Bela/projects/SOFAlizer-for-Bela" "circular_buffer.h"