	.text
	.syntax unified
	.eabi_attribute	67, "2.09"	@ Tag_conformance
	.cpu	cortex-a8
	.eabi_attribute	6, 10	@ Tag_CPU_arch
	.eabi_attribute	7, 65	@ Tag_CPU_arch_profile
	.eabi_attribute	8, 1	@ Tag_ARM_ISA_use
	.eabi_attribute	9, 2	@ Tag_THUMB_ISA_use
	.fpu	neon
	.eabi_attribute	17, 1	@ Tag_ABI_PCS_GOT_use
	.eabi_attribute	20, 2	@ Tag_ABI_FP_denormal
	.eabi_attribute	23, 1	@ Tag_ABI_FP_number_model
	.eabi_attribute	34, 1	@ Tag_CPU_unaligned_access
	.eabi_attribute	24, 1	@ Tag_ABI_align_needed
	.eabi_attribute	25, 1	@ Tag_ABI_align_preserved
	.eabi_attribute	28, 1	@ Tag_ABI_VFP_args
	.eabi_attribute	38, 1	@ Tag_ABI_FP_16bit_format
	.eabi_attribute	18, 4	@ Tag_ABI_PCS_wchar_t
	.eabi_attribute	26, 2	@ Tag_ABI_enum_size
	.eabi_attribute	14, 0	@ Tag_ABI_PCS_R9_use
	.eabi_attribute	68, 1	@ Tag_Virtualization_use
	.file	"/root/Bela/projects/SOFAlizer-for-Bela/build/osc.bc"
	.file	1 "/usr/bin/../lib/gcc/arm-linux-gnueabihf/6.3.0/../../../../include/arm-linux-gnueabihf/c++/6.3.0/bits" "gthr-default.h"
	.file	2 "/usr/bin/../lib/gcc/arm-linux-gnueabihf/6.3.0/../../../../include/arm-linux-gnueabihf/c++/6.3.0/bits" "c++config.h"
	.file	3 "/usr/bin/../lib/gcc/arm-linux-gnueabihf/6.3.0/../../../../include/c++/6.3.0/ext" "concurrence.h"
	.file	4 "./libraries/OscSender" "OscSender.h"
	.file	5 "./include" "oscpkt.hh"
	.file	6 "/usr/bin/../lib/gcc/arm-linux-gnueabihf/6.3.0/../../../../include/c++/6.3.0" "functional"
	.file	7 "/usr/bin/../lib/gcc/arm-linux-gnueabihf/6.3.0/../../../../include/c++/6.3.0/bits" "basic_string.h"
	.file	8 "/usr/bin/../lib/gcc/arm-linux-gnueabihf/6.3.0/../../../../include/c++/6.3.0/bits" "atomic_base.h"
	.file	9 "/usr/bin/../lib/gcc/arm-linux-gnueabihf/6.3.0/../../../../include/c++/6.3.0/bits" "stringfwd.h"
	.file	10 "/usr/bin/../lib/gcc/arm-linux-gnueabihf/6.3.0/../../../../include/c++/6.3.0/bits" "alloc_traits.h"
	.file	11 "/usr/bin/../lib/gcc/arm-linux-gnueabihf/6.3.0/../../../../include/c++/6.3.0/ext" "alloc_traits.h"
	.file	12 "/usr/bin/../lib/gcc/arm-linux-gnueabihf/6.3.0/../../../../include/c++/6.3.0/bits" "char_traits.h"
	.file	13 "/usr/bin/../lib/gcc/arm-linux-gnueabihf/6.3.0/../../../../include/c++/6.3.0/bits" "stl_vector.h"
	.file	14 "/usr/bin/../lib/gcc/arm-linux-gnueabihf/6.3.0/../../../../include/c++/6.3.0/bits" "stl_iterator.h"
	.file	15 "/usr/bin/../lib/gcc/arm-linux-gnueabihf/6.3.0/../../../../include/c++/6.3.0/bits" "stl_iterator_base_types.h"
	.file	16 "/usr/bin/../lib/gcc/arm-linux-gnueabihf/6.3.0/../../../../include/c++/6.3.0" "type_traits"
	.file	17 "/usr/bin/../lib/gcc/arm-linux-gnueabihf/6.3.0/../../../../include/c++/6.3.0/debug" "debug.h"
	.file	18 "/usr/bin/../lib/gcc/arm-linux-gnueabihf/6.3.0/../../../../include/c++/6.3.0/bits" "exception_ptr.h"
	.file	19 "/usr/include" "wchar.h"
	.file	20 "/usr/lib/llvm-3.9/bin/../lib/clang/3.9.1/include" "stddef.h"
	.file	21 "/usr/include" "libio.h"
	.file	22 "/usr/include/arm-linux-gnueabihf/bits" "types.h"
	.file	23 "/usr/include" "stdio.h"
	.file	24 "/usr/lib/llvm-3.9/bin/../lib/clang/3.9.1/include" "stdarg.h"
	.file	25 "/usr/include/arm-linux-gnueabihf/sys" "types.h"
	.file	26 "/usr/include" "stdint.h"
	.file	27 "/usr/include" "locale.h"
	.file	28 "/usr/include" "ctype.h"
	.file	29 "/usr/include" "stdlib.h"
	.file	30 "/usr/include/arm-linux-gnueabihf/bits" "stdlib-float.h"
	.file	31 "/usr/include/arm-linux-gnueabihf/bits" "stdlib-bsearch.h"
	.file	32 "/usr/bin/../lib/gcc/arm-linux-gnueabihf/6.3.0/../../../../include/c++/6.3.0" "cstdlib"
	.file	33 "/usr/include" "_G_config.h"
	.file	34 "/usr/include/arm-linux-gnueabihf/bits" "stdio.h"
	.file	35 "/usr/include" "string.h"
	.file	36 "/usr/include" "time.h"
	.file	37 "/root/Bela/projects/SOFAlizer-for-Bela/build" "osc.cpp"
	.file	38 "/usr/include/arm-linux-gnueabihf/bits" "math-finite.h"
	.file	39 "/usr/include/arm-linux-gnueabihf/bits" "mathcalls.h"
	.file	40 "/usr/include/arm-linux-gnueabihf/bits" "mathdef.h"
	.globl	_ZN12OSCinterfaceC2Ev
	.p2align	2
	.type	_ZN12OSCinterfaceC2Ev,%function
_ZN12OSCinterfaceC2Ev:                  @ @_ZN12OSCinterfaceC2Ev
.Lfunc_begin0:
	.file	41 "/root/Bela/projects/SOFAlizer-for-Bela" "osc.cpp"
	.loc	41 7 0                  @ /root/Bela/projects/SOFAlizer-for-Bela/osc.cpp:7:0
	.fnstart
	.cfi_startproc
@ BB#0:
	.save	{r4, r5, r11, lr}
	push	{r4, r5, r11, lr}
.Ltmp3:
	.cfi_def_cfa_offset 16
.Ltmp4:
	.cfi_offset lr, -4
.Ltmp5:
	.cfi_offset r11, -8
.Ltmp6:
	.cfi_offset r5, -12
.Ltmp7:
	.cfi_offset r4, -16
	.setfp	r11, sp, #8
	add	r11, sp, #8
.Ltmp8:
	.cfi_def_cfa r11, 8
	@DEBUG_VALUE: OSCinterface:this <- %R0
	mov	r4, r0
.Ltmp9:
	@DEBUG_VALUE: OSCinterface:this <- %R4
	.loc	41 7 15 prologue_end    @ /root/Bela/projects/SOFAlizer-for-Bela/osc.cpp:7:15
	bl	_ZN11OscReceiverC1Ev
.Ltmp0:
	add	r0, r4, #48
	bl	_ZN9OscSenderC1Ev
.Ltmp1:
.Ltmp10:
@ BB#1:
	@DEBUG_VALUE: OSCinterface:this <- %R4
	.loc	41 10 14                @ /root/Bela/projects/SOFAlizer-for-Bela/osc.cpp:10:14
	movw	r2, :lower16:.L.str
	.loc	41 8 15                 @ /root/Bela/projects/SOFAlizer-for-Bela/osc.cpp:8:15
	movw	r0, #7562
	.loc	41 9 16                 @ /root/Bela/projects/SOFAlizer-for-Bela/osc.cpp:9:16
	movw	r1, #7563
	.loc	41 10 14                @ /root/Bela/projects/SOFAlizer-for-Bela/osc.cpp:10:14
	movt	r2, :upper16:.L.str
	.loc	41 8 15                 @ /root/Bela/projects/SOFAlizer-for-Bela/osc.cpp:8:15
	add	r3, r4, #64
	stm	r3, {r0, r1, r2}
.Ltmp11:
	.loc	41 11 1                 @ /root/Bela/projects/SOFAlizer-for-Bela/osc.cpp:11:1
	mov	r0, r4
	pop	{r4, r5, r11, pc}
.Ltmp12:
.LBB0_2:
	@DEBUG_VALUE: OSCinterface:this <- %R4
.Ltmp2:
	mov	r5, r0
	.loc	41 11 1 is_stmt 0 discriminator 1 @ /root/Bela/projects/SOFAlizer-for-Bela/osc.cpp:11:1
	mov	r0, r4
	bl	_ZN11OscReceiverD1Ev
	mov	r0, r5
	mov	lr, pc
	b	_Unwind_Resume
.Ltmp13:
.Lfunc_end0:
	.size	_ZN12OSCinterfaceC2Ev, .Lfunc_end0-_ZN12OSCinterfaceC2Ev
	.cfi_endproc
	.file	42 "./libraries/OscReceiver" "OscReceiver.h"
	.file	43 "/usr/bin/../lib/gcc/arm-linux-gnueabihf/6.3.0/../../../../include/c++/6.3.0/bits" "unique_ptr.h"
	.file	44 "/usr/bin/../lib/gcc/arm-linux-gnueabihf/6.3.0/../../../../include/c++/6.3.0" "tuple"
	.file	45 "/usr/bin/../lib/gcc/arm-linux-gnueabihf/6.3.0/../../../../include/c++/6.3.0/bits" "uses_allocator.h"
	.file	46 "/usr/bin/../lib/gcc/arm-linux-gnueabihf/6.3.0/../../../../include/c++/6.3.0/bits" "stl_pair.h"
	.file	47 "/usr/bin/../lib/gcc/arm-linux-gnueabihf/6.3.0/../../../../include/c++/6.3.0/ext" "new_allocator.h"
	.file	48 "/usr/bin/../lib/gcc/arm-linux-gnueabihf/6.3.0/../../../../include/arm-linux-gnueabihf/c++/6.3.0/bits" "c++allocator.h"
	.file	49 "/usr/bin/../lib/gcc/arm-linux-gnueabihf/6.3.0/../../../../include/c++/6.3.0/bits" "allocator.h"
	.file	50 "/root/Bela/projects/SOFAlizer-for-Bela" "osc.h"
	.globl	__gxx_personality_v0
	.personality __gxx_personality_v0
	.handlerdata
	.p2align	2
GCC_except_table0:
.Lexception0:
	.byte	255                     @ @LPStart Encoding = omit
	.byte	0                       @ @TType Encoding = absptr
	.byte	41                      @ @TType base offset
	.byte	3                       @ Call site Encoding = udata4
	.byte	39                      @ Call site table length
	.long	.Lfunc_begin0-.Lfunc_begin0 @ >> Call Site 1 <<
	.long	.Ltmp0-.Lfunc_begin0    @   Call between .Lfunc_begin0 and .Ltmp0
	.long	0                       @     has no landing pad
	.byte	0                       @   On action: cleanup
	.long	.Ltmp0-.Lfunc_begin0    @ >> Call Site 2 <<
	.long	.Ltmp1-.Ltmp0           @   Call between .Ltmp0 and .Ltmp1
	.long	.Ltmp2-.Lfunc_begin0    @     jumps to .Ltmp2
	.byte	0                       @   On action: cleanup
	.long	.Ltmp1-.Lfunc_begin0    @ >> Call Site 3 <<
	.long	.Lfunc_end0-.Ltmp1      @   Call between .Ltmp1 and .Lfunc_end0
	.long	0                       @     has no landing pad
	.byte	0                       @   On action: cleanup
	.p2align	2
	.fnend

	.globl	_ZN12OSCinterface13send_filenameEPc
	.p2align	2
	.type	_ZN12OSCinterface13send_filenameEPc,%function
_ZN12OSCinterface13send_filenameEPc:    @ @_ZN12OSCinterface13send_filenameEPc
.Lfunc_begin1:
	.loc	41 13 0 is_stmt 1       @ /root/Bela/projects/SOFAlizer-for-Bela/osc.cpp:13:0
	.fnstart
	.cfi_startproc
@ BB#0:                                 @ %._crit_edge.i.i.i.i
	.save	{r4, r5, r6, r7, r8, r10, r11, lr}
	push	{r4, r5, r6, r7, r8, r10, r11, lr}
.Ltmp27:
	.cfi_def_cfa_offset 32
.Ltmp28:
	.cfi_offset lr, -4
.Ltmp29:
	.cfi_offset r11, -8
.Ltmp30:
	.cfi_offset r10, -12
.Ltmp31:
	.cfi_offset r8, -16
.Ltmp32:
	.cfi_offset r7, -20
.Ltmp33:
	.cfi_offset r6, -24
.Ltmp34:
	.cfi_offset r5, -28
.Ltmp35:
	.cfi_offset r4, -32
	.setfp	r11, sp, #24
	add	r11, sp, #24
.Ltmp36:
	.cfi_def_cfa r11, 8
	.pad	#56
	sub	sp, sp, #56
	@DEBUG_VALUE: send_filename:this <- %R0
	@DEBUG_VALUE: send_filename:filename <- %R1
.Ltmp37:
	.loc	12 290 33 prologue_end  @ /usr/bin/../lib/gcc/arm-linux-gnueabihf/6.3.0/../../../../include/c++/6.3.0/bits/char_traits.h:290:33
	movw	r2, :lower16:.L.str.1
	mov	r4, r1
.Ltmp38:
	@DEBUG_VALUE: send_filename:filename <- %R4
	movt	r2, :upper16:.L.str.1
	add	r3, r2, #7
	add	r1, sp, #24
.Ltmp39:
	@DEBUG_VALUE: _M_data:this <- %R1
	@DEBUG_VALUE: _M_length:this <- %R1
	@DEBUG_VALUE: _M_set_length:__n <- 15
	@DEBUG_VALUE: _M_set_length:this <- %R1
	@DEBUG_VALUE: _M_data:this <- %R1
	@DEBUG_VALUE: _M_construct<const char *>:__dnew <- 15
	@DEBUG_VALUE: _M_construct<const char *>:this <- %R1
	@DEBUG_VALUE: _M_construct_aux<const char *>:this <- %R1
	@DEBUG_VALUE: _M_construct<const char *>:this <- %R1
	@DEBUG_VALUE: _S_copy_chars:__p <- %R8
	@DEBUG_VALUE: _S_copy:__d <- %R8
	@DEBUG_VALUE: _M_local_data:this <- %R1
	vldr	d16, [r2]
	vld1.8	{d17}, [r3]
	add	r2, r1, #15
.Ltmp40:
	.loc	7 142 51                @ /usr/bin/../lib/gcc/arm-linux-gnueabihf/6.3.0/../../../../include/c++/6.3.0/bits/basic_string.h:142:51
	add	r8, r1, #8
.Ltmp41:
	.loc	7 110 25                @ /usr/bin/../lib/gcc/arm-linux-gnueabihf/6.3.0/../../../../include/c++/6.3.0/bits/basic_string.h:110:25
	str	r8, [sp, #24]
.Ltmp42:
	@DEBUG_VALUE: _S_copy:__n <- 15
	.loc	12 290 33               @ /usr/bin/../lib/gcc/arm-linux-gnueabihf/6.3.0/../../../../include/c++/6.3.0/bits/char_traits.h:290:33
	vst1.8	{d17}, [r2]
	mov	r2, #15
.Ltmp43:
	@DEBUG_VALUE: _M_length:__length <- 15
	vstr	d16, [sp, #32]
.Ltmp44:
	.loc	7 132 26                @ /usr/bin/../lib/gcc/arm-linux-gnueabihf/6.3.0/../../../../include/c++/6.3.0/bits/basic_string.h:132:26
	str	r2, [sp, #28]
.Ltmp45:
	.loc	12 243 14               @ /usr/bin/../lib/gcc/arm-linux-gnueabihf/6.3.0/../../../../include/c++/6.3.0/bits/char_traits.h:243:14
	mov	r2, #0
	strb	r2, [sp, #47]
.Ltmp46:
	.loc	41 14 15 discriminator 1 @ /root/Bela/projects/SOFAlizer-for-Bela/osc.cpp:14:15
.Ltmp14:
	.loc	41 14 5 is_stmt 0       @ /root/Bela/projects/SOFAlizer-for-Bela/osc.cpp:14:5
	add	r0, r0, #48
.Ltmp47:
	.loc	41 14 15 discriminator 1 @ /root/Bela/projects/SOFAlizer-for-Bela/osc.cpp:14:15
	bl	_ZN9OscSender10newMessageENSt7__cxx1112basic_stringIcSt11char_traitsIcESaIcEEE
.Ltmp48:
	mov	r5, r0
.Ltmp15:
.Ltmp49:
	@DEBUG_VALUE: _S_copy:__s <- %R2
@ BB#1:
	@DEBUG_VALUE: _S_copy:__s <- %R2
	@DEBUG_VALUE: send_filename:filename <- %R4
	mov	r0, sp
.Ltmp50:
	@DEBUG_VALUE: _M_local_data:this <- %R0
	.loc	7 142 51 is_stmt 1      @ /usr/bin/../lib/gcc/arm-linux-gnueabihf/6.3.0/../../../../include/c++/6.3.0/bits/basic_string.h:142:51
	add	r7, r0, #8
.Ltmp51:
	.loc	7 110 25                @ /usr/bin/../lib/gcc/arm-linux-gnueabihf/6.3.0/../../../../include/c++/6.3.0/bits/basic_string.h:110:25
	str	r7, [sp]
.Ltmp52:
	.loc	7 456 27                @ /usr/bin/../lib/gcc/arm-linux-gnueabihf/6.3.0/../../../../include/c++/6.3.0/bits/basic_string.h:456:27
	cmp	r4, #0
.Ltmp53:
	@DEBUG_VALUE: basic_string:__s <- %R4
	beq	.LBB1_17
.Ltmp54:
@ BB#2:                                 @ %.thread.i
	@DEBUG_VALUE: basic_string:__s <- %R4
	@DEBUG_VALUE: _M_local_data:this <- %R0
	@DEBUG_VALUE: _S_copy:__s <- %R2
	@DEBUG_VALUE: send_filename:filename <- %R4
	@DEBUG_VALUE: length:__s <- %R4
	.loc	12 267 16               @ /usr/bin/../lib/gcc/arm-linux-gnueabihf/6.3.0/../../../../include/c++/6.3.0/bits/char_traits.h:267:16
	mov	r0, r4
.Ltmp55:
	bl	strlen
.Ltmp56:
	mov	r6, r0
.Ltmp57:
	@DEBUG_VALUE: _M_construct<const char *>:__dnew <- %R6
	@DEBUG_VALUE: _S_copy:__n <- %R6
	.file	51 "/usr/bin/../lib/gcc/arm-linux-gnueabihf/6.3.0/../../../../include/c++/6.3.0/bits" "basic_string.tcc"
	.loc	51 217 6                @ /usr/bin/../lib/gcc/arm-linux-gnueabihf/6.3.0/../../../../include/c++/6.3.0/bits/basic_string.tcc:217:6
	cmp	r6, #15
	.loc	51 215 12               @ /usr/bin/../lib/gcc/arm-linux-gnueabihf/6.3.0/../../../../include/c++/6.3.0/bits/basic_string.tcc:215:12
	str	r6, [r11, #-28]
	bls	.LBB1_5
.Ltmp58:
@ BB#3:                                 @ %.noexc8.i8
	@DEBUG_VALUE: _S_copy:__n <- %R6
	@DEBUG_VALUE: _M_construct<const char *>:__dnew <- %R6
	@DEBUG_VALUE: length:__s <- %R4
	@DEBUG_VALUE: basic_string:__s <- %R4
	@DEBUG_VALUE: send_filename:filename <- %R4
	.loc	51 219 14               @ /usr/bin/../lib/gcc/arm-linux-gnueabihf/6.3.0/../../../../include/c++/6.3.0/bits/basic_string.tcc:219:14
.Ltmp17:
	sub	r1, r11, #28
.Ltmp59:
	@DEBUG_VALUE: _M_construct<const char *>:__dnew <- [%R1+0]
	mov	r0, sp
.Ltmp60:
	@DEBUG_VALUE: _M_construct<const char *>:this <- %R0
	mov	r2, #0
	bl	_ZNSt7__cxx1112basic_stringIcSt11char_traitsIcESaIcEE9_M_createERjj
.Ltmp61:
.Ltmp18:
.Ltmp62:
@ BB#4:                                 @ %.noexc11
	@DEBUG_VALUE: _S_copy:__n <- %R6
	@DEBUG_VALUE: length:__s <- %R4
	@DEBUG_VALUE: basic_string:__s <- %R4
	@DEBUG_VALUE: send_filename:filename <- %R4
	@DEBUG_VALUE: _M_data:__p <- %R0
	.loc	51 220 18               @ /usr/bin/../lib/gcc/arm-linux-gnueabihf/6.3.0/../../../../include/c++/6.3.0/bits/basic_string.tcc:220:18
	ldr	r1, [r11, #-28]
.Ltmp63:
	@DEBUG_VALUE: _M_capacity:__capacity <- %R1
	@DEBUG_VALUE: _M_construct<const char *>:__dnew <- %R1
	.loc	7 128 26                @ /usr/bin/../lib/gcc/arm-linux-gnueabihf/6.3.0/../../../../include/c++/6.3.0/bits/basic_string.h:128:26
	str	r0, [sp]
.Ltmp64:
	.loc	7 160 31                @ /usr/bin/../lib/gcc/arm-linux-gnueabihf/6.3.0/../../../../include/c++/6.3.0/bits/basic_string.h:160:31
	str	r1, [sp, #8]
	b	.LBB1_6
.Ltmp65:
.LBB1_5:                                @ %._crit_edge.i.i.i.i7
	@DEBUG_VALUE: _S_copy:__n <- %R6
	@DEBUG_VALUE: _M_construct<const char *>:__dnew <- %R6
	@DEBUG_VALUE: length:__s <- %R4
	@DEBUG_VALUE: basic_string:__s <- %R4
	@DEBUG_VALUE: send_filename:filename <- %R4
	.loc	7 136 28                @ /usr/bin/../lib/gcc/arm-linux-gnueabihf/6.3.0/../../../../include/c++/6.3.0/bits/basic_string.h:136:28
	mov	r0, r7
.Ltmp66:
.LBB1_6:
	@DEBUG_VALUE: _S_copy:__n <- %R6
	@DEBUG_VALUE: length:__s <- %R4
	@DEBUG_VALUE: basic_string:__s <- %R4
	@DEBUG_VALUE: send_filename:filename <- %R4
	.loc	7 297 6                 @ /usr/bin/../lib/gcc/arm-linux-gnueabihf/6.3.0/../../../../include/c++/6.3.0/bits/basic_string.h:297:6
	cmp	r6, #0
	beq	.LBB1_10
.Ltmp67:
@ BB#7:
	@DEBUG_VALUE: _S_copy:__n <- %R6
	@DEBUG_VALUE: length:__s <- %R4
	@DEBUG_VALUE: basic_string:__s <- %R4
	@DEBUG_VALUE: send_filename:filename <- %R4
	cmp	r6, #1
	bne	.LBB1_9
.Ltmp68:
@ BB#8:
	@DEBUG_VALUE: _S_copy:__n <- %R6
	@DEBUG_VALUE: length:__s <- %R4
	@DEBUG_VALUE: basic_string:__s <- %R4
	@DEBUG_VALUE: send_filename:filename <- %R4
	@DEBUG_VALUE: assign:__c2 <- %R4
	.loc	12 243 16               @ /usr/bin/../lib/gcc/arm-linux-gnueabihf/6.3.0/../../../../include/c++/6.3.0/bits/char_traits.h:243:16
	ldrb	r1, [r4]
	.loc	12 243 14 is_stmt 0     @ /usr/bin/../lib/gcc/arm-linux-gnueabihf/6.3.0/../../../../include/c++/6.3.0/bits/char_traits.h:243:14
	strb	r1, [r0]
.Ltmp69:
	@DEBUG_VALUE: _S_copy_chars:__p <- %R0
	b	.LBB1_10
.Ltmp70:
.LBB1_9:
	@DEBUG_VALUE: _S_copy:__n <- %R6
	@DEBUG_VALUE: length:__s <- %R4
	@DEBUG_VALUE: basic_string:__s <- %R4
	@DEBUG_VALUE: send_filename:filename <- %R4
	.loc	12 290 33 is_stmt 1     @ /usr/bin/../lib/gcc/arm-linux-gnueabihf/6.3.0/../../../../include/c++/6.3.0/bits/char_traits.h:290:33
	mov	r1, r4
	mov	r2, r6
	bl	memcpy
.Ltmp71:
.LBB1_10:
	@DEBUG_VALUE: _S_copy:__n <- %R6
	@DEBUG_VALUE: length:__s <- %R4
	@DEBUG_VALUE: basic_string:__s <- %R4
	@DEBUG_VALUE: send_filename:filename <- %R4
	.loc	51 232 16               @ /usr/bin/../lib/gcc/arm-linux-gnueabihf/6.3.0/../../../../include/c++/6.3.0/bits/basic_string.tcc:232:16
	ldr	r0, [r11, #-28]
.Ltmp72:
	@DEBUG_VALUE: _M_set_length:__n <- %R0
	@DEBUG_VALUE: _M_length:__length <- %R0
	@DEBUG_VALUE: _M_construct<const char *>:__dnew <- %R0
	.loc	12 243 14               @ /usr/bin/../lib/gcc/arm-linux-gnueabihf/6.3.0/../../../../include/c++/6.3.0/bits/char_traits.h:243:14
	mov	r2, #0
.Ltmp73:
	.loc	7 132 26                @ /usr/bin/../lib/gcc/arm-linux-gnueabihf/6.3.0/../../../../include/c++/6.3.0/bits/basic_string.h:132:26
	str	r0, [sp, #4]
.Ltmp74:
	.loc	7 136 28                @ /usr/bin/../lib/gcc/arm-linux-gnueabihf/6.3.0/../../../../include/c++/6.3.0/bits/basic_string.h:136:28
	ldr	r1, [sp]
.Ltmp75:
	.loc	12 243 14               @ /usr/bin/../lib/gcc/arm-linux-gnueabihf/6.3.0/../../../../include/c++/6.3.0/bits/char_traits.h:243:14
	strb	r2, [r1, r0]
.Ltmp76:
	.loc	41 14 45 discriminator 3 @ /root/Bela/projects/SOFAlizer-for-Bela/osc.cpp:14:45
.Ltmp19:
	mov	r1, sp
.Ltmp77:
	@DEBUG_VALUE: _M_data:this <- %R1
	@DEBUG_VALUE: _M_length:this <- %R1
	mov	r0, r5
.Ltmp78:
	bl	_ZN9OscSender3addENSt7__cxx1112basic_stringIcSt11char_traitsIcESaIcEEE
.Ltmp79:
.Ltmp20:
.Ltmp80:
@ BB#11:
	@DEBUG_VALUE: _S_copy:__n <- %R6
	@DEBUG_VALUE: length:__s <- %R4
	@DEBUG_VALUE: basic_string:__s <- %R4
	@DEBUG_VALUE: send_filename:filename <- %R4
	.loc	41 14 72 is_stmt 0 discriminator 4 @ /root/Bela/projects/SOFAlizer-for-Bela/osc.cpp:14:72
.Ltmp21:
	bl	_ZN9OscSender4sendEv
.Ltmp22:
.Ltmp81:
@ BB#12:
	@DEBUG_VALUE: _S_copy:__n <- %R6
	@DEBUG_VALUE: length:__s <- %R4
	@DEBUG_VALUE: basic_string:__s <- %R4
	@DEBUG_VALUE: send_filename:filename <- %R4
	.loc	7 136 28 is_stmt 1      @ /usr/bin/../lib/gcc/arm-linux-gnueabihf/6.3.0/../../../../include/c++/6.3.0/bits/basic_string.h:136:28
	ldr	r0, [sp]
.Ltmp82:
	@DEBUG_VALUE: deallocate:__p <- %R0
	@DEBUG_VALUE: deallocate:__p <- %R0
	.loc	7 180 6                 @ /usr/bin/../lib/gcc/arm-linux-gnueabihf/6.3.0/../../../../include/c++/6.3.0/bits/basic_string.h:180:6
	cmp	r0, r7
	beq	.LBB1_14
.Ltmp83:
@ BB#13:
	@DEBUG_VALUE: deallocate:__p <- %R0
	@DEBUG_VALUE: deallocate:__p <- %R0
	@DEBUG_VALUE: _S_copy:__n <- %R6
	@DEBUG_VALUE: length:__s <- %R4
	@DEBUG_VALUE: basic_string:__s <- %R4
	@DEBUG_VALUE: send_filename:filename <- %R4
	.loc	47 110 9                @ /usr/bin/../lib/gcc/arm-linux-gnueabihf/6.3.0/../../../../include/c++/6.3.0/ext/new_allocator.h:110:9
	bl	_ZdlPv
.Ltmp84:
.LBB1_14:                               @ %_ZNSt7__cxx1112basic_stringIcSt11char_traitsIcESaIcEED2Ev.exit13
	@DEBUG_VALUE: _S_copy:__n <- %R6
	@DEBUG_VALUE: length:__s <- %R4
	@DEBUG_VALUE: basic_string:__s <- %R4
	@DEBUG_VALUE: send_filename:filename <- %R4
	.loc	7 136 28                @ /usr/bin/../lib/gcc/arm-linux-gnueabihf/6.3.0/../../../../include/c++/6.3.0/bits/basic_string.h:136:28
	ldr	r0, [sp, #24]
.Ltmp85:
	@DEBUG_VALUE: deallocate:__p <- %R0
	@DEBUG_VALUE: deallocate:__p <- %R0
	.loc	7 180 6                 @ /usr/bin/../lib/gcc/arm-linux-gnueabihf/6.3.0/../../../../include/c++/6.3.0/bits/basic_string.h:180:6
	cmp	r0, r8
	beq	.LBB1_16
.Ltmp86:
@ BB#15:
	@DEBUG_VALUE: deallocate:__p <- %R0
	@DEBUG_VALUE: deallocate:__p <- %R0
	@DEBUG_VALUE: _S_copy:__n <- %R6
	@DEBUG_VALUE: length:__s <- %R4
	@DEBUG_VALUE: basic_string:__s <- %R4
	@DEBUG_VALUE: send_filename:filename <- %R4
	.loc	47 110 9                @ /usr/bin/../lib/gcc/arm-linux-gnueabihf/6.3.0/../../../../include/c++/6.3.0/ext/new_allocator.h:110:9
	bl	_ZdlPv
.Ltmp87:
.LBB1_16:                               @ %_ZNSt7__cxx1112basic_stringIcSt11char_traitsIcESaIcEED2Ev.exit14
	@DEBUG_VALUE: _S_copy:__n <- %R6
	@DEBUG_VALUE: length:__s <- %R4
	@DEBUG_VALUE: basic_string:__s <- %R4
	@DEBUG_VALUE: send_filename:filename <- %R4
	.loc	41 15 1                 @ /root/Bela/projects/SOFAlizer-for-Bela/osc.cpp:15:1
	sub	sp, r11, #24
	pop	{r4, r5, r6, r7, r8, r10, r11, pc}
.Ltmp88:
.LBB1_17:                               @ %.noexc.i
	@DEBUG_VALUE: basic_string:__s <- %R4
	@DEBUG_VALUE: _M_local_data:this <- %R0
	@DEBUG_VALUE: _S_copy:__s <- %R2
	@DEBUG_VALUE: send_filename:filename <- %R4
	.loc	51 212 4                @ /usr/bin/../lib/gcc/arm-linux-gnueabihf/6.3.0/../../../../include/c++/6.3.0/bits/basic_string.tcc:212:4
.Ltmp24:
	movw	r0, :lower16:.L.str.17
.Ltmp89:
	movt	r0, :upper16:.L.str.17
	mov	lr, pc
	b	_ZSt19__throw_logic_errorPKc
.Ltmp90:
.Ltmp25:
.Ltmp91:
@ BB#18:                                @ %.noexc10
	@DEBUG_VALUE: basic_string:__s <- %R4
	@DEBUG_VALUE: send_filename:filename <- %R4
.LBB1_19:
	@DEBUG_VALUE: basic_string:__s <- %R4
	@DEBUG_VALUE: send_filename:filename <- %R4
.Ltmp26:
	mov	r4, r0
.Ltmp92:
	b	.LBB1_23
.LBB1_20:
.Ltmp93:
	@DEBUG_VALUE: _S_copy:__s <- %R2
	@DEBUG_VALUE: send_filename:filename <- %R4
.Ltmp16:
	mov	r4, r0
.Ltmp94:
	b	.LBB1_23
.Ltmp95:
.LBB1_21:
	@DEBUG_VALUE: _S_copy:__n <- %R6
	@DEBUG_VALUE: length:__s <- %R4
	@DEBUG_VALUE: basic_string:__s <- %R4
	@DEBUG_VALUE: send_filename:filename <- %R4
.Ltmp23:
	mov	r4, r0
.Ltmp96:
	.loc	7 136 28                @ /usr/bin/../lib/gcc/arm-linux-gnueabihf/6.3.0/../../../../include/c++/6.3.0/bits/basic_string.h:136:28
	ldr	r0, [sp]
.Ltmp97:
	@DEBUG_VALUE: deallocate:__p <- %R0
	@DEBUG_VALUE: deallocate:__p <- %R0
	.loc	7 180 6                 @ /usr/bin/../lib/gcc/arm-linux-gnueabihf/6.3.0/../../../../include/c++/6.3.0/bits/basic_string.h:180:6
	cmp	r0, r7
	beq	.LBB1_23
.Ltmp98:
@ BB#22:
	@DEBUG_VALUE: deallocate:__p <- %R0
	@DEBUG_VALUE: deallocate:__p <- %R0
	@DEBUG_VALUE: _S_copy:__n <- %R6
	.loc	47 110 9                @ /usr/bin/../lib/gcc/arm-linux-gnueabihf/6.3.0/../../../../include/c++/6.3.0/ext/new_allocator.h:110:9
	bl	_ZdlPv
.Ltmp99:
.LBB1_23:                               @ %_ZNSt7__cxx1112basic_stringIcSt11char_traitsIcESaIcEED2Ev.exit15
	.loc	7 136 28                @ /usr/bin/../lib/gcc/arm-linux-gnueabihf/6.3.0/../../../../include/c++/6.3.0/bits/basic_string.h:136:28
	ldr	r0, [sp, #24]
.Ltmp100:
	@DEBUG_VALUE: deallocate:__p <- %R0
	@DEBUG_VALUE: deallocate:__p <- %R0
	.loc	7 180 6                 @ /usr/bin/../lib/gcc/arm-linux-gnueabihf/6.3.0/../../../../include/c++/6.3.0/bits/basic_string.h:180:6
	cmp	r0, r8
	beq	.LBB1_25
.Ltmp101:
@ BB#24:
	@DEBUG_VALUE: deallocate:__p <- %R0
	@DEBUG_VALUE: deallocate:__p <- %R0
	.loc	47 110 9                @ /usr/bin/../lib/gcc/arm-linux-gnueabihf/6.3.0/../../../../include/c++/6.3.0/ext/new_allocator.h:110:9
	bl	_ZdlPv
.Ltmp102:
.LBB1_25:                               @ %_ZNSt7__cxx1112basic_stringIcSt11char_traitsIcESaIcEED2Ev.exit
	mov	r0, r4
	mov	lr, pc
	b	_Unwind_Resume
.Lfunc_end1:
	.size	_ZN12OSCinterface13send_filenameEPc, .Lfunc_end1-_ZN12OSCinterface13send_filenameEPc
	.cfi_endproc
	.file	52 "/usr/bin/../lib/gcc/arm-linux-gnueabihf/6.3.0/../../../../include/c++/6.3.0/bits" "cpp_type_traits.h"
	.globl	__gxx_personality_v0
	.personality __gxx_personality_v0
	.handlerdata
	.p2align	2
GCC_except_table1:
.Lexception1:
	.byte	255                     @ @LPStart Encoding = omit
	.byte	0                       @ @TType Encoding = absptr
	.asciz	"\320"                  @ @TType base offset
	.byte	3                       @ Call site Encoding = udata4
	.byte	78                      @ Call site table length
	.long	.Ltmp14-.Lfunc_begin1   @ >> Call Site 1 <<
	.long	.Ltmp15-.Ltmp14         @   Call between .Ltmp14 and .Ltmp15
	.long	.Ltmp16-.Lfunc_begin1   @     jumps to .Ltmp16
	.byte	0                       @   On action: cleanup
	.long	.Ltmp17-.Lfunc_begin1   @ >> Call Site 2 <<
	.long	.Ltmp18-.Ltmp17         @   Call between .Ltmp17 and .Ltmp18
	.long	.Ltmp26-.Lfunc_begin1   @     jumps to .Ltmp26
	.byte	0                       @   On action: cleanup
	.long	.Ltmp18-.Lfunc_begin1   @ >> Call Site 3 <<
	.long	.Ltmp19-.Ltmp18         @   Call between .Ltmp18 and .Ltmp19
	.long	0                       @     has no landing pad
	.byte	0                       @   On action: cleanup
	.long	.Ltmp19-.Lfunc_begin1   @ >> Call Site 4 <<
	.long	.Ltmp22-.Ltmp19         @   Call between .Ltmp19 and .Ltmp22
	.long	.Ltmp23-.Lfunc_begin1   @     jumps to .Ltmp23
	.byte	0                       @   On action: cleanup
	.long	.Ltmp24-.Lfunc_begin1   @ >> Call Site 5 <<
	.long	.Ltmp25-.Ltmp24         @   Call between .Ltmp24 and .Ltmp25
	.long	.Ltmp26-.Lfunc_begin1   @     jumps to .Ltmp26
	.byte	0                       @   On action: cleanup
	.long	.Ltmp25-.Lfunc_begin1   @ >> Call Site 6 <<
	.long	.Lfunc_end1-.Ltmp25     @   Call between .Ltmp25 and .Lfunc_end1
	.long	0                       @     has no landing pad
	.byte	0                       @   On action: cleanup
	.p2align	2
	.fnend

	.globl	_ZN12OSCinterface13send_hrtf_numEj
	.p2align	2
	.type	_ZN12OSCinterface13send_hrtf_numEj,%function
_ZN12OSCinterface13send_hrtf_numEj:     @ @_ZN12OSCinterface13send_hrtf_numEj
.Lfunc_begin2:
	.loc	41 17 0                 @ /root/Bela/projects/SOFAlizer-for-Bela/osc.cpp:17:0
	.fnstart
	.cfi_startproc
@ BB#0:                                 @ %._crit_edge.i.i.i.i
	.save	{r4, r5, r6, r7, r11, lr}
	push	{r4, r5, r6, r7, r11, lr}
.Ltmp113:
	.cfi_def_cfa_offset 24
.Ltmp114:
	.cfi_offset lr, -4
.Ltmp115:
	.cfi_offset r11, -8
.Ltmp116:
	.cfi_offset r7, -12
.Ltmp117:
	.cfi_offset r6, -16
.Ltmp118:
	.cfi_offset r5, -20
.Ltmp119:
	.cfi_offset r4, -24
	.setfp	r11, sp, #16
	add	r11, sp, #16
.Ltmp120:
	.cfi_def_cfa r11, 8
	.pad	#56
	sub	sp, sp, #56
	@DEBUG_VALUE: send_hrtf_num:this <- %R0
	@DEBUG_VALUE: send_hrtf_num:hrtf_num <- %R1
.Ltmp121:
	.loc	12 290 33 prologue_end  @ /usr/bin/../lib/gcc/arm-linux-gnueabihf/6.3.0/../../../../include/c++/6.3.0/bits/char_traits.h:290:33
	movw	r2, :lower16:.L.str.2
	mov	r4, r1
.Ltmp122:
	@DEBUG_VALUE: send_hrtf_num:hrtf_num <- %R4
	movt	r2, :upper16:.L.str.2
	add	r1, sp, #32
.Ltmp123:
	@DEBUG_VALUE: _M_data:this <- %R1
	@DEBUG_VALUE: _M_length:this <- %R1
	@DEBUG_VALUE: _M_set_length:__n <- 10
	@DEBUG_VALUE: _M_set_length:this <- %R1
	@DEBUG_VALUE: _M_data:this <- %R1
	@DEBUG_VALUE: _M_construct<const char *>:__dnew <- 10
	@DEBUG_VALUE: _M_construct<const char *>:this <- %R1
	@DEBUG_VALUE: _M_construct_aux<const char *>:this <- %R1
	@DEBUG_VALUE: _M_construct<const char *>:this <- %R1
	@DEBUG_VALUE: _S_copy_chars:__p <- %R7
	@DEBUG_VALUE: _S_copy:__d <- %R7
	@DEBUG_VALUE: _M_local_data:this <- %R1
	vldr	d16, [r2]
	movw	r2, #12141
.Ltmp124:
	.loc	7 142 51                @ /usr/bin/../lib/gcc/arm-linux-gnueabihf/6.3.0/../../../../include/c++/6.3.0/bits/basic_string.h:142:51
	add	r7, r1, #8
.Ltmp125:
	.loc	7 110 25                @ /usr/bin/../lib/gcc/arm-linux-gnueabihf/6.3.0/../../../../include/c++/6.3.0/bits/basic_string.h:110:25
	str	r7, [sp, #32]
.Ltmp126:
	@DEBUG_VALUE: _S_copy:__n <- 10
	.loc	12 290 33               @ /usr/bin/../lib/gcc/arm-linux-gnueabihf/6.3.0/../../../../include/c++/6.3.0/bits/char_traits.h:290:33
	strh	r2, [sp, #48]
	mov	r2, #10
.Ltmp127:
	@DEBUG_VALUE: _M_length:__length <- 10
	vstr	d16, [sp, #40]
.Ltmp128:
	.loc	7 132 26                @ /usr/bin/../lib/gcc/arm-linux-gnueabihf/6.3.0/../../../../include/c++/6.3.0/bits/basic_string.h:132:26
	str	r2, [sp, #36]
.Ltmp129:
	.loc	12 243 14               @ /usr/bin/../lib/gcc/arm-linux-gnueabihf/6.3.0/../../../../include/c++/6.3.0/bits/char_traits.h:243:14
	mov	r2, #0
	strb	r2, [sp, #50]
.Ltmp130:
	.loc	41 18 15 discriminator 1 @ /root/Bela/projects/SOFAlizer-for-Bela/osc.cpp:18:15
.Ltmp103:
	.loc	41 18 5 is_stmt 0       @ /root/Bela/projects/SOFAlizer-for-Bela/osc.cpp:18:5
	add	r0, r0, #48
.Ltmp131:
	.loc	41 18 15 discriminator 1 @ /root/Bela/projects/SOFAlizer-for-Bela/osc.cpp:18:15
	bl	_ZN9OscSender10newMessageENSt7__cxx1112basic_stringIcSt11char_traitsIcESaIcEEE
.Ltmp132:
	mov	r5, r0
.Ltmp104:
.Ltmp133:
	@DEBUG_VALUE: _S_copy:__s <- %R2
@ BB#1:
	@DEBUG_VALUE: _S_copy:__s <- %R2
	@DEBUG_VALUE: send_hrtf_num:hrtf_num <- %R4
	.loc	7 5476 12 is_stmt 1     @ /usr/bin/../lib/gcc/arm-linux-gnueabihf/6.3.0/../../../../include/c++/6.3.0/bits/basic_string.h:5476:12
.Ltmp105:
.Ltmp134:
	@DEBUG_VALUE: to_string:__val <- %R4
	movw	r1, :lower16:vsnprintf
	movw	r3, :lower16:.L.str.16
	add	r0, sp, #8
	movt	r1, :upper16:vsnprintf
	movt	r3, :upper16:.L.str.16
	mov	r2, #16
.Ltmp135:
	str	r4, [sp]
	bl	_ZN9__gnu_cxx12__to_xstringINSt7__cxx1112basic_stringIcSt11char_traitsIcESaIcEEEcEET_PFiPT0_jPKS8_St9__va_listEjSB_z
.Ltmp106:
.Ltmp136:
@ BB#2:                                 @ %_ZNSt7__cxx119to_stringEj.exit
	@DEBUG_VALUE: to_string:__val <- %R4
	@DEBUG_VALUE: send_hrtf_num:hrtf_num <- %R4
	.loc	41 18 40 discriminator 3 @ /root/Bela/projects/SOFAlizer-for-Bela/osc.cpp:18:40
.Ltmp108:
	add	r6, sp, #8
	mov	r0, r5
	mov	r1, r6
	bl	_ZN9OscSender3addENSt7__cxx1112basic_stringIcSt11char_traitsIcESaIcEEE
.Ltmp109:
.Ltmp137:
@ BB#3:
	@DEBUG_VALUE: to_string:__val <- %R4
	@DEBUG_VALUE: send_hrtf_num:hrtf_num <- %R4
	.loc	41 18 70 is_stmt 0 discriminator 4 @ /root/Bela/projects/SOFAlizer-for-Bela/osc.cpp:18:70
.Ltmp110:
	bl	_ZN9OscSender4sendEv
.Ltmp111:
.Ltmp138:
@ BB#4:
	@DEBUG_VALUE: to_string:__val <- %R4
	@DEBUG_VALUE: send_hrtf_num:hrtf_num <- %R4
	.loc	7 136 28 is_stmt 1      @ /usr/bin/../lib/gcc/arm-linux-gnueabihf/6.3.0/../../../../include/c++/6.3.0/bits/basic_string.h:136:28
	ldr	r0, [sp, #8]
.Ltmp139:
	@DEBUG_VALUE: _M_local_data:this <- %R6
	@DEBUG_VALUE: _M_data:this <- %R6
	@DEBUG_VALUE: deallocate:__p <- %R0
	@DEBUG_VALUE: deallocate:__p <- %R0
	.loc	7 152 57                @ /usr/bin/../lib/gcc/arm-linux-gnueabihf/6.3.0/../../../../include/c++/6.3.0/bits/basic_string.h:152:57
	add	r1, r6, #8
.Ltmp140:
	.loc	7 180 6                 @ /usr/bin/../lib/gcc/arm-linux-gnueabihf/6.3.0/../../../../include/c++/6.3.0/bits/basic_string.h:180:6
	cmp	r0, r1
	beq	.LBB2_6
.Ltmp141:
@ BB#5:
	@DEBUG_VALUE: deallocate:__p <- %R0
	@DEBUG_VALUE: deallocate:__p <- %R0
	@DEBUG_VALUE: _M_data:this <- %R6
	@DEBUG_VALUE: _M_local_data:this <- %R6
	@DEBUG_VALUE: to_string:__val <- %R4
	@DEBUG_VALUE: send_hrtf_num:hrtf_num <- %R4
	.loc	47 110 9                @ /usr/bin/../lib/gcc/arm-linux-gnueabihf/6.3.0/../../../../include/c++/6.3.0/ext/new_allocator.h:110:9
	bl	_ZdlPv
.Ltmp142:
.LBB2_6:                                @ %_ZNSt7__cxx1112basic_stringIcSt11char_traitsIcESaIcEED2Ev.exit6
	@DEBUG_VALUE: _M_data:this <- %R6
	@DEBUG_VALUE: _M_local_data:this <- %R6
	@DEBUG_VALUE: to_string:__val <- %R4
	@DEBUG_VALUE: send_hrtf_num:hrtf_num <- %R4
	.loc	7 136 28                @ /usr/bin/../lib/gcc/arm-linux-gnueabihf/6.3.0/../../../../include/c++/6.3.0/bits/basic_string.h:136:28
	ldr	r0, [sp, #32]
.Ltmp143:
	@DEBUG_VALUE: deallocate:__p <- %R0
	@DEBUG_VALUE: deallocate:__p <- %R0
	.loc	7 180 6                 @ /usr/bin/../lib/gcc/arm-linux-gnueabihf/6.3.0/../../../../include/c++/6.3.0/bits/basic_string.h:180:6
	cmp	r0, r7
	beq	.LBB2_8
.Ltmp144:
@ BB#7:
	@DEBUG_VALUE: deallocate:__p <- %R0
	@DEBUG_VALUE: deallocate:__p <- %R0
	@DEBUG_VALUE: _M_data:this <- %R6
	@DEBUG_VALUE: _M_local_data:this <- %R6
	@DEBUG_VALUE: to_string:__val <- %R4
	@DEBUG_VALUE: send_hrtf_num:hrtf_num <- %R4
	.loc	47 110 9                @ /usr/bin/../lib/gcc/arm-linux-gnueabihf/6.3.0/../../../../include/c++/6.3.0/ext/new_allocator.h:110:9
	bl	_ZdlPv
.Ltmp145:
.LBB2_8:                                @ %_ZNSt7__cxx1112basic_stringIcSt11char_traitsIcESaIcEED2Ev.exit7
	@DEBUG_VALUE: _M_data:this <- %R6
	@DEBUG_VALUE: _M_local_data:this <- %R6
	@DEBUG_VALUE: to_string:__val <- %R4
	@DEBUG_VALUE: send_hrtf_num:hrtf_num <- %R4
	.loc	41 19 1                 @ /root/Bela/projects/SOFAlizer-for-Bela/osc.cpp:19:1
	sub	sp, r11, #16
	pop	{r4, r5, r6, r7, r11, pc}
.Ltmp146:
.LBB2_9:
	@DEBUG_VALUE: to_string:__val <- %R4
	@DEBUG_VALUE: send_hrtf_num:hrtf_num <- %R4
.Ltmp112:
	mov	r4, r0
.Ltmp147:
	.loc	7 136 28                @ /usr/bin/../lib/gcc/arm-linux-gnueabihf/6.3.0/../../../../include/c++/6.3.0/bits/basic_string.h:136:28
	ldr	r0, [sp, #8]
.Ltmp148:
	@DEBUG_VALUE: _M_local_data:this <- %R6
	@DEBUG_VALUE: _M_data:this <- %R6
	@DEBUG_VALUE: deallocate:__p <- %R0
	@DEBUG_VALUE: deallocate:__p <- %R0
	.loc	7 152 57                @ /usr/bin/../lib/gcc/arm-linux-gnueabihf/6.3.0/../../../../include/c++/6.3.0/bits/basic_string.h:152:57
	add	r1, r6, #8
.Ltmp149:
	.loc	7 180 6                 @ /usr/bin/../lib/gcc/arm-linux-gnueabihf/6.3.0/../../../../include/c++/6.3.0/bits/basic_string.h:180:6
	cmp	r0, r1
	beq	.LBB2_12
.Ltmp150:
@ BB#10:
	@DEBUG_VALUE: deallocate:__p <- %R0
	@DEBUG_VALUE: deallocate:__p <- %R0
	@DEBUG_VALUE: _M_data:this <- %R6
	@DEBUG_VALUE: _M_local_data:this <- %R6
	.loc	47 110 9                @ /usr/bin/../lib/gcc/arm-linux-gnueabihf/6.3.0/../../../../include/c++/6.3.0/ext/new_allocator.h:110:9
	bl	_ZdlPv
.Ltmp151:
	b	.LBB2_12
.Ltmp152:
.LBB2_11:
	@DEBUG_VALUE: send_hrtf_num:hrtf_num <- %R4
.Ltmp107:
	mov	r4, r0
.Ltmp153:
.LBB2_12:                               @ %_ZNSt7__cxx1112basic_stringIcSt11char_traitsIcESaIcEED2Ev.exit8
	.loc	7 136 28                @ /usr/bin/../lib/gcc/arm-linux-gnueabihf/6.3.0/../../../../include/c++/6.3.0/bits/basic_string.h:136:28
	ldr	r0, [sp, #32]
.Ltmp154:
	@DEBUG_VALUE: deallocate:__p <- %R0
	@DEBUG_VALUE: deallocate:__p <- %R0
	.loc	7 180 6                 @ /usr/bin/../lib/gcc/arm-linux-gnueabihf/6.3.0/../../../../include/c++/6.3.0/bits/basic_string.h:180:6
	cmp	r0, r7
	beq	.LBB2_14
.Ltmp155:
@ BB#13:
	@DEBUG_VALUE: deallocate:__p <- %R0
	@DEBUG_VALUE: deallocate:__p <- %R0
	.loc	47 110 9                @ /usr/bin/../lib/gcc/arm-linux-gnueabihf/6.3.0/../../../../include/c++/6.3.0/ext/new_allocator.h:110:9
	bl	_ZdlPv
.Ltmp156:
.LBB2_14:                               @ %_ZNSt7__cxx1112basic_stringIcSt11char_traitsIcESaIcEED2Ev.exit
	mov	r0, r4
	mov	lr, pc
	b	_Unwind_Resume
.Lfunc_end2:
	.size	_ZN12OSCinterface13send_hrtf_numEj, .Lfunc_end2-_ZN12OSCinterface13send_hrtf_numEj
	.cfi_endproc
	.globl	__gxx_personality_v0
	.personality __gxx_personality_v0
	.handlerdata
	.p2align	2
GCC_except_table2:
.Lexception2:
	.byte	255                     @ @LPStart Encoding = omit
	.byte	0                       @ @TType Encoding = absptr
	.byte	41                      @ @TType base offset
	.byte	3                       @ Call site Encoding = udata4
	.byte	39                      @ Call site table length
	.long	.Ltmp103-.Lfunc_begin2  @ >> Call Site 1 <<
	.long	.Ltmp106-.Ltmp103       @   Call between .Ltmp103 and .Ltmp106
	.long	.Ltmp107-.Lfunc_begin2  @     jumps to .Ltmp107
	.byte	0                       @   On action: cleanup
	.long	.Ltmp108-.Lfunc_begin2  @ >> Call Site 2 <<
	.long	.Ltmp111-.Ltmp108       @   Call between .Ltmp108 and .Ltmp111
	.long	.Ltmp112-.Lfunc_begin2  @     jumps to .Ltmp112
	.byte	0                       @   On action: cleanup
	.long	.Ltmp111-.Lfunc_begin2  @ >> Call Site 3 <<
	.long	.Lfunc_end2-.Ltmp111    @   Call between .Ltmp111 and .Lfunc_end2
	.long	0                       @     has no landing pad
	.byte	0                       @   On action: cleanup
	.p2align	2
	.fnend

	.globl	_ZN12OSCinterface11send_statusENSt7__cxx1112basic_stringIcSt11char_traitsIcESaIcEEE
	.p2align	2
	.type	_ZN12OSCinterface11send_statusENSt7__cxx1112basic_stringIcSt11char_traitsIcESaIcEEE,%function
_ZN12OSCinterface11send_statusENSt7__cxx1112basic_stringIcSt11char_traitsIcESaIcEEE: @ @_ZN12OSCinterface11send_statusENSt7__cxx1112basic_stringIcSt11char_traitsIcESaIcEEE
.Lfunc_begin3:
	.loc	41 21 0                 @ /root/Bela/projects/SOFAlizer-for-Bela/osc.cpp:21:0
	.fnstart
	.cfi_startproc
@ BB#0:                                 @ %._crit_edge.i.i.i.i
	.save	{r4, r5, r6, r7, r8, r10, r11, lr}
	push	{r4, r5, r6, r7, r8, r10, r11, lr}
.Ltmp169:
	.cfi_def_cfa_offset 32
.Ltmp170:
	.cfi_offset lr, -4
.Ltmp171:
	.cfi_offset r11, -8
.Ltmp172:
	.cfi_offset r10, -12
.Ltmp173:
	.cfi_offset r8, -16
.Ltmp174:
	.cfi_offset r7, -20
.Ltmp175:
	.cfi_offset r6, -24
.Ltmp176:
	.cfi_offset r5, -28
.Ltmp177:
	.cfi_offset r4, -32
	.setfp	r11, sp, #24
	add	r11, sp, #24
.Ltmp178:
	.cfi_def_cfa r11, 8
	.pad	#56
	sub	sp, sp, #56
	@DEBUG_VALUE: send_status:this <- %R0
	@DEBUG_VALUE: send_status:status <- [%R1+0]
.Ltmp179:
	.loc	12 290 33 prologue_end  @ /usr/bin/../lib/gcc/arm-linux-gnueabihf/6.3.0/../../../../include/c++/6.3.0/bits/char_traits.h:290:33
	movw	r2, :lower16:.L.str.3
	mov	r6, r1
.Ltmp180:
	@DEBUG_VALUE: send_status:status <- [%R6+0]
	movt	r2, :upper16:.L.str.3
	add	r3, r2, #7
	add	r1, sp, #24
.Ltmp181:
	@DEBUG_VALUE: _M_data:this <- %R1
	@DEBUG_VALUE: _M_length:this <- %R1
	@DEBUG_VALUE: _M_set_length:__n <- 15
	@DEBUG_VALUE: _M_set_length:this <- %R1
	@DEBUG_VALUE: _M_data:this <- %R1
	@DEBUG_VALUE: _M_construct<const char *>:__dnew <- 15
	@DEBUG_VALUE: _M_construct<const char *>:this <- %R1
	@DEBUG_VALUE: _M_construct_aux<const char *>:this <- %R1
	@DEBUG_VALUE: _M_construct<const char *>:this <- %R1
	@DEBUG_VALUE: _S_copy_chars:__p <- %R8
	@DEBUG_VALUE: _S_copy:__d <- %R8
	@DEBUG_VALUE: _M_local_data:this <- %R1
	vldr	d16, [r2]
	vld1.8	{d17}, [r3]
	add	r2, r1, #15
.Ltmp182:
	.loc	7 142 51                @ /usr/bin/../lib/gcc/arm-linux-gnueabihf/6.3.0/../../../../include/c++/6.3.0/bits/basic_string.h:142:51
	add	r8, r1, #8
.Ltmp183:
	.loc	7 110 25                @ /usr/bin/../lib/gcc/arm-linux-gnueabihf/6.3.0/../../../../include/c++/6.3.0/bits/basic_string.h:110:25
	str	r8, [sp, #24]
.Ltmp184:
	@DEBUG_VALUE: _S_copy:__n <- 15
	.loc	12 290 33               @ /usr/bin/../lib/gcc/arm-linux-gnueabihf/6.3.0/../../../../include/c++/6.3.0/bits/char_traits.h:290:33
	vst1.8	{d17}, [r2]
	mov	r2, #15
.Ltmp185:
	@DEBUG_VALUE: _M_length:__length <- 15
	vstr	d16, [sp, #32]
.Ltmp186:
	.loc	7 132 26                @ /usr/bin/../lib/gcc/arm-linux-gnueabihf/6.3.0/../../../../include/c++/6.3.0/bits/basic_string.h:132:26
	str	r2, [sp, #28]
.Ltmp187:
	.loc	12 243 14               @ /usr/bin/../lib/gcc/arm-linux-gnueabihf/6.3.0/../../../../include/c++/6.3.0/bits/char_traits.h:243:14
	mov	r2, #0
	strb	r2, [sp, #47]
.Ltmp188:
	.loc	41 22 15 discriminator 1 @ /root/Bela/projects/SOFAlizer-for-Bela/osc.cpp:22:15
.Ltmp157:
	.loc	41 22 5 is_stmt 0       @ /root/Bela/projects/SOFAlizer-for-Bela/osc.cpp:22:5
	add	r0, r0, #48
.Ltmp189:
	.loc	41 22 15 discriminator 1 @ /root/Bela/projects/SOFAlizer-for-Bela/osc.cpp:22:15
	bl	_ZN9OscSender10newMessageENSt7__cxx1112basic_stringIcSt11char_traitsIcESaIcEEE
.Ltmp190:
	mov	r4, r0
.Ltmp158:
.Ltmp191:
	@DEBUG_VALUE: _S_copy:__s <- %R2
@ BB#1:
	@DEBUG_VALUE: _S_copy:__s <- %R2
	@DEBUG_VALUE: send_status:status <- [%R6+0]
	mov	r0, sp
.Ltmp192:
	@DEBUG_VALUE: _M_construct<char *>:this <- %R0
	@DEBUG_VALUE: _M_construct_aux<char *>:this <- %R0
	@DEBUG_VALUE: _M_construct<char *>:this <- %R0
	@DEBUG_VALUE: _M_local_data:this <- %R0
	.loc	7 142 51 is_stmt 1      @ /usr/bin/../lib/gcc/arm-linux-gnueabihf/6.3.0/../../../../include/c++/6.3.0/bits/basic_string.h:142:51
	add	r7, r0, #8
.Ltmp193:
	@DEBUG_VALUE: _M_data:this <- %R6
	.loc	7 110 25                @ /usr/bin/../lib/gcc/arm-linux-gnueabihf/6.3.0/../../../../include/c++/6.3.0/bits/basic_string.h:110:25
	str	r7, [sp]
.Ltmp194:
	@DEBUG_VALUE: _M_construct<char *>:__dnew <- %R6
	@DEBUG_VALUE: _S_copy:__n <- %R6
	@DEBUG_VALUE: length:this <- %R6
	@DEBUG_VALUE: _M_construct<char *>:__beg <- %R5
	@DEBUG_VALUE: _M_construct_aux<char *>:__beg <- %R5
	@DEBUG_VALUE: _M_construct<char *>:__beg <- %R5
	@DEBUG_VALUE: _S_copy_chars:__k1 <- %R5
	@DEBUG_VALUE: _S_copy:__s <- %R5
	@DEBUG_VALUE: assign:__c2 <- %R5
	.loc	7 136 28                @ /usr/bin/../lib/gcc/arm-linux-gnueabihf/6.3.0/../../../../include/c++/6.3.0/bits/basic_string.h:136:28
	ldm	r6, {r5, r6}
.Ltmp195:
	.loc	51 211 42               @ /usr/bin/../lib/gcc/arm-linux-gnueabihf/6.3.0/../../../../include/c++/6.3.0/bits/basic_string.tcc:211:42
	cmp	r5, #0
	bne	.LBB3_3
.Ltmp196:
@ BB#2:
	@DEBUG_VALUE: _M_local_data:this <- %R0
	@DEBUG_VALUE: _M_construct<char *>:this <- %R0
	@DEBUG_VALUE: _M_construct_aux<char *>:this <- %R0
	@DEBUG_VALUE: _M_construct<char *>:this <- %R0
	@DEBUG_VALUE: _S_copy:__s <- %R2
	cmp	r6, #0
	bne	.LBB3_18
.Ltmp197:
.LBB3_3:
	@DEBUG_VALUE: _M_local_data:this <- %R0
	@DEBUG_VALUE: _M_construct<char *>:this <- %R0
	@DEBUG_VALUE: _M_construct_aux<char *>:this <- %R0
	@DEBUG_VALUE: _M_construct<char *>:this <- %R0
	@DEBUG_VALUE: _S_copy:__s <- %R2
	.loc	51 215 12               @ /usr/bin/../lib/gcc/arm-linux-gnueabihf/6.3.0/../../../../include/c++/6.3.0/bits/basic_string.tcc:215:12
	str	r6, [r11, #-28]
	.loc	51 217 6                @ /usr/bin/../lib/gcc/arm-linux-gnueabihf/6.3.0/../../../../include/c++/6.3.0/bits/basic_string.tcc:217:6
	cmp	r6, #15
	bls	.LBB3_6
.Ltmp198:
@ BB#4:                                 @ %.noexc6.i
	@DEBUG_VALUE: _M_local_data:this <- %R0
	@DEBUG_VALUE: _M_construct<char *>:this <- %R0
	@DEBUG_VALUE: _M_construct_aux<char *>:this <- %R0
	@DEBUG_VALUE: _M_construct<char *>:this <- %R0
	@DEBUG_VALUE: _S_copy:__s <- %R2
	.loc	51 219 14               @ /usr/bin/../lib/gcc/arm-linux-gnueabihf/6.3.0/../../../../include/c++/6.3.0/bits/basic_string.tcc:219:14
.Ltmp161:
	sub	r1, r11, #28
.Ltmp199:
	@DEBUG_VALUE: _M_construct<char *>:__dnew <- [%R1+0]
	mov	r0, sp
.Ltmp200:
	mov	r2, #0
.Ltmp201:
	bl	_ZNSt7__cxx1112basic_stringIcSt11char_traitsIcESaIcEE9_M_createERjj
.Ltmp202:
.Ltmp162:
@ BB#5:                                 @ %.noexc8
.Ltmp203:
	@DEBUG_VALUE: _M_data:__p <- %R0
	.loc	51 220 18               @ /usr/bin/../lib/gcc/arm-linux-gnueabihf/6.3.0/../../../../include/c++/6.3.0/bits/basic_string.tcc:220:18
	ldr	r1, [r11, #-28]
.Ltmp204:
	@DEBUG_VALUE: _M_capacity:__capacity <- %R1
	@DEBUG_VALUE: _M_construct<char *>:__dnew <- %R1
	.loc	7 128 26                @ /usr/bin/../lib/gcc/arm-linux-gnueabihf/6.3.0/../../../../include/c++/6.3.0/bits/basic_string.h:128:26
	str	r0, [sp]
.Ltmp205:
	.loc	7 160 31                @ /usr/bin/../lib/gcc/arm-linux-gnueabihf/6.3.0/../../../../include/c++/6.3.0/bits/basic_string.h:160:31
	str	r1, [sp, #8]
	b	.LBB3_7
.Ltmp206:
.LBB3_6:                                @ %._crit_edge.i.i.i.i5
	@DEBUG_VALUE: _M_local_data:this <- %R0
	@DEBUG_VALUE: _M_construct<char *>:this <- %R0
	@DEBUG_VALUE: _M_construct_aux<char *>:this <- %R0
	@DEBUG_VALUE: _M_construct<char *>:this <- %R0
	@DEBUG_VALUE: _S_copy:__s <- %R2
	.loc	7 136 28                @ /usr/bin/../lib/gcc/arm-linux-gnueabihf/6.3.0/../../../../include/c++/6.3.0/bits/basic_string.h:136:28
	mov	r0, r7
.Ltmp207:
.LBB3_7:
	.loc	7 297 6                 @ /usr/bin/../lib/gcc/arm-linux-gnueabihf/6.3.0/../../../../include/c++/6.3.0/bits/basic_string.h:297:6
	cmp	r6, #0
	beq	.LBB3_11
@ BB#8:
	cmp	r6, #1
	bne	.LBB3_10
@ BB#9:
.Ltmp208:
	.loc	12 243 16               @ /usr/bin/../lib/gcc/arm-linux-gnueabihf/6.3.0/../../../../include/c++/6.3.0/bits/char_traits.h:243:16
	ldrb	r1, [r5]
.Ltmp209:
	@DEBUG_VALUE: _S_copy_chars:__p <- %R0
	.loc	12 243 14 is_stmt 0     @ /usr/bin/../lib/gcc/arm-linux-gnueabihf/6.3.0/../../../../include/c++/6.3.0/bits/char_traits.h:243:14
	strb	r1, [r0]
	b	.LBB3_11
.Ltmp210:
.LBB3_10:
	.loc	12 290 33 is_stmt 1     @ /usr/bin/../lib/gcc/arm-linux-gnueabihf/6.3.0/../../../../include/c++/6.3.0/bits/char_traits.h:290:33
	mov	r1, r5
	mov	r2, r6
	bl	memcpy
.Ltmp211:
.LBB3_11:
	.loc	51 232 16               @ /usr/bin/../lib/gcc/arm-linux-gnueabihf/6.3.0/../../../../include/c++/6.3.0/bits/basic_string.tcc:232:16
	ldr	r0, [r11, #-28]
.Ltmp212:
	@DEBUG_VALUE: _M_set_length:__n <- %R0
	@DEBUG_VALUE: _M_length:__length <- %R0
	@DEBUG_VALUE: _M_construct<char *>:__dnew <- %R0
	.loc	12 243 14               @ /usr/bin/../lib/gcc/arm-linux-gnueabihf/6.3.0/../../../../include/c++/6.3.0/bits/char_traits.h:243:14
	mov	r2, #0
.Ltmp213:
	.loc	7 132 26                @ /usr/bin/../lib/gcc/arm-linux-gnueabihf/6.3.0/../../../../include/c++/6.3.0/bits/basic_string.h:132:26
	str	r0, [sp, #4]
.Ltmp214:
	.loc	7 136 28                @ /usr/bin/../lib/gcc/arm-linux-gnueabihf/6.3.0/../../../../include/c++/6.3.0/bits/basic_string.h:136:28
	ldr	r1, [sp]
.Ltmp215:
	.loc	12 243 14               @ /usr/bin/../lib/gcc/arm-linux-gnueabihf/6.3.0/../../../../include/c++/6.3.0/bits/char_traits.h:243:14
	strb	r2, [r1, r0]
.Ltmp216:
	.loc	41 22 45 discriminator 3 @ /root/Bela/projects/SOFAlizer-for-Bela/osc.cpp:22:45
.Ltmp164:
	mov	r1, sp
.Ltmp217:
	@DEBUG_VALUE: _M_data:this <- %R1
	@DEBUG_VALUE: _M_length:this <- %R1
	mov	r0, r4
.Ltmp218:
	bl	_ZN9OscSender3addENSt7__cxx1112basic_stringIcSt11char_traitsIcESaIcEEE
.Ltmp219:
.Ltmp165:
@ BB#12:
	.loc	41 22 57 is_stmt 0 discriminator 4 @ /root/Bela/projects/SOFAlizer-for-Bela/osc.cpp:22:57
.Ltmp166:
	bl	_ZN9OscSender4sendEv
.Ltmp167:
@ BB#13:
.Ltmp220:
	.loc	7 136 28 is_stmt 1      @ /usr/bin/../lib/gcc/arm-linux-gnueabihf/6.3.0/../../../../include/c++/6.3.0/bits/basic_string.h:136:28
	ldr	r0, [sp]
.Ltmp221:
	@DEBUG_VALUE: deallocate:__p <- %R0
	@DEBUG_VALUE: deallocate:__p <- %R0
	.loc	7 180 6                 @ /usr/bin/../lib/gcc/arm-linux-gnueabihf/6.3.0/../../../../include/c++/6.3.0/bits/basic_string.h:180:6
	cmp	r0, r7
	beq	.LBB3_15
.Ltmp222:
@ BB#14:
	@DEBUG_VALUE: deallocate:__p <- %R0
	@DEBUG_VALUE: deallocate:__p <- %R0
	.loc	47 110 9                @ /usr/bin/../lib/gcc/arm-linux-gnueabihf/6.3.0/../../../../include/c++/6.3.0/ext/new_allocator.h:110:9
	bl	_ZdlPv
.Ltmp223:
.LBB3_15:                               @ %_ZNSt7__cxx1112basic_stringIcSt11char_traitsIcESaIcEED2Ev.exit9
	.loc	7 136 28                @ /usr/bin/../lib/gcc/arm-linux-gnueabihf/6.3.0/../../../../include/c++/6.3.0/bits/basic_string.h:136:28
	ldr	r0, [sp, #24]
.Ltmp224:
	@DEBUG_VALUE: deallocate:__p <- %R0
	@DEBUG_VALUE: deallocate:__p <- %R0
	.loc	7 180 6                 @ /usr/bin/../lib/gcc/arm-linux-gnueabihf/6.3.0/../../../../include/c++/6.3.0/bits/basic_string.h:180:6
	cmp	r0, r8
	beq	.LBB3_17
.Ltmp225:
@ BB#16:
	@DEBUG_VALUE: deallocate:__p <- %R0
	@DEBUG_VALUE: deallocate:__p <- %R0
	.loc	47 110 9                @ /usr/bin/../lib/gcc/arm-linux-gnueabihf/6.3.0/../../../../include/c++/6.3.0/ext/new_allocator.h:110:9
	bl	_ZdlPv
.Ltmp226:
.LBB3_17:                               @ %_ZNSt7__cxx1112basic_stringIcSt11char_traitsIcESaIcEED2Ev.exit10
	.loc	41 23 1                 @ /root/Bela/projects/SOFAlizer-for-Bela/osc.cpp:23:1
	sub	sp, r11, #24
	pop	{r4, r5, r6, r7, r8, r10, r11, pc}
.LBB3_18:                               @ %.noexc.i
.Ltmp227:
	@DEBUG_VALUE: _M_local_data:this <- %R0
	@DEBUG_VALUE: _M_construct<char *>:this <- %R0
	@DEBUG_VALUE: _M_construct_aux<char *>:this <- %R0
	@DEBUG_VALUE: _M_construct<char *>:this <- %R0
	@DEBUG_VALUE: _S_copy:__s <- %R2
	.loc	51 212 4                @ /usr/bin/../lib/gcc/arm-linux-gnueabihf/6.3.0/../../../../include/c++/6.3.0/bits/basic_string.tcc:212:4
.Ltmp159:
	movw	r0, :lower16:.L.str.17
.Ltmp228:
	movt	r0, :upper16:.L.str.17
	mov	lr, pc
	b	_ZSt19__throw_logic_errorPKc
.Ltmp229:
.Ltmp160:
.Ltmp230:
@ BB#19:                                @ %.noexc7
.LBB3_20:
.Ltmp163:
	mov	r4, r0
	b	.LBB3_23
.LBB3_21:
.Ltmp168:
	mov	r4, r0
.Ltmp231:
	.loc	7 136 28                @ /usr/bin/../lib/gcc/arm-linux-gnueabihf/6.3.0/../../../../include/c++/6.3.0/bits/basic_string.h:136:28
	ldr	r0, [sp]
.Ltmp232:
	@DEBUG_VALUE: deallocate:__p <- %R0
	@DEBUG_VALUE: deallocate:__p <- %R0
	.loc	7 180 6                 @ /usr/bin/../lib/gcc/arm-linux-gnueabihf/6.3.0/../../../../include/c++/6.3.0/bits/basic_string.h:180:6
	cmp	r0, r7
	beq	.LBB3_23
.Ltmp233:
@ BB#22:
	@DEBUG_VALUE: deallocate:__p <- %R0
	@DEBUG_VALUE: deallocate:__p <- %R0
	.loc	47 110 9                @ /usr/bin/../lib/gcc/arm-linux-gnueabihf/6.3.0/../../../../include/c++/6.3.0/ext/new_allocator.h:110:9
	bl	_ZdlPv
.Ltmp234:
.LBB3_23:                               @ %_ZNSt7__cxx1112basic_stringIcSt11char_traitsIcESaIcEED2Ev.exit11
	.loc	7 136 28                @ /usr/bin/../lib/gcc/arm-linux-gnueabihf/6.3.0/../../../../include/c++/6.3.0/bits/basic_string.h:136:28
	ldr	r0, [sp, #24]
.Ltmp235:
	@DEBUG_VALUE: deallocate:__p <- %R0
	@DEBUG_VALUE: deallocate:__p <- %R0
	.loc	7 180 6                 @ /usr/bin/../lib/gcc/arm-linux-gnueabihf/6.3.0/../../../../include/c++/6.3.0/bits/basic_string.h:180:6
	cmp	r0, r8
	beq	.LBB3_25
.Ltmp236:
@ BB#24:
	@DEBUG_VALUE: deallocate:__p <- %R0
	@DEBUG_VALUE: deallocate:__p <- %R0
	.loc	47 110 9                @ /usr/bin/../lib/gcc/arm-linux-gnueabihf/6.3.0/../../../../include/c++/6.3.0/ext/new_allocator.h:110:9
	bl	_ZdlPv
.Ltmp237:
.LBB3_25:                               @ %_ZNSt7__cxx1112basic_stringIcSt11char_traitsIcESaIcEED2Ev.exit
	mov	r0, r4
	mov	lr, pc
	b	_Unwind_Resume
.Lfunc_end3:
	.size	_ZN12OSCinterface11send_statusENSt7__cxx1112basic_stringIcSt11char_traitsIcESaIcEEE, .Lfunc_end3-_ZN12OSCinterface11send_statusENSt7__cxx1112basic_stringIcSt11char_traitsIcESaIcEEE
	.cfi_endproc
	.globl	__gxx_personality_v0
	.personality __gxx_personality_v0
	.handlerdata
	.p2align	2
GCC_except_table3:
.Lexception3:
	.byte	255                     @ @LPStart Encoding = omit
	.byte	0                       @ @TType Encoding = absptr
	.asciz	"\303\200"              @ @TType base offset
	.byte	3                       @ Call site Encoding = udata4
	.byte	65                      @ Call site table length
	.long	.Ltmp157-.Lfunc_begin3  @ >> Call Site 1 <<
	.long	.Ltmp162-.Ltmp157       @   Call between .Ltmp157 and .Ltmp162
	.long	.Ltmp163-.Lfunc_begin3  @     jumps to .Ltmp163
	.byte	0                       @   On action: cleanup
	.long	.Ltmp162-.Lfunc_begin3  @ >> Call Site 2 <<
	.long	.Ltmp164-.Ltmp162       @   Call between .Ltmp162 and .Ltmp164
	.long	0                       @     has no landing pad
	.byte	0                       @   On action: cleanup
	.long	.Ltmp164-.Lfunc_begin3  @ >> Call Site 3 <<
	.long	.Ltmp167-.Ltmp164       @   Call between .Ltmp164 and .Ltmp167
	.long	.Ltmp168-.Lfunc_begin3  @     jumps to .Ltmp168
	.byte	0                       @   On action: cleanup
	.long	.Ltmp159-.Lfunc_begin3  @ >> Call Site 4 <<
	.long	.Ltmp160-.Ltmp159       @   Call between .Ltmp159 and .Ltmp160
	.long	.Ltmp163-.Lfunc_begin3  @     jumps to .Ltmp163
	.byte	0                       @   On action: cleanup
	.long	.Ltmp160-.Lfunc_begin3  @ >> Call Site 5 <<
	.long	.Lfunc_end3-.Ltmp160    @   Call between .Ltmp160 and .Lfunc_end3
	.long	0                       @     has no landing pad
	.byte	0                       @   On action: cleanup
	.p2align	2
	.fnend

	.globl	_ZN12OSCinterface14get_angle_pos0Ev
	.p2align	2
	.type	_ZN12OSCinterface14get_angle_pos0Ev,%function
_ZN12OSCinterface14get_angle_pos0Ev:    @ @_ZN12OSCinterface14get_angle_pos0Ev
.Lfunc_begin4:
	.loc	41 25 0                 @ /root/Bela/projects/SOFAlizer-for-Bela/osc.cpp:25:0
	.fnstart
	.cfi_startproc
@ BB#0:
	.save	{r4, r5, r6, r10, r11, lr}
	push	{r4, r5, r6, r10, r11, lr}
.Ltmp247:
	.cfi_def_cfa_offset 24
.Ltmp248:
	.cfi_offset lr, -4
.Ltmp249:
	.cfi_offset r11, -8
.Ltmp250:
	.cfi_offset r10, -12
.Ltmp251:
	.cfi_offset r6, -16
.Ltmp252:
	.cfi_offset r5, -20
.Ltmp253:
	.cfi_offset r4, -24
	.setfp	r11, sp, #16
	add	r11, sp, #16
.Ltmp254:
	.cfi_def_cfa r11, 8
	.pad	#24
	sub	sp, sp, #24
	@DEBUG_VALUE: get_angle_pos0:this <- %R0
.Ltmp255:
	.loc	1 747 7 prologue_end    @ /usr/bin/../lib/gcc/arm-linux-gnueabihf/6.3.0/../../../../include/arm-linux-gnueabihf/c++/6.3.0/bits/gthr-default.h:747:7
	movw	r5, :lower16:__pthread_key_create
	mov	r4, r0
.Ltmp256:
	@DEBUG_VALUE: get_angle_pos0:this <- %R4
	movt	r5, :upper16:__pthread_key_create
	cmp	r5, #0
	beq	.LBB4_2
.Ltmp257:
@ BB#1:                                 @ %_ZL20__gthread_mutex_lockP15pthread_mutex_t.exit.i
	@DEBUG_VALUE: get_angle_pos0:this <- %R4
	.loc	1 748 12                @ /usr/bin/../lib/gcc/arm-linux-gnueabihf/6.3.0/../../../../include/arm-linux-gnueabihf/c++/6.3.0/bits/gthr-default.h:748:12
	movw	r0, :lower16:m_left_pos
	movt	r0, :upper16:m_left_pos
.Ltmp258:
	@DEBUG_VALUE: lock:this <- %R0
	bl	pthread_mutex_lock
.Ltmp259:
	@DEBUG_VALUE: lock:__e <- %R0
	.file	53 "/usr/bin/../lib/gcc/arm-linux-gnueabihf/6.3.0/../../../../include/c++/6.3.0/bits" "std_mutex.h"
	.loc	53 106 11               @ /usr/bin/../lib/gcc/arm-linux-gnueabihf/6.3.0/../../../../include/c++/6.3.0/bits/std_mutex.h:106:11
	cmp	r0, #0
	bne	.LBB4_11
.Ltmp260:
.LBB4_2:                                @ %_ZNSt5mutex4lockEv.exit
	@DEBUG_VALUE: get_angle_pos0:this <- %R4
	mov	r0, #48
.Ltmp261:
	@DEBUG_VALUE: _S_copy:__n <- 11
	mov	r1, sp
.Ltmp262:
	@DEBUG_VALUE: _M_data:this <- %R1
	@DEBUG_VALUE: _M_length:this <- %R1
	@DEBUG_VALUE: _M_set_length:__n <- 11
	@DEBUG_VALUE: _M_set_length:this <- %R1
	@DEBUG_VALUE: _M_data:this <- %R1
	@DEBUG_VALUE: _M_construct<const char *>:__dnew <- 11
	@DEBUG_VALUE: _M_construct<const char *>:this <- %R1
	@DEBUG_VALUE: _M_construct_aux<const char *>:this <- %R1
	@DEBUG_VALUE: _M_construct<const char *>:this <- %R1
	@DEBUG_VALUE: _S_copy_chars:__p <- %R6
	@DEBUG_VALUE: _S_copy:__d <- %R6
	@DEBUG_VALUE: _M_local_data:this <- %R1
	.loc	7 142 51                @ /usr/bin/../lib/gcc/arm-linux-gnueabihf/6.3.0/../../../../include/c++/6.3.0/bits/basic_string.h:142:51
	add	r6, r1, #8
.Ltmp263:
	.loc	7 110 25                @ /usr/bin/../lib/gcc/arm-linux-gnueabihf/6.3.0/../../../../include/c++/6.3.0/bits/basic_string.h:110:25
	str	r6, [sp]
.Ltmp264:
	.loc	12 290 33               @ /usr/bin/../lib/gcc/arm-linux-gnueabihf/6.3.0/../../../../include/c++/6.3.0/bits/char_traits.h:290:33
	strb	r0, [sp, #18]
	movw	r0, :lower16:.L.str.4
	movt	r0, :upper16:.L.str.4
.Ltmp265:
	@DEBUG_VALUE: _S_copy:__s <- %R0
	vldr	d16, [r0]
	movw	r0, #12142
.Ltmp266:
	strh	r0, [sp, #16]
	mov	r0, #11
.Ltmp267:
	@DEBUG_VALUE: _M_length:__length <- 11
	vstr	d16, [sp, #8]
.Ltmp268:
	.loc	7 132 26                @ /usr/bin/../lib/gcc/arm-linux-gnueabihf/6.3.0/../../../../include/c++/6.3.0/bits/basic_string.h:132:26
	str	r0, [sp, #4]
.Ltmp269:
	.loc	12 243 14               @ /usr/bin/../lib/gcc/arm-linux-gnueabihf/6.3.0/../../../../include/c++/6.3.0/bits/char_traits.h:243:14
	mov	r0, #0
	strb	r0, [sp, #19]
.Ltmp270:
	.loc	41 27 15 discriminator 1 @ /root/Bela/projects/SOFAlizer-for-Bela/osc.cpp:27:15
.Ltmp238:
	.loc	41 27 5 is_stmt 0       @ /root/Bela/projects/SOFAlizer-for-Bela/osc.cpp:27:5
	add	r0, r4, #48
	.loc	41 27 15 discriminator 1 @ /root/Bela/projects/SOFAlizer-for-Bela/osc.cpp:27:15
	bl	_ZN9OscSender10newMessageENSt7__cxx1112basic_stringIcSt11char_traitsIcESaIcEEE
.Ltmp271:
.Ltmp239:
.Ltmp272:
@ BB#3:
	@DEBUG_VALUE: get_angle_pos0:this <- %R4
	.loc	41 27 58 discriminator 2 @ /root/Bela/projects/SOFAlizer-for-Bela/osc.cpp:27:58
	movw	r4, :lower16:leftPosition
.Ltmp273:
	movt	r4, :upper16:leftPosition
	vldr	s0, [r4, #16]
	.loc	41 27 41 discriminator 2 @ /root/Bela/projects/SOFAlizer-for-Bela/osc.cpp:27:41
.Ltmp240:
	bl	_ZN9OscSender3addEf
.Ltmp241:
@ BB#4:
	.loc	41 27 84 discriminator 3 @ /root/Bela/projects/SOFAlizer-for-Bela/osc.cpp:27:84
	vldr	s0, [r4, #20]
	.loc	41 27 67 discriminator 3 @ /root/Bela/projects/SOFAlizer-for-Bela/osc.cpp:27:67
.Ltmp242:
	bl	_ZN9OscSender3addEf
.Ltmp243:
@ BB#5:
	.loc	41 27 101 discriminator 4 @ /root/Bela/projects/SOFAlizer-for-Bela/osc.cpp:27:101
.Ltmp244:
	bl	_ZN9OscSender4sendEv
.Ltmp245:
@ BB#6:
.Ltmp274:
	.loc	7 136 28 is_stmt 1      @ /usr/bin/../lib/gcc/arm-linux-gnueabihf/6.3.0/../../../../include/c++/6.3.0/bits/basic_string.h:136:28
	ldr	r0, [sp]
.Ltmp275:
	@DEBUG_VALUE: deallocate:__p <- %R0
	@DEBUG_VALUE: deallocate:__p <- %R0
	.loc	7 180 6                 @ /usr/bin/../lib/gcc/arm-linux-gnueabihf/6.3.0/../../../../include/c++/6.3.0/bits/basic_string.h:180:6
	cmp	r0, r6
	beq	.LBB4_8
.Ltmp276:
@ BB#7:
	@DEBUG_VALUE: deallocate:__p <- %R0
	@DEBUG_VALUE: deallocate:__p <- %R0
	.loc	47 110 9                @ /usr/bin/../lib/gcc/arm-linux-gnueabihf/6.3.0/../../../../include/c++/6.3.0/ext/new_allocator.h:110:9
	bl	_ZdlPv
.Ltmp277:
.LBB4_8:                                @ %_ZNSt7__cxx1112basic_stringIcSt11char_traitsIcESaIcEED2Ev.exit
	.loc	1 777 7                 @ /usr/bin/../lib/gcc/arm-linux-gnueabihf/6.3.0/../../../../include/arm-linux-gnueabihf/c++/6.3.0/bits/gthr-default.h:777:7
	cmp	r5, #0
	beq	.LBB4_10
@ BB#9:
.Ltmp278:
	.loc	1 778 12                @ /usr/bin/../lib/gcc/arm-linux-gnueabihf/6.3.0/../../../../include/arm-linux-gnueabihf/c++/6.3.0/bits/gthr-default.h:778:12
	movw	r0, :lower16:m_left_pos
	movt	r0, :upper16:m_left_pos
.Ltmp279:
	@DEBUG_VALUE: unlock:this <- %R0
	bl	pthread_mutex_unlock
.Ltmp280:
.LBB4_10:                               @ %_ZNSt5mutex6unlockEv.exit
	.loc	41 29 1                 @ /root/Bela/projects/SOFAlizer-for-Bela/osc.cpp:29:1
	sub	sp, r11, #16
	pop	{r4, r5, r6, r10, r11, pc}
.LBB4_11:
.Ltmp281:
	@DEBUG_VALUE: lock:__e <- %R0
	@DEBUG_VALUE: get_angle_pos0:this <- %R4
	.loc	53 107 2                @ /usr/bin/../lib/gcc/arm-linux-gnueabihf/6.3.0/../../../../include/c++/6.3.0/bits/std_mutex.h:107:2
	mov	lr, pc
	b	_ZSt20__throw_system_errori
.Ltmp282:
.LBB4_12:
.Ltmp246:
	mov	r4, r0
.Ltmp283:
	.loc	7 136 28                @ /usr/bin/../lib/gcc/arm-linux-gnueabihf/6.3.0/../../../../include/c++/6.3.0/bits/basic_string.h:136:28
	ldr	r0, [sp]
.Ltmp284:
	@DEBUG_VALUE: deallocate:__p <- %R0
	@DEBUG_VALUE: deallocate:__p <- %R0
	.loc	7 180 6                 @ /usr/bin/../lib/gcc/arm-linux-gnueabihf/6.3.0/../../../../include/c++/6.3.0/bits/basic_string.h:180:6
	cmp	r0, r6
	beq	.LBB4_14
.Ltmp285:
@ BB#13:
	@DEBUG_VALUE: deallocate:__p <- %R0
	@DEBUG_VALUE: deallocate:__p <- %R0
	.loc	47 110 9                @ /usr/bin/../lib/gcc/arm-linux-gnueabihf/6.3.0/../../../../include/c++/6.3.0/ext/new_allocator.h:110:9
	bl	_ZdlPv
.Ltmp286:
.LBB4_14:                               @ %_ZNSt7__cxx1112basic_stringIcSt11char_traitsIcESaIcEED2Ev.exit3
	mov	r0, r4
	mov	lr, pc
	b	_Unwind_Resume
.Lfunc_end4:
	.size	_ZN12OSCinterface14get_angle_pos0Ev, .Lfunc_end4-_ZN12OSCinterface14get_angle_pos0Ev
	.cfi_endproc
	.file	54 "/usr/include/arm-linux-gnueabihf/bits" "pthreadtypes.h"
	.globl	__gxx_personality_v0
	.personality __gxx_personality_v0
	.handlerdata
	.p2align	2
GCC_except_table4:
.Lexception4:
	.byte	255                     @ @LPStart Encoding = omit
	.byte	0                       @ @TType Encoding = absptr
	.asciz	"\234"                  @ @TType base offset
	.byte	3                       @ Call site Encoding = udata4
	.byte	26                      @ Call site table length
	.long	.Ltmp238-.Lfunc_begin4  @ >> Call Site 1 <<
	.long	.Ltmp245-.Ltmp238       @   Call between .Ltmp238 and .Ltmp245
	.long	.Ltmp246-.Lfunc_begin4  @     jumps to .Ltmp246
	.byte	0                       @   On action: cleanup
	.long	.Ltmp245-.Lfunc_begin4  @ >> Call Site 2 <<
	.long	.Lfunc_end4-.Ltmp245    @   Call between .Ltmp245 and .Lfunc_end4
	.long	0                       @     has no landing pad
	.byte	0                       @   On action: cleanup
	.p2align	2
	.fnend

	.globl	_ZN12OSCinterface14get_angle_pos1Ev
	.p2align	2
	.type	_ZN12OSCinterface14get_angle_pos1Ev,%function
_ZN12OSCinterface14get_angle_pos1Ev:    @ @_ZN12OSCinterface14get_angle_pos1Ev
.Lfunc_begin5:
	.loc	41 31 0                 @ /root/Bela/projects/SOFAlizer-for-Bela/osc.cpp:31:0
	.fnstart
	.cfi_startproc
@ BB#0:
	.save	{r4, r5, r6, r10, r11, lr}
	push	{r4, r5, r6, r10, r11, lr}
.Ltmp296:
	.cfi_def_cfa_offset 24
.Ltmp297:
	.cfi_offset lr, -4
.Ltmp298:
	.cfi_offset r11, -8
.Ltmp299:
	.cfi_offset r10, -12
.Ltmp300:
	.cfi_offset r6, -16
.Ltmp301:
	.cfi_offset r5, -20
.Ltmp302:
	.cfi_offset r4, -24
	.setfp	r11, sp, #16
	add	r11, sp, #16
.Ltmp303:
	.cfi_def_cfa r11, 8
	.pad	#24
	sub	sp, sp, #24
	@DEBUG_VALUE: get_angle_pos1:this <- %R0
.Ltmp304:
	.loc	1 747 7 prologue_end    @ /usr/bin/../lib/gcc/arm-linux-gnueabihf/6.3.0/../../../../include/arm-linux-gnueabihf/c++/6.3.0/bits/gthr-default.h:747:7
	movw	r5, :lower16:__pthread_key_create
	mov	r4, r0
.Ltmp305:
	@DEBUG_VALUE: get_angle_pos1:this <- %R4
	movt	r5, :upper16:__pthread_key_create
	cmp	r5, #0
	beq	.LBB5_2
.Ltmp306:
@ BB#1:                                 @ %_ZL20__gthread_mutex_lockP15pthread_mutex_t.exit.i
	@DEBUG_VALUE: get_angle_pos1:this <- %R4
	.loc	1 748 12                @ /usr/bin/../lib/gcc/arm-linux-gnueabihf/6.3.0/../../../../include/arm-linux-gnueabihf/c++/6.3.0/bits/gthr-default.h:748:12
	movw	r0, :lower16:m_right_pos
	movt	r0, :upper16:m_right_pos
.Ltmp307:
	@DEBUG_VALUE: lock:this <- %R0
	bl	pthread_mutex_lock
.Ltmp308:
	@DEBUG_VALUE: lock:__e <- %R0
	.loc	53 106 11               @ /usr/bin/../lib/gcc/arm-linux-gnueabihf/6.3.0/../../../../include/c++/6.3.0/bits/std_mutex.h:106:11
	cmp	r0, #0
	bne	.LBB5_11
.Ltmp309:
.LBB5_2:                                @ %_ZNSt5mutex4lockEv.exit
	@DEBUG_VALUE: get_angle_pos1:this <- %R4
	.loc	12 290 33               @ /usr/bin/../lib/gcc/arm-linux-gnueabihf/6.3.0/../../../../include/c++/6.3.0/bits/char_traits.h:290:33
	mov	r0, #49
.Ltmp310:
	@DEBUG_VALUE: _S_copy:__n <- 11
	mov	r1, sp
.Ltmp311:
	@DEBUG_VALUE: _M_data:this <- %R1
	@DEBUG_VALUE: _M_length:this <- %R1
	@DEBUG_VALUE: _M_set_length:__n <- 11
	@DEBUG_VALUE: _M_set_length:this <- %R1
	@DEBUG_VALUE: _M_data:this <- %R1
	@DEBUG_VALUE: _M_construct<const char *>:__dnew <- 11
	@DEBUG_VALUE: _M_construct<const char *>:this <- %R1
	@DEBUG_VALUE: _M_construct_aux<const char *>:this <- %R1
	@DEBUG_VALUE: _M_construct<const char *>:this <- %R1
	@DEBUG_VALUE: _S_copy_chars:__p <- %R6
	@DEBUG_VALUE: _S_copy:__d <- %R6
	@DEBUG_VALUE: _M_local_data:this <- %R1
	.loc	7 142 51                @ /usr/bin/../lib/gcc/arm-linux-gnueabihf/6.3.0/../../../../include/c++/6.3.0/bits/basic_string.h:142:51
	add	r6, r1, #8
.Ltmp312:
	.loc	7 110 25                @ /usr/bin/../lib/gcc/arm-linux-gnueabihf/6.3.0/../../../../include/c++/6.3.0/bits/basic_string.h:110:25
	str	r6, [sp]
.Ltmp313:
	.loc	12 290 33               @ /usr/bin/../lib/gcc/arm-linux-gnueabihf/6.3.0/../../../../include/c++/6.3.0/bits/char_traits.h:290:33
	strb	r0, [sp, #18]
	movw	r0, :lower16:.L.str.5
	movt	r0, :upper16:.L.str.5
.Ltmp314:
	@DEBUG_VALUE: _S_copy:__s <- %R0
	vldr	d16, [r0]
	movw	r0, #12142
.Ltmp315:
	strh	r0, [sp, #16]
	mov	r0, #11
.Ltmp316:
	@DEBUG_VALUE: _M_length:__length <- 11
	vstr	d16, [sp, #8]
.Ltmp317:
	.loc	7 132 26                @ /usr/bin/../lib/gcc/arm-linux-gnueabihf/6.3.0/../../../../include/c++/6.3.0/bits/basic_string.h:132:26
	str	r0, [sp, #4]
.Ltmp318:
	.loc	12 243 14               @ /usr/bin/../lib/gcc/arm-linux-gnueabihf/6.3.0/../../../../include/c++/6.3.0/bits/char_traits.h:243:14
	mov	r0, #0
	strb	r0, [sp, #19]
.Ltmp319:
	.loc	41 33 15 discriminator 1 @ /root/Bela/projects/SOFAlizer-for-Bela/osc.cpp:33:15
.Ltmp287:
	.loc	41 33 5 is_stmt 0       @ /root/Bela/projects/SOFAlizer-for-Bela/osc.cpp:33:5
	add	r0, r4, #48
	.loc	41 33 15 discriminator 1 @ /root/Bela/projects/SOFAlizer-for-Bela/osc.cpp:33:15
	bl	_ZN9OscSender10newMessageENSt7__cxx1112basic_stringIcSt11char_traitsIcESaIcEEE
.Ltmp320:
.Ltmp288:
.Ltmp321:
@ BB#3:
	@DEBUG_VALUE: get_angle_pos1:this <- %R4
	.loc	41 33 58 discriminator 2 @ /root/Bela/projects/SOFAlizer-for-Bela/osc.cpp:33:58
	movw	r4, :lower16:righPosition
.Ltmp322:
	movt	r4, :upper16:righPosition
	vldr	s0, [r4, #16]
	.loc	41 33 41 discriminator 2 @ /root/Bela/projects/SOFAlizer-for-Bela/osc.cpp:33:41
.Ltmp289:
	bl	_ZN9OscSender3addEf
.Ltmp290:
@ BB#4:
	.loc	41 33 84 discriminator 3 @ /root/Bela/projects/SOFAlizer-for-Bela/osc.cpp:33:84
	vldr	s0, [r4, #20]
	.loc	41 33 67 discriminator 3 @ /root/Bela/projects/SOFAlizer-for-Bela/osc.cpp:33:67
.Ltmp291:
	bl	_ZN9OscSender3addEf
.Ltmp292:
@ BB#5:
	.loc	41 33 101 discriminator 4 @ /root/Bela/projects/SOFAlizer-for-Bela/osc.cpp:33:101
.Ltmp293:
	bl	_ZN9OscSender4sendEv
.Ltmp294:
@ BB#6:
.Ltmp323:
	.loc	7 136 28 is_stmt 1      @ /usr/bin/../lib/gcc/arm-linux-gnueabihf/6.3.0/../../../../include/c++/6.3.0/bits/basic_string.h:136:28
	ldr	r0, [sp]
.Ltmp324:
	@DEBUG_VALUE: deallocate:__p <- %R0
	@DEBUG_VALUE: deallocate:__p <- %R0
	.loc	7 180 6                 @ /usr/bin/../lib/gcc/arm-linux-gnueabihf/6.3.0/../../../../include/c++/6.3.0/bits/basic_string.h:180:6
	cmp	r0, r6
	beq	.LBB5_8
.Ltmp325:
@ BB#7:
	@DEBUG_VALUE: deallocate:__p <- %R0
	@DEBUG_VALUE: deallocate:__p <- %R0
	.loc	47 110 9                @ /usr/bin/../lib/gcc/arm-linux-gnueabihf/6.3.0/../../../../include/c++/6.3.0/ext/new_allocator.h:110:9
	bl	_ZdlPv
.Ltmp326:
.LBB5_8:                                @ %_ZNSt7__cxx1112basic_stringIcSt11char_traitsIcESaIcEED2Ev.exit
	.loc	1 777 7                 @ /usr/bin/../lib/gcc/arm-linux-gnueabihf/6.3.0/../../../../include/arm-linux-gnueabihf/c++/6.3.0/bits/gthr-default.h:777:7
	cmp	r5, #0
	beq	.LBB5_10
@ BB#9:
.Ltmp327:
	.loc	1 778 12                @ /usr/bin/../lib/gcc/arm-linux-gnueabihf/6.3.0/../../../../include/arm-linux-gnueabihf/c++/6.3.0/bits/gthr-default.h:778:12
	movw	r0, :lower16:m_right_pos
	movt	r0, :upper16:m_right_pos
.Ltmp328:
	@DEBUG_VALUE: unlock:this <- %R0
	bl	pthread_mutex_unlock
.Ltmp329:
.LBB5_10:                               @ %_ZNSt5mutex6unlockEv.exit
	.loc	41 35 1                 @ /root/Bela/projects/SOFAlizer-for-Bela/osc.cpp:35:1
	sub	sp, r11, #16
	pop	{r4, r5, r6, r10, r11, pc}
.LBB5_11:
.Ltmp330:
	@DEBUG_VALUE: lock:__e <- %R0
	@DEBUG_VALUE: get_angle_pos1:this <- %R4
	.loc	53 107 2                @ /usr/bin/../lib/gcc/arm-linux-gnueabihf/6.3.0/../../../../include/c++/6.3.0/bits/std_mutex.h:107:2
	mov	lr, pc
	b	_ZSt20__throw_system_errori
.Ltmp331:
.LBB5_12:
.Ltmp295:
	mov	r4, r0
.Ltmp332:
	.loc	7 136 28                @ /usr/bin/../lib/gcc/arm-linux-gnueabihf/6.3.0/../../../../include/c++/6.3.0/bits/basic_string.h:136:28
	ldr	r0, [sp]
.Ltmp333:
	@DEBUG_VALUE: deallocate:__p <- %R0
	@DEBUG_VALUE: deallocate:__p <- %R0
	.loc	7 180 6                 @ /usr/bin/../lib/gcc/arm-linux-gnueabihf/6.3.0/../../../../include/c++/6.3.0/bits/basic_string.h:180:6
	cmp	r0, r6
	beq	.LBB5_14
.Ltmp334:
@ BB#13:
	@DEBUG_VALUE: deallocate:__p <- %R0
	@DEBUG_VALUE: deallocate:__p <- %R0
	.loc	47 110 9                @ /usr/bin/../lib/gcc/arm-linux-gnueabihf/6.3.0/../../../../include/c++/6.3.0/ext/new_allocator.h:110:9
	bl	_ZdlPv
.Ltmp335:
.LBB5_14:                               @ %_ZNSt7__cxx1112basic_stringIcSt11char_traitsIcESaIcEED2Ev.exit3
	mov	r0, r4
	mov	lr, pc
	b	_Unwind_Resume
.Lfunc_end5:
	.size	_ZN12OSCinterface14get_angle_pos1Ev, .Lfunc_end5-_ZN12OSCinterface14get_angle_pos1Ev
	.cfi_endproc
	.globl	__gxx_personality_v0
	.personality __gxx_personality_v0
	.handlerdata
	.p2align	2
GCC_except_table5:
.Lexception5:
	.byte	255                     @ @LPStart Encoding = omit
	.byte	0                       @ @TType Encoding = absptr
	.asciz	"\234"                  @ @TType base offset
	.byte	3                       @ Call site Encoding = udata4
	.byte	26                      @ Call site table length
	.long	.Ltmp287-.Lfunc_begin5  @ >> Call Site 1 <<
	.long	.Ltmp294-.Ltmp287       @   Call between .Ltmp287 and .Ltmp294
	.long	.Ltmp295-.Lfunc_begin5  @     jumps to .Ltmp295
	.byte	0                       @   On action: cleanup
	.long	.Ltmp294-.Lfunc_begin5  @ >> Call Site 2 <<
	.long	.Lfunc_end5-.Ltmp294    @   Call between .Ltmp294 and .Lfunc_end5
	.long	0                       @     has no landing pad
	.byte	0                       @   On action: cleanup
	.p2align	2
	.fnend

	.globl	_Z14osc_on_receivePN6oscpkt7MessageEPKcPv
	.p2align	3
	.type	_Z14osc_on_receivePN6oscpkt7MessageEPKcPv,%function
_Z14osc_on_receivePN6oscpkt7MessageEPKcPv: @ @_Z14osc_on_receivePN6oscpkt7MessageEPKcPv
.Lfunc_begin6:
	.loc	41 38 0                 @ /root/Bela/projects/SOFAlizer-for-Bela/osc.cpp:38:0
	.fnstart
	.cfi_startproc
@ BB#0:
	.save	{r4, r5, r6, r7, r11, lr}
	push	{r4, r5, r6, r7, r11, lr}
.Ltmp387:
	.cfi_def_cfa_offset 24
.Ltmp388:
	.cfi_offset lr, -4
.Ltmp389:
	.cfi_offset r11, -8
.Ltmp390:
	.cfi_offset r7, -12
.Ltmp391:
	.cfi_offset r6, -16
.Ltmp392:
	.cfi_offset r5, -20
.Ltmp393:
	.cfi_offset r4, -24
	.setfp	r11, sp, #16
	add	r11, sp, #16
.Ltmp394:
	.cfi_def_cfa r11, 8
	.vsave	{d8, d9, d10}
	vpush	{d8, d9, d10}
.Ltmp395:
	.cfi_offset d10, -32
.Ltmp396:
	.cfi_offset d9, -40
.Ltmp397:
	.cfi_offset d8, -48
	.pad	#176
	sub	sp, sp, #176
	@DEBUG_VALUE: osc_on_receive:msg <- %R0
	@DEBUG_VALUE: osc_on_receive:addr <- %R1
	@DEBUG_VALUE: osc_on_receive:arg <- %R2
	mov	r4, r0
.Ltmp398:
	@DEBUG_VALUE: osc_on_receive:msg <- %R4
	.loc	41 39 8 prologue_end    @ /root/Bela/projects/SOFAlizer-for-Bela/osc.cpp:39:8
	cmp	r4, #0
	beq	.LBB6_114
.Ltmp399:
@ BB#1:                                 @ %.noexc8.i
	@DEBUG_VALUE: osc_on_receive:msg <- %R4
	@DEBUG_VALUE: osc_on_receive:arg <- %R2
	@DEBUG_VALUE: osc_on_receive:addr <- %R1
	sub	r0, r11, #96
.Ltmp400:
	@DEBUG_VALUE: _M_construct<const char *>:this <- %R0
	@DEBUG_VALUE: _M_construct_aux<const char *>:this <- %R0
	@DEBUG_VALUE: _M_construct<const char *>:this <- %R0
	@DEBUG_VALUE: _M_local_data:this <- %R0
	@DEBUG_VALUE: basic_string:this <- %R0
	.loc	51 215 12               @ /usr/bin/../lib/gcc/arm-linux-gnueabihf/6.3.0/../../../../include/c++/6.3.0/bits/basic_string.tcc:215:12
	mov	r1, #17
.Ltmp401:
	@DEBUG_VALUE: _M_construct<const char *>:__dnew <- 17
	.loc	7 142 51                @ /usr/bin/../lib/gcc/arm-linux-gnueabihf/6.3.0/../../../../include/c++/6.3.0/bits/basic_string.h:142:51
	add	r6, r0, #8
.Ltmp402:
	.loc	7 110 25                @ /usr/bin/../lib/gcc/arm-linux-gnueabihf/6.3.0/../../../../include/c++/6.3.0/bits/basic_string.h:110:25
	str	r6, [r11, #-96]
.Ltmp403:
	.loc	51 215 12               @ /usr/bin/../lib/gcc/arm-linux-gnueabihf/6.3.0/../../../../include/c++/6.3.0/bits/basic_string.tcc:215:12
	str	r1, [r11, #-68]
.Ltmp404:
	.loc	51 219 14               @ /usr/bin/../lib/gcc/arm-linux-gnueabihf/6.3.0/../../../../include/c++/6.3.0/bits/basic_string.tcc:219:14
.Ltmp336:
	sub	r1, r11, #68
.Ltmp405:
	@DEBUG_VALUE: _M_construct<const char *>:__dnew <- [%R1+0]
	mov	r2, #0
.Ltmp406:
	mov	r5, #0
	bl	_ZNSt7__cxx1112basic_stringIcSt11char_traitsIcESaIcEE9_M_createERjj
.Ltmp407:
.Ltmp337:
.Ltmp408:
@ BB#2:                                 @ %.noexc
	@DEBUG_VALUE: osc_on_receive:msg <- %R4
	.loc	12 290 33               @ /usr/bin/../lib/gcc/arm-linux-gnueabihf/6.3.0/../../../../include/c++/6.3.0/bits/char_traits.h:290:33
	movw	r2, :lower16:.L.str.6
.Ltmp409:
	.loc	51 220 18               @ /usr/bin/../lib/gcc/arm-linux-gnueabihf/6.3.0/../../../../include/c++/6.3.0/bits/basic_string.tcc:220:18
	ldr	r1, [r11, #-68]
.Ltmp410:
	@DEBUG_VALUE: _M_capacity:__capacity <- %R1
	@DEBUG_VALUE: _M_set_length:__n <- %R1
	@DEBUG_VALUE: _M_length:__length <- %R1
	@DEBUG_VALUE: _M_construct<const char *>:__dnew <- %R1
	.loc	12 290 33               @ /usr/bin/../lib/gcc/arm-linux-gnueabihf/6.3.0/../../../../include/c++/6.3.0/bits/char_traits.h:290:33
	movt	r2, :upper16:.L.str.6
	vld1.64	{d16, d17}, [r2]
	mov	r2, #103
.Ltmp411:
	.loc	7 128 26                @ /usr/bin/../lib/gcc/arm-linux-gnueabihf/6.3.0/../../../../include/c++/6.3.0/bits/basic_string.h:128:26
	str	r0, [r11, #-96]
.Ltmp412:
	@DEBUG_VALUE: _M_data:__p <- %R0
	.loc	7 160 31                @ /usr/bin/../lib/gcc/arm-linux-gnueabihf/6.3.0/../../../../include/c++/6.3.0/bits/basic_string.h:160:31
	str	r1, [r11, #-88]
.Ltmp413:
	@DEBUG_VALUE: _S_copy:__d <- %R0
	@DEBUG_VALUE: _S_copy:__n <- 17
	.loc	12 290 33               @ /usr/bin/../lib/gcc/arm-linux-gnueabihf/6.3.0/../../../../include/c++/6.3.0/bits/char_traits.h:290:33
	vst1.8	{d16, d17}, [r0]!
.Ltmp414:
	strb	r2, [r0]
.Ltmp415:
	.loc	7 132 26                @ /usr/bin/../lib/gcc/arm-linux-gnueabihf/6.3.0/../../../../include/c++/6.3.0/bits/basic_string.h:132:26
	str	r1, [r11, #-92]
.Ltmp416:
	.loc	7 136 28                @ /usr/bin/../lib/gcc/arm-linux-gnueabihf/6.3.0/../../../../include/c++/6.3.0/bits/basic_string.h:136:28
	ldr	r0, [r11, #-96]
.Ltmp417:
	.loc	12 243 14               @ /usr/bin/../lib/gcc/arm-linux-gnueabihf/6.3.0/../../../../include/c++/6.3.0/bits/char_traits.h:243:14
	strb	r5, [r0, r1]
.Ltmp418:
	.loc	41 40 17 discriminator 1 @ /root/Bela/projects/SOFAlizer-for-Bela/osc.cpp:40:17
.Ltmp339:
	sub	r5, r11, #96
.Ltmp419:
	@DEBUG_VALUE: _M_data:this <- %R5
	@DEBUG_VALUE: _M_length:this <- %R5
	@DEBUG_VALUE: _M_set_length:this <- %R5
	@DEBUG_VALUE: _M_data:this <- %R5
	@DEBUG_VALUE: _M_capacity:this <- %R5
	@DEBUG_VALUE: _M_data:this <- %R5
	add	r0, sp, #108
	mov	r1, r4
.Ltmp420:
	mov	r2, r5
	bl	_ZNK6oscpkt7Message5matchERKNSt7__cxx1112basic_stringIcSt11char_traitsIcESaIcEEE
.Ltmp340:
.Ltmp421:
	@DEBUG_VALUE: _S_copy:__s <- %R2
@ BB#3:
	@DEBUG_VALUE: _S_copy:__s <- %R2
	@DEBUG_VALUE: _M_data:this <- %R5
	@DEBUG_VALUE: _M_capacity:this <- %R5
	@DEBUG_VALUE: _M_data:this <- %R5
	@DEBUG_VALUE: _M_set_length:this <- %R5
	@DEBUG_VALUE: _M_length:this <- %R5
	@DEBUG_VALUE: _M_data:this <- %R5
	@DEBUG_VALUE: osc_on_receive:msg <- %R4
	.loc	7 136 28                @ /usr/bin/../lib/gcc/arm-linux-gnueabihf/6.3.0/../../../../include/c++/6.3.0/bits/basic_string.h:136:28
	ldr	r0, [r11, #-96]
.Ltmp422:
	@DEBUG_VALUE: deallocate:__p <- %R0
	@DEBUG_VALUE: deallocate:__p <- %R0
	.loc	5 248 32                @ ./include/oscpkt.hh:248:32
	ldr	r7, [sp, #112]
.Ltmp423:
	.loc	7 180 6                 @ /usr/bin/../lib/gcc/arm-linux-gnueabihf/6.3.0/../../../../include/c++/6.3.0/bits/basic_string.h:180:6
	cmp	r0, r6
	beq	.LBB6_5
.Ltmp424:
@ BB#4:
	@DEBUG_VALUE: deallocate:__p <- %R0
	@DEBUG_VALUE: deallocate:__p <- %R0
	@DEBUG_VALUE: _S_copy:__s <- %R2
	@DEBUG_VALUE: _M_data:this <- %R5
	@DEBUG_VALUE: _M_capacity:this <- %R5
	@DEBUG_VALUE: _M_data:this <- %R5
	@DEBUG_VALUE: _M_set_length:this <- %R5
	@DEBUG_VALUE: _M_length:this <- %R5
	@DEBUG_VALUE: _M_data:this <- %R5
	@DEBUG_VALUE: osc_on_receive:msg <- %R4
	.loc	47 110 9                @ /usr/bin/../lib/gcc/arm-linux-gnueabihf/6.3.0/../../../../include/c++/6.3.0/ext/new_allocator.h:110:9
	bl	_ZdlPv
.Ltmp425:
.LBB6_5:                                @ %_ZNSt7__cxx1112basic_stringIcSt11char_traitsIcESaIcEED2Ev.exit
	@DEBUG_VALUE: _M_data:this <- %R5
	@DEBUG_VALUE: _M_capacity:this <- %R5
	@DEBUG_VALUE: _M_data:this <- %R5
	@DEBUG_VALUE: _M_set_length:this <- %R5
	@DEBUG_VALUE: _M_length:this <- %R5
	@DEBUG_VALUE: _M_data:this <- %R5
	@DEBUG_VALUE: osc_on_receive:msg <- %R4
	.loc	41 40 12 discriminator 3 @ /root/Bela/projects/SOFAlizer-for-Bela/osc.cpp:40:12
	cmp	r7, #0
	beq	.LBB6_52
.Ltmp426:
@ BB#6:                                 @ %.noexc8.i40
	@DEBUG_VALUE: _M_data:this <- %R5
	@DEBUG_VALUE: _M_capacity:this <- %R5
	@DEBUG_VALUE: _M_data:this <- %R5
	@DEBUG_VALUE: _M_set_length:this <- %R5
	@DEBUG_VALUE: _M_length:this <- %R5
	@DEBUG_VALUE: _M_data:this <- %R5
	@DEBUG_VALUE: osc_on_receive:msg <- %R4
	@DEBUG_VALUE: basic_string:this <- %R5
	@DEBUG_VALUE: _M_local_data:this <- %R5
	@DEBUG_VALUE: _M_construct<const char *>:this <- %R5
	@DEBUG_VALUE: _M_construct_aux<const char *>:this <- %R5
	@DEBUG_VALUE: _M_construct<const char *>:this <- %R5
	.loc	7 142 51                @ /usr/bin/../lib/gcc/arm-linux-gnueabihf/6.3.0/../../../../include/c++/6.3.0/bits/basic_string.h:142:51
	add	r6, r5, #8
.Ltmp427:
	.loc	51 215 12               @ /usr/bin/../lib/gcc/arm-linux-gnueabihf/6.3.0/../../../../include/c++/6.3.0/bits/basic_string.tcc:215:12
	mov	r0, #21
.Ltmp428:
	@DEBUG_VALUE: _M_construct<const char *>:__dnew <- 21
	.loc	7 110 25                @ /usr/bin/../lib/gcc/arm-linux-gnueabihf/6.3.0/../../../../include/c++/6.3.0/bits/basic_string.h:110:25
	str	r6, [r11, #-96]
.Ltmp429:
	.loc	51 215 12               @ /usr/bin/../lib/gcc/arm-linux-gnueabihf/6.3.0/../../../../include/c++/6.3.0/bits/basic_string.tcc:215:12
	str	r0, [r11, #-64]
.Ltmp430:
	.loc	51 219 14               @ /usr/bin/../lib/gcc/arm-linux-gnueabihf/6.3.0/../../../../include/c++/6.3.0/bits/basic_string.tcc:219:14
.Ltmp342:
	sub	r1, r11, #64
.Ltmp431:
	@DEBUG_VALUE: _M_construct<const char *>:__dnew <- [%R1+0]
	mov	r0, r5
	mov	r2, #0
	mov	r7, #0
	bl	_ZNSt7__cxx1112basic_stringIcSt11char_traitsIcESaIcEE9_M_createERjj
.Ltmp432:
.Ltmp343:
.Ltmp433:
@ BB#7:                                 @ %.noexc42
	@DEBUG_VALUE: _M_construct<const char *>:this <- %R5
	@DEBUG_VALUE: _M_construct_aux<const char *>:this <- %R5
	@DEBUG_VALUE: _M_construct<const char *>:this <- %R5
	@DEBUG_VALUE: _M_local_data:this <- %R5
	@DEBUG_VALUE: basic_string:this <- %R5
	@DEBUG_VALUE: _M_data:this <- %R5
	@DEBUG_VALUE: _M_capacity:this <- %R5
	@DEBUG_VALUE: _M_data:this <- %R5
	@DEBUG_VALUE: _M_set_length:this <- %R5
	@DEBUG_VALUE: _M_length:this <- %R5
	@DEBUG_VALUE: _M_data:this <- %R5
	@DEBUG_VALUE: osc_on_receive:msg <- %R4
	.loc	12 290 33               @ /usr/bin/../lib/gcc/arm-linux-gnueabihf/6.3.0/../../../../include/c++/6.3.0/bits/char_traits.h:290:33
	movw	r2, :lower16:.L.str.7
.Ltmp434:
	.loc	51 220 18               @ /usr/bin/../lib/gcc/arm-linux-gnueabihf/6.3.0/../../../../include/c++/6.3.0/bits/basic_string.tcc:220:18
	ldr	r1, [r11, #-64]
.Ltmp435:
	@DEBUG_VALUE: _M_capacity:__capacity <- %R1
	@DEBUG_VALUE: _M_set_length:__n <- %R1
	@DEBUG_VALUE: _M_length:__length <- %R1
	@DEBUG_VALUE: _M_construct<const char *>:__dnew <- %R1
	.loc	12 290 33               @ /usr/bin/../lib/gcc/arm-linux-gnueabihf/6.3.0/../../../../include/c++/6.3.0/bits/char_traits.h:290:33
	movt	r2, :upper16:.L.str.7
	vld1.64	{d16, d17}, [r2]
	add	r2, r2, #13
.Ltmp436:
	.loc	7 128 26                @ /usr/bin/../lib/gcc/arm-linux-gnueabihf/6.3.0/../../../../include/c++/6.3.0/bits/basic_string.h:128:26
	str	r0, [r11, #-96]
.Ltmp437:
	@DEBUG_VALUE: _M_data:__p <- %R0
	.loc	12 290 33               @ /usr/bin/../lib/gcc/arm-linux-gnueabihf/6.3.0/../../../../include/c++/6.3.0/bits/char_traits.h:290:33
	vld1.8	{d18}, [r2]
	add	r2, r0, #13
.Ltmp438:
	.loc	7 160 31                @ /usr/bin/../lib/gcc/arm-linux-gnueabihf/6.3.0/../../../../include/c++/6.3.0/bits/basic_string.h:160:31
	str	r1, [r11, #-88]
.Ltmp439:
	@DEBUG_VALUE: _S_copy:__d <- %R0
	@DEBUG_VALUE: _S_copy:__n <- 21
	.loc	12 290 33               @ /usr/bin/../lib/gcc/arm-linux-gnueabihf/6.3.0/../../../../include/c++/6.3.0/bits/char_traits.h:290:33
	vst1.8	{d18}, [r2]
	vst1.8	{d16, d17}, [r0]
.Ltmp440:
	.loc	7 132 26                @ /usr/bin/../lib/gcc/arm-linux-gnueabihf/6.3.0/../../../../include/c++/6.3.0/bits/basic_string.h:132:26
	str	r1, [r11, #-92]
.Ltmp441:
	.loc	7 136 28                @ /usr/bin/../lib/gcc/arm-linux-gnueabihf/6.3.0/../../../../include/c++/6.3.0/bits/basic_string.h:136:28
	ldr	r0, [r11, #-96]
.Ltmp442:
	.loc	12 243 14               @ /usr/bin/../lib/gcc/arm-linux-gnueabihf/6.3.0/../../../../include/c++/6.3.0/bits/char_traits.h:243:14
	strb	r7, [r0, r1]
.Ltmp443:
	.loc	41 45 22 discriminator 1 @ /root/Bela/projects/SOFAlizer-for-Bela/osc.cpp:45:22
.Ltmp345:
	sub	r5, r11, #96
.Ltmp444:
	@DEBUG_VALUE: _M_data:this <- %R5
	@DEBUG_VALUE: _M_length:this <- %R5
	@DEBUG_VALUE: _M_set_length:this <- %R5
	@DEBUG_VALUE: _M_data:this <- %R5
	@DEBUG_VALUE: _M_capacity:this <- %R5
	@DEBUG_VALUE: _M_data:this <- %R5
	add	r0, sp, #96
	mov	r1, r4
.Ltmp445:
	mov	r2, r5
	bl	_ZNK6oscpkt7Message5matchERKNSt7__cxx1112basic_stringIcSt11char_traitsIcESaIcEEE
.Ltmp346:
.Ltmp446:
	@DEBUG_VALUE: _S_copy:__s <- %R2
@ BB#8:
	@DEBUG_VALUE: _S_copy:__s <- %R2
	@DEBUG_VALUE: _M_data:this <- %R5
	@DEBUG_VALUE: _M_capacity:this <- %R5
	@DEBUG_VALUE: _M_data:this <- %R5
	@DEBUG_VALUE: _M_set_length:this <- %R5
	@DEBUG_VALUE: _M_length:this <- %R5
	@DEBUG_VALUE: _M_data:this <- %R5
	@DEBUG_VALUE: osc_on_receive:msg <- %R4
	.loc	7 136 28                @ /usr/bin/../lib/gcc/arm-linux-gnueabihf/6.3.0/../../../../include/c++/6.3.0/bits/basic_string.h:136:28
	ldr	r0, [r11, #-96]
.Ltmp447:
	@DEBUG_VALUE: deallocate:__p <- %R0
	@DEBUG_VALUE: deallocate:__p <- %R0
	.loc	5 248 32                @ ./include/oscpkt.hh:248:32
	ldr	r7, [sp, #100]
.Ltmp448:
	.loc	7 180 6                 @ /usr/bin/../lib/gcc/arm-linux-gnueabihf/6.3.0/../../../../include/c++/6.3.0/bits/basic_string.h:180:6
	cmp	r0, r6
	beq	.LBB6_10
.Ltmp449:
@ BB#9:
	@DEBUG_VALUE: deallocate:__p <- %R0
	@DEBUG_VALUE: deallocate:__p <- %R0
	@DEBUG_VALUE: _S_copy:__s <- %R2
	@DEBUG_VALUE: _M_data:this <- %R5
	@DEBUG_VALUE: _M_capacity:this <- %R5
	@DEBUG_VALUE: _M_data:this <- %R5
	@DEBUG_VALUE: _M_set_length:this <- %R5
	@DEBUG_VALUE: _M_length:this <- %R5
	@DEBUG_VALUE: _M_data:this <- %R5
	@DEBUG_VALUE: osc_on_receive:msg <- %R4
	.loc	47 110 9                @ /usr/bin/../lib/gcc/arm-linux-gnueabihf/6.3.0/../../../../include/c++/6.3.0/ext/new_allocator.h:110:9
	bl	_ZdlPv
.Ltmp450:
.LBB6_10:                               @ %_ZNSt7__cxx1112basic_stringIcSt11char_traitsIcESaIcEED2Ev.exit44
	@DEBUG_VALUE: _M_data:this <- %R5
	@DEBUG_VALUE: _M_capacity:this <- %R5
	@DEBUG_VALUE: _M_data:this <- %R5
	@DEBUG_VALUE: _M_set_length:this <- %R5
	@DEBUG_VALUE: _M_length:this <- %R5
	@DEBUG_VALUE: _M_data:this <- %R5
	@DEBUG_VALUE: osc_on_receive:msg <- %R4
	.loc	41 45 17 discriminator 3 @ /root/Bela/projects/SOFAlizer-for-Bela/osc.cpp:45:17
	cmp	r7, #0
	beq	.LBB6_59
.Ltmp451:
@ BB#11:                                @ %.noexc8.i72
	@DEBUG_VALUE: _M_data:this <- %R5
	@DEBUG_VALUE: _M_capacity:this <- %R5
	@DEBUG_VALUE: _M_data:this <- %R5
	@DEBUG_VALUE: _M_set_length:this <- %R5
	@DEBUG_VALUE: _M_length:this <- %R5
	@DEBUG_VALUE: _M_data:this <- %R5
	@DEBUG_VALUE: osc_on_receive:msg <- %R4
	@DEBUG_VALUE: basic_string:this <- %R5
	@DEBUG_VALUE: _M_local_data:this <- %R5
	@DEBUG_VALUE: _M_construct<const char *>:this <- %R5
	@DEBUG_VALUE: _M_construct_aux<const char *>:this <- %R5
	@DEBUG_VALUE: _M_construct<const char *>:this <- %R5
	.loc	7 142 51                @ /usr/bin/../lib/gcc/arm-linux-gnueabihf/6.3.0/../../../../include/c++/6.3.0/bits/basic_string.h:142:51
	add	r6, r5, #8
.Ltmp452:
	.loc	51 215 12               @ /usr/bin/../lib/gcc/arm-linux-gnueabihf/6.3.0/../../../../include/c++/6.3.0/bits/basic_string.tcc:215:12
	mov	r0, #21
.Ltmp453:
	@DEBUG_VALUE: _M_construct<const char *>:__dnew <- 21
	.loc	7 110 25                @ /usr/bin/../lib/gcc/arm-linux-gnueabihf/6.3.0/../../../../include/c++/6.3.0/bits/basic_string.h:110:25
	str	r6, [r11, #-96]
.Ltmp454:
	.loc	51 215 12               @ /usr/bin/../lib/gcc/arm-linux-gnueabihf/6.3.0/../../../../include/c++/6.3.0/bits/basic_string.tcc:215:12
	str	r0, [r11, #-60]
.Ltmp455:
	.loc	51 219 14               @ /usr/bin/../lib/gcc/arm-linux-gnueabihf/6.3.0/../../../../include/c++/6.3.0/bits/basic_string.tcc:219:14
.Ltmp348:
	sub	r1, r11, #60
.Ltmp456:
	@DEBUG_VALUE: _M_construct<const char *>:__dnew <- [%R1+0]
	mov	r0, r5
	mov	r2, #0
	mov	r7, #0
	bl	_ZNSt7__cxx1112basic_stringIcSt11char_traitsIcESaIcEE9_M_createERjj
.Ltmp457:
.Ltmp349:
.Ltmp458:
@ BB#12:                                @ %.noexc74
	@DEBUG_VALUE: _M_construct<const char *>:this <- %R5
	@DEBUG_VALUE: _M_construct_aux<const char *>:this <- %R5
	@DEBUG_VALUE: _M_construct<const char *>:this <- %R5
	@DEBUG_VALUE: _M_local_data:this <- %R5
	@DEBUG_VALUE: basic_string:this <- %R5
	@DEBUG_VALUE: _M_data:this <- %R5
	@DEBUG_VALUE: _M_capacity:this <- %R5
	@DEBUG_VALUE: _M_data:this <- %R5
	@DEBUG_VALUE: _M_set_length:this <- %R5
	@DEBUG_VALUE: _M_length:this <- %R5
	@DEBUG_VALUE: _M_data:this <- %R5
	@DEBUG_VALUE: osc_on_receive:msg <- %R4
	.loc	12 290 33               @ /usr/bin/../lib/gcc/arm-linux-gnueabihf/6.3.0/../../../../include/c++/6.3.0/bits/char_traits.h:290:33
	movw	r2, :lower16:.L.str.8
.Ltmp459:
	.loc	51 220 18               @ /usr/bin/../lib/gcc/arm-linux-gnueabihf/6.3.0/../../../../include/c++/6.3.0/bits/basic_string.tcc:220:18
	ldr	r1, [r11, #-60]
.Ltmp460:
	@DEBUG_VALUE: _M_capacity:__capacity <- %R1
	@DEBUG_VALUE: _M_set_length:__n <- %R1
	@DEBUG_VALUE: _M_length:__length <- %R1
	@DEBUG_VALUE: _M_construct<const char *>:__dnew <- %R1
	.loc	12 290 33               @ /usr/bin/../lib/gcc/arm-linux-gnueabihf/6.3.0/../../../../include/c++/6.3.0/bits/char_traits.h:290:33
	movt	r2, :upper16:.L.str.8
	vld1.64	{d16, d17}, [r2]
	add	r2, r2, #13
.Ltmp461:
	.loc	7 128 26                @ /usr/bin/../lib/gcc/arm-linux-gnueabihf/6.3.0/../../../../include/c++/6.3.0/bits/basic_string.h:128:26
	str	r0, [r11, #-96]
.Ltmp462:
	@DEBUG_VALUE: _M_data:__p <- %R0
	.loc	12 290 33               @ /usr/bin/../lib/gcc/arm-linux-gnueabihf/6.3.0/../../../../include/c++/6.3.0/bits/char_traits.h:290:33
	vld1.8	{d18}, [r2]
	add	r2, r0, #13
.Ltmp463:
	.loc	7 160 31                @ /usr/bin/../lib/gcc/arm-linux-gnueabihf/6.3.0/../../../../include/c++/6.3.0/bits/basic_string.h:160:31
	str	r1, [r11, #-88]
.Ltmp464:
	@DEBUG_VALUE: _S_copy:__d <- %R0
	@DEBUG_VALUE: _S_copy:__n <- 21
	.loc	12 290 33               @ /usr/bin/../lib/gcc/arm-linux-gnueabihf/6.3.0/../../../../include/c++/6.3.0/bits/char_traits.h:290:33
	vst1.8	{d18}, [r2]
	vst1.8	{d16, d17}, [r0]
.Ltmp465:
	.loc	7 132 26                @ /usr/bin/../lib/gcc/arm-linux-gnueabihf/6.3.0/../../../../include/c++/6.3.0/bits/basic_string.h:132:26
	str	r1, [r11, #-92]
.Ltmp466:
	.loc	7 136 28                @ /usr/bin/../lib/gcc/arm-linux-gnueabihf/6.3.0/../../../../include/c++/6.3.0/bits/basic_string.h:136:28
	ldr	r0, [r11, #-96]
.Ltmp467:
	.loc	12 243 14               @ /usr/bin/../lib/gcc/arm-linux-gnueabihf/6.3.0/../../../../include/c++/6.3.0/bits/char_traits.h:243:14
	strb	r7, [r0, r1]
.Ltmp468:
	.loc	41 57 22 discriminator 1 @ /root/Bela/projects/SOFAlizer-for-Bela/osc.cpp:57:22
.Ltmp351:
	sub	r5, r11, #96
.Ltmp469:
	@DEBUG_VALUE: _M_data:this <- %R5
	@DEBUG_VALUE: _M_length:this <- %R5
	@DEBUG_VALUE: _M_set_length:this <- %R5
	@DEBUG_VALUE: _M_data:this <- %R5
	@DEBUG_VALUE: _M_capacity:this <- %R5
	@DEBUG_VALUE: _M_data:this <- %R5
	add	r0, sp, #84
	mov	r1, r4
.Ltmp470:
	mov	r2, r5
	bl	_ZNK6oscpkt7Message5matchERKNSt7__cxx1112basic_stringIcSt11char_traitsIcESaIcEEE
.Ltmp352:
.Ltmp471:
	@DEBUG_VALUE: _S_copy:__s <- %R2
@ BB#13:
	@DEBUG_VALUE: _S_copy:__s <- %R2
	@DEBUG_VALUE: _M_data:this <- %R5
	@DEBUG_VALUE: _M_capacity:this <- %R5
	@DEBUG_VALUE: _M_data:this <- %R5
	@DEBUG_VALUE: _M_set_length:this <- %R5
	@DEBUG_VALUE: _M_length:this <- %R5
	@DEBUG_VALUE: _M_data:this <- %R5
	@DEBUG_VALUE: osc_on_receive:msg <- %R4
	.loc	7 136 28                @ /usr/bin/../lib/gcc/arm-linux-gnueabihf/6.3.0/../../../../include/c++/6.3.0/bits/basic_string.h:136:28
	ldr	r0, [r11, #-96]
.Ltmp472:
	@DEBUG_VALUE: deallocate:__p <- %R0
	@DEBUG_VALUE: deallocate:__p <- %R0
	.loc	5 248 32                @ ./include/oscpkt.hh:248:32
	ldr	r7, [sp, #88]
.Ltmp473:
	.loc	7 180 6                 @ /usr/bin/../lib/gcc/arm-linux-gnueabihf/6.3.0/../../../../include/c++/6.3.0/bits/basic_string.h:180:6
	cmp	r0, r6
	beq	.LBB6_15
.Ltmp474:
@ BB#14:
	@DEBUG_VALUE: deallocate:__p <- %R0
	@DEBUG_VALUE: deallocate:__p <- %R0
	@DEBUG_VALUE: _S_copy:__s <- %R2
	@DEBUG_VALUE: _M_data:this <- %R5
	@DEBUG_VALUE: _M_capacity:this <- %R5
	@DEBUG_VALUE: _M_data:this <- %R5
	@DEBUG_VALUE: _M_set_length:this <- %R5
	@DEBUG_VALUE: _M_length:this <- %R5
	@DEBUG_VALUE: _M_data:this <- %R5
	@DEBUG_VALUE: osc_on_receive:msg <- %R4
	.loc	47 110 9                @ /usr/bin/../lib/gcc/arm-linux-gnueabihf/6.3.0/../../../../include/c++/6.3.0/ext/new_allocator.h:110:9
	bl	_ZdlPv
.Ltmp475:
.LBB6_15:                               @ %_ZNSt7__cxx1112basic_stringIcSt11char_traitsIcESaIcEED2Ev.exit76
	@DEBUG_VALUE: _M_data:this <- %R5
	@DEBUG_VALUE: _M_capacity:this <- %R5
	@DEBUG_VALUE: _M_data:this <- %R5
	@DEBUG_VALUE: _M_set_length:this <- %R5
	@DEBUG_VALUE: _M_length:this <- %R5
	@DEBUG_VALUE: _M_data:this <- %R5
	@DEBUG_VALUE: osc_on_receive:msg <- %R4
	.loc	41 57 17 discriminator 3 @ /root/Bela/projects/SOFAlizer-for-Bela/osc.cpp:57:17
	cmp	r7, #0
	beq	.LBB6_70
.Ltmp476:
@ BB#16:                                @ %.noexc8.i124
	@DEBUG_VALUE: _M_data:this <- %R5
	@DEBUG_VALUE: _M_capacity:this <- %R5
	@DEBUG_VALUE: _M_data:this <- %R5
	@DEBUG_VALUE: _M_set_length:this <- %R5
	@DEBUG_VALUE: _M_length:this <- %R5
	@DEBUG_VALUE: _M_data:this <- %R5
	@DEBUG_VALUE: osc_on_receive:msg <- %R4
	@DEBUG_VALUE: basic_string:this <- %R5
	@DEBUG_VALUE: _M_local_data:this <- %R5
	@DEBUG_VALUE: _M_construct<const char *>:this <- %R5
	@DEBUG_VALUE: _M_construct_aux<const char *>:this <- %R5
	@DEBUG_VALUE: _M_construct<const char *>:this <- %R5
	.loc	7 142 51                @ /usr/bin/../lib/gcc/arm-linux-gnueabihf/6.3.0/../../../../include/c++/6.3.0/bits/basic_string.h:142:51
	add	r6, r5, #8
.Ltmp477:
	.loc	51 215 12               @ /usr/bin/../lib/gcc/arm-linux-gnueabihf/6.3.0/../../../../include/c++/6.3.0/bits/basic_string.tcc:215:12
	mov	r0, #20
.Ltmp478:
	@DEBUG_VALUE: _M_construct<const char *>:__dnew <- 20
	.loc	7 110 25                @ /usr/bin/../lib/gcc/arm-linux-gnueabihf/6.3.0/../../../../include/c++/6.3.0/bits/basic_string.h:110:25
	str	r6, [r11, #-96]
.Ltmp479:
	.loc	51 215 12               @ /usr/bin/../lib/gcc/arm-linux-gnueabihf/6.3.0/../../../../include/c++/6.3.0/bits/basic_string.tcc:215:12
	str	r0, [r11, #-56]
.Ltmp480:
	.loc	51 219 14               @ /usr/bin/../lib/gcc/arm-linux-gnueabihf/6.3.0/../../../../include/c++/6.3.0/bits/basic_string.tcc:219:14
.Ltmp354:
	sub	r1, r11, #56
.Ltmp481:
	@DEBUG_VALUE: _M_construct<const char *>:__dnew <- [%R1+0]
	mov	r0, r5
	mov	r2, #0
	mov	r7, #0
	bl	_ZNSt7__cxx1112basic_stringIcSt11char_traitsIcESaIcEE9_M_createERjj
.Ltmp482:
.Ltmp355:
.Ltmp483:
@ BB#17:                                @ %.noexc126
	@DEBUG_VALUE: _M_construct<const char *>:this <- %R5
	@DEBUG_VALUE: _M_construct_aux<const char *>:this <- %R5
	@DEBUG_VALUE: _M_construct<const char *>:this <- %R5
	@DEBUG_VALUE: _M_local_data:this <- %R5
	@DEBUG_VALUE: basic_string:this <- %R5
	@DEBUG_VALUE: _M_data:this <- %R5
	@DEBUG_VALUE: _M_capacity:this <- %R5
	@DEBUG_VALUE: _M_data:this <- %R5
	@DEBUG_VALUE: _M_set_length:this <- %R5
	@DEBUG_VALUE: _M_length:this <- %R5
	@DEBUG_VALUE: _M_data:this <- %R5
	@DEBUG_VALUE: osc_on_receive:msg <- %R4
	.loc	12 290 33               @ /usr/bin/../lib/gcc/arm-linux-gnueabihf/6.3.0/../../../../include/c++/6.3.0/bits/char_traits.h:290:33
	movw	r2, :lower16:.L.str.9
.Ltmp484:
	.loc	51 220 18               @ /usr/bin/../lib/gcc/arm-linux-gnueabihf/6.3.0/../../../../include/c++/6.3.0/bits/basic_string.tcc:220:18
	ldr	r1, [r11, #-56]
.Ltmp485:
	@DEBUG_VALUE: _M_capacity:__capacity <- %R1
	@DEBUG_VALUE: _M_set_length:__n <- %R1
	@DEBUG_VALUE: _M_length:__length <- %R1
	@DEBUG_VALUE: _M_construct<const char *>:__dnew <- %R1
	.loc	12 290 33               @ /usr/bin/../lib/gcc/arm-linux-gnueabihf/6.3.0/../../../../include/c++/6.3.0/bits/char_traits.h:290:33
	movt	r2, :upper16:.L.str.9
	vld1.64	{d16, d17}, [r2]
	movw	r2, #28018
.Ltmp486:
	.loc	7 128 26                @ /usr/bin/../lib/gcc/arm-linux-gnueabihf/6.3.0/../../../../include/c++/6.3.0/bits/basic_string.h:128:26
	str	r0, [r11, #-96]
.Ltmp487:
	@DEBUG_VALUE: _M_data:__p <- %R0
	.loc	12 290 33               @ /usr/bin/../lib/gcc/arm-linux-gnueabihf/6.3.0/../../../../include/c++/6.3.0/bits/char_traits.h:290:33
	movt	r2, #12335
.Ltmp488:
	.loc	7 160 31                @ /usr/bin/../lib/gcc/arm-linux-gnueabihf/6.3.0/../../../../include/c++/6.3.0/bits/basic_string.h:160:31
	str	r1, [r11, #-88]
.Ltmp489:
	@DEBUG_VALUE: _S_copy:__d <- %R0
	@DEBUG_VALUE: _S_copy:__n <- 20
	.loc	12 290 33               @ /usr/bin/../lib/gcc/arm-linux-gnueabihf/6.3.0/../../../../include/c++/6.3.0/bits/char_traits.h:290:33
	vst1.8	{d16, d17}, [r0]!
.Ltmp490:
	str	r2, [r0]
.Ltmp491:
	.loc	7 132 26                @ /usr/bin/../lib/gcc/arm-linux-gnueabihf/6.3.0/../../../../include/c++/6.3.0/bits/basic_string.h:132:26
	str	r1, [r11, #-92]
.Ltmp492:
	.loc	7 136 28                @ /usr/bin/../lib/gcc/arm-linux-gnueabihf/6.3.0/../../../../include/c++/6.3.0/bits/basic_string.h:136:28
	ldr	r0, [r11, #-96]
.Ltmp493:
	.loc	12 243 14               @ /usr/bin/../lib/gcc/arm-linux-gnueabihf/6.3.0/../../../../include/c++/6.3.0/bits/char_traits.h:243:14
	strb	r7, [r0, r1]
.Ltmp494:
	.loc	41 68 22 discriminator 1 @ /root/Bela/projects/SOFAlizer-for-Bela/osc.cpp:68:22
.Ltmp357:
	sub	r5, r11, #96
.Ltmp495:
	@DEBUG_VALUE: _M_data:this <- %R5
	@DEBUG_VALUE: _M_length:this <- %R5
	@DEBUG_VALUE: _M_set_length:this <- %R5
	@DEBUG_VALUE: _M_data:this <- %R5
	@DEBUG_VALUE: _M_capacity:this <- %R5
	@DEBUG_VALUE: _M_data:this <- %R5
	add	r0, sp, #72
	mov	r1, r4
.Ltmp496:
	mov	r2, r5
	bl	_ZNK6oscpkt7Message5matchERKNSt7__cxx1112basic_stringIcSt11char_traitsIcESaIcEEE
.Ltmp358:
.Ltmp497:
	@DEBUG_VALUE: _S_copy:__s <- %R2
@ BB#18:
	@DEBUG_VALUE: _S_copy:__s <- %R2
	@DEBUG_VALUE: _M_data:this <- %R5
	@DEBUG_VALUE: _M_capacity:this <- %R5
	@DEBUG_VALUE: _M_data:this <- %R5
	@DEBUG_VALUE: _M_set_length:this <- %R5
	@DEBUG_VALUE: _M_length:this <- %R5
	@DEBUG_VALUE: _M_data:this <- %R5
	@DEBUG_VALUE: osc_on_receive:msg <- %R4
	.loc	7 136 28                @ /usr/bin/../lib/gcc/arm-linux-gnueabihf/6.3.0/../../../../include/c++/6.3.0/bits/basic_string.h:136:28
	ldr	r0, [r11, #-96]
.Ltmp498:
	@DEBUG_VALUE: deallocate:__p <- %R0
	@DEBUG_VALUE: deallocate:__p <- %R0
	.loc	5 248 32                @ ./include/oscpkt.hh:248:32
	ldr	r7, [sp, #76]
.Ltmp499:
	.loc	7 180 6                 @ /usr/bin/../lib/gcc/arm-linux-gnueabihf/6.3.0/../../../../include/c++/6.3.0/bits/basic_string.h:180:6
	cmp	r0, r6
	beq	.LBB6_20
.Ltmp500:
@ BB#19:
	@DEBUG_VALUE: deallocate:__p <- %R0
	@DEBUG_VALUE: deallocate:__p <- %R0
	@DEBUG_VALUE: _S_copy:__s <- %R2
	@DEBUG_VALUE: _M_data:this <- %R5
	@DEBUG_VALUE: _M_capacity:this <- %R5
	@DEBUG_VALUE: _M_data:this <- %R5
	@DEBUG_VALUE: _M_set_length:this <- %R5
	@DEBUG_VALUE: _M_length:this <- %R5
	@DEBUG_VALUE: _M_data:this <- %R5
	@DEBUG_VALUE: osc_on_receive:msg <- %R4
	.loc	47 110 9                @ /usr/bin/../lib/gcc/arm-linux-gnueabihf/6.3.0/../../../../include/c++/6.3.0/ext/new_allocator.h:110:9
	bl	_ZdlPv
.Ltmp501:
.LBB6_20:                               @ %_ZNSt7__cxx1112basic_stringIcSt11char_traitsIcESaIcEED2Ev.exit128
	@DEBUG_VALUE: _M_data:this <- %R5
	@DEBUG_VALUE: _M_capacity:this <- %R5
	@DEBUG_VALUE: _M_data:this <- %R5
	@DEBUG_VALUE: _M_set_length:this <- %R5
	@DEBUG_VALUE: _M_length:this <- %R5
	@DEBUG_VALUE: _M_data:this <- %R5
	@DEBUG_VALUE: osc_on_receive:msg <- %R4
	.loc	41 68 17 discriminator 3 @ /root/Bela/projects/SOFAlizer-for-Bela/osc.cpp:68:17
	cmp	r7, #0
	beq	.LBB6_83
.Ltmp502:
@ BB#21:                                @ %.noexc8.i181
	@DEBUG_VALUE: _M_data:this <- %R5
	@DEBUG_VALUE: _M_capacity:this <- %R5
	@DEBUG_VALUE: _M_data:this <- %R5
	@DEBUG_VALUE: _M_set_length:this <- %R5
	@DEBUG_VALUE: _M_length:this <- %R5
	@DEBUG_VALUE: _M_data:this <- %R5
	@DEBUG_VALUE: osc_on_receive:msg <- %R4
	@DEBUG_VALUE: basic_string:this <- %R5
	@DEBUG_VALUE: _M_local_data:this <- %R5
	@DEBUG_VALUE: _M_construct<const char *>:this <- %R5
	@DEBUG_VALUE: _M_construct_aux<const char *>:this <- %R5
	@DEBUG_VALUE: _M_construct<const char *>:this <- %R5
	.loc	7 142 51                @ /usr/bin/../lib/gcc/arm-linux-gnueabihf/6.3.0/../../../../include/c++/6.3.0/bits/basic_string.h:142:51
	add	r6, r5, #8
.Ltmp503:
	.loc	51 215 12               @ /usr/bin/../lib/gcc/arm-linux-gnueabihf/6.3.0/../../../../include/c++/6.3.0/bits/basic_string.tcc:215:12
	mov	r0, #20
.Ltmp504:
	@DEBUG_VALUE: _M_construct<const char *>:__dnew <- 20
	.loc	7 110 25                @ /usr/bin/../lib/gcc/arm-linux-gnueabihf/6.3.0/../../../../include/c++/6.3.0/bits/basic_string.h:110:25
	str	r6, [r11, #-96]
.Ltmp505:
	.loc	51 215 12               @ /usr/bin/../lib/gcc/arm-linux-gnueabihf/6.3.0/../../../../include/c++/6.3.0/bits/basic_string.tcc:215:12
	str	r0, [r11, #-52]
.Ltmp506:
	.loc	51 219 14               @ /usr/bin/../lib/gcc/arm-linux-gnueabihf/6.3.0/../../../../include/c++/6.3.0/bits/basic_string.tcc:219:14
.Ltmp360:
	sub	r1, r11, #52
.Ltmp507:
	@DEBUG_VALUE: _M_construct<const char *>:__dnew <- [%R1+0]
	mov	r0, r5
	mov	r2, #0
	mov	r7, #0
	bl	_ZNSt7__cxx1112basic_stringIcSt11char_traitsIcESaIcEE9_M_createERjj
.Ltmp508:
.Ltmp361:
.Ltmp509:
@ BB#22:                                @ %.noexc183
	@DEBUG_VALUE: _M_construct<const char *>:this <- %R5
	@DEBUG_VALUE: _M_construct_aux<const char *>:this <- %R5
	@DEBUG_VALUE: _M_construct<const char *>:this <- %R5
	@DEBUG_VALUE: _M_local_data:this <- %R5
	@DEBUG_VALUE: basic_string:this <- %R5
	@DEBUG_VALUE: _M_data:this <- %R5
	@DEBUG_VALUE: _M_capacity:this <- %R5
	@DEBUG_VALUE: _M_data:this <- %R5
	@DEBUG_VALUE: _M_set_length:this <- %R5
	@DEBUG_VALUE: _M_length:this <- %R5
	@DEBUG_VALUE: _M_data:this <- %R5
	@DEBUG_VALUE: osc_on_receive:msg <- %R4
	.loc	12 290 33               @ /usr/bin/../lib/gcc/arm-linux-gnueabihf/6.3.0/../../../../include/c++/6.3.0/bits/char_traits.h:290:33
	movw	r2, :lower16:.L.str.10
.Ltmp510:
	.loc	51 220 18               @ /usr/bin/../lib/gcc/arm-linux-gnueabihf/6.3.0/../../../../include/c++/6.3.0/bits/basic_string.tcc:220:18
	ldr	r1, [r11, #-52]
.Ltmp511:
	@DEBUG_VALUE: _M_capacity:__capacity <- %R1
	@DEBUG_VALUE: _M_set_length:__n <- %R1
	@DEBUG_VALUE: _M_length:__length <- %R1
	@DEBUG_VALUE: _M_construct<const char *>:__dnew <- %R1
	.loc	12 290 33               @ /usr/bin/../lib/gcc/arm-linux-gnueabihf/6.3.0/../../../../include/c++/6.3.0/bits/char_traits.h:290:33
	movt	r2, :upper16:.L.str.10
	vld1.64	{d16, d17}, [r2]
	movw	r2, #28018
.Ltmp512:
	.loc	7 128 26                @ /usr/bin/../lib/gcc/arm-linux-gnueabihf/6.3.0/../../../../include/c++/6.3.0/bits/basic_string.h:128:26
	str	r0, [r11, #-96]
.Ltmp513:
	@DEBUG_VALUE: _M_data:__p <- %R0
	.loc	12 290 33               @ /usr/bin/../lib/gcc/arm-linux-gnueabihf/6.3.0/../../../../include/c++/6.3.0/bits/char_traits.h:290:33
	movt	r2, #12591
.Ltmp514:
	.loc	7 160 31                @ /usr/bin/../lib/gcc/arm-linux-gnueabihf/6.3.0/../../../../include/c++/6.3.0/bits/basic_string.h:160:31
	str	r1, [r11, #-88]
.Ltmp515:
	@DEBUG_VALUE: _S_copy:__d <- %R0
	@DEBUG_VALUE: _S_copy:__n <- 20
	.loc	12 290 33               @ /usr/bin/../lib/gcc/arm-linux-gnueabihf/6.3.0/../../../../include/c++/6.3.0/bits/char_traits.h:290:33
	vst1.8	{d16, d17}, [r0]!
.Ltmp516:
	str	r2, [r0]
.Ltmp517:
	.loc	7 132 26                @ /usr/bin/../lib/gcc/arm-linux-gnueabihf/6.3.0/../../../../include/c++/6.3.0/bits/basic_string.h:132:26
	str	r1, [r11, #-92]
.Ltmp518:
	.loc	7 136 28                @ /usr/bin/../lib/gcc/arm-linux-gnueabihf/6.3.0/../../../../include/c++/6.3.0/bits/basic_string.h:136:28
	ldr	r0, [r11, #-96]
.Ltmp519:
	.loc	12 243 14               @ /usr/bin/../lib/gcc/arm-linux-gnueabihf/6.3.0/../../../../include/c++/6.3.0/bits/char_traits.h:243:14
	strb	r7, [r0, r1]
.Ltmp520:
	.loc	41 79 22 discriminator 1 @ /root/Bela/projects/SOFAlizer-for-Bela/osc.cpp:79:22
.Ltmp363:
	sub	r5, r11, #96
.Ltmp521:
	@DEBUG_VALUE: _M_data:this <- %R5
	@DEBUG_VALUE: _M_length:this <- %R5
	@DEBUG_VALUE: _M_set_length:this <- %R5
	@DEBUG_VALUE: _M_data:this <- %R5
	@DEBUG_VALUE: _M_capacity:this <- %R5
	@DEBUG_VALUE: _M_data:this <- %R5
	add	r0, sp, #60
	mov	r1, r4
.Ltmp522:
	mov	r2, r5
	bl	_ZNK6oscpkt7Message5matchERKNSt7__cxx1112basic_stringIcSt11char_traitsIcESaIcEEE
.Ltmp364:
.Ltmp523:
	@DEBUG_VALUE: _S_copy:__s <- %R2
@ BB#23:
	@DEBUG_VALUE: _S_copy:__s <- %R2
	@DEBUG_VALUE: _M_data:this <- %R5
	@DEBUG_VALUE: _M_capacity:this <- %R5
	@DEBUG_VALUE: _M_data:this <- %R5
	@DEBUG_VALUE: _M_set_length:this <- %R5
	@DEBUG_VALUE: _M_length:this <- %R5
	@DEBUG_VALUE: _M_data:this <- %R5
	@DEBUG_VALUE: osc_on_receive:msg <- %R4
	.loc	7 136 28                @ /usr/bin/../lib/gcc/arm-linux-gnueabihf/6.3.0/../../../../include/c++/6.3.0/bits/basic_string.h:136:28
	ldr	r0, [r11, #-96]
.Ltmp524:
	@DEBUG_VALUE: deallocate:__p <- %R0
	@DEBUG_VALUE: deallocate:__p <- %R0
	.loc	5 248 32                @ ./include/oscpkt.hh:248:32
	ldr	r7, [sp, #64]
.Ltmp525:
	.loc	7 180 6                 @ /usr/bin/../lib/gcc/arm-linux-gnueabihf/6.3.0/../../../../include/c++/6.3.0/bits/basic_string.h:180:6
	cmp	r0, r6
	beq	.LBB6_25
.Ltmp526:
@ BB#24:
	@DEBUG_VALUE: deallocate:__p <- %R0
	@DEBUG_VALUE: deallocate:__p <- %R0
	@DEBUG_VALUE: _S_copy:__s <- %R2
	@DEBUG_VALUE: _M_data:this <- %R5
	@DEBUG_VALUE: _M_capacity:this <- %R5
	@DEBUG_VALUE: _M_data:this <- %R5
	@DEBUG_VALUE: _M_set_length:this <- %R5
	@DEBUG_VALUE: _M_length:this <- %R5
	@DEBUG_VALUE: _M_data:this <- %R5
	@DEBUG_VALUE: osc_on_receive:msg <- %R4
	.loc	47 110 9                @ /usr/bin/../lib/gcc/arm-linux-gnueabihf/6.3.0/../../../../include/c++/6.3.0/ext/new_allocator.h:110:9
	bl	_ZdlPv
.Ltmp527:
.LBB6_25:                               @ %_ZNSt7__cxx1112basic_stringIcSt11char_traitsIcESaIcEED2Ev.exit185
	@DEBUG_VALUE: _M_data:this <- %R5
	@DEBUG_VALUE: _M_capacity:this <- %R5
	@DEBUG_VALUE: _M_data:this <- %R5
	@DEBUG_VALUE: _M_set_length:this <- %R5
	@DEBUG_VALUE: _M_length:this <- %R5
	@DEBUG_VALUE: _M_data:this <- %R5
	@DEBUG_VALUE: osc_on_receive:msg <- %R4
	.loc	41 79 17 discriminator 3 @ /root/Bela/projects/SOFAlizer-for-Bela/osc.cpp:79:17
	cmp	r7, #0
	beq	.LBB6_91
.Ltmp528:
@ BB#26:                                @ %.noexc8.i231
	@DEBUG_VALUE: _M_data:this <- %R5
	@DEBUG_VALUE: _M_capacity:this <- %R5
	@DEBUG_VALUE: _M_data:this <- %R5
	@DEBUG_VALUE: _M_set_length:this <- %R5
	@DEBUG_VALUE: _M_length:this <- %R5
	@DEBUG_VALUE: _M_data:this <- %R5
	@DEBUG_VALUE: osc_on_receive:msg <- %R4
	@DEBUG_VALUE: basic_string:this <- %R5
	@DEBUG_VALUE: _M_local_data:this <- %R5
	@DEBUG_VALUE: _M_construct<const char *>:this <- %R5
	@DEBUG_VALUE: _M_construct_aux<const char *>:this <- %R5
	@DEBUG_VALUE: _M_construct<const char *>:this <- %R5
	.loc	7 142 51                @ /usr/bin/../lib/gcc/arm-linux-gnueabihf/6.3.0/../../../../include/c++/6.3.0/bits/basic_string.h:142:51
	add	r6, r5, #8
.Ltmp529:
	.loc	51 215 12               @ /usr/bin/../lib/gcc/arm-linux-gnueabihf/6.3.0/../../../../include/c++/6.3.0/bits/basic_string.tcc:215:12
	mov	r0, #21
.Ltmp530:
	@DEBUG_VALUE: _M_construct<const char *>:__dnew <- 21
	.loc	7 110 25                @ /usr/bin/../lib/gcc/arm-linux-gnueabihf/6.3.0/../../../../include/c++/6.3.0/bits/basic_string.h:110:25
	str	r6, [r11, #-96]
.Ltmp531:
	.loc	51 215 12               @ /usr/bin/../lib/gcc/arm-linux-gnueabihf/6.3.0/../../../../include/c++/6.3.0/bits/basic_string.tcc:215:12
	str	r0, [r11, #-44]
.Ltmp532:
	.loc	51 219 14               @ /usr/bin/../lib/gcc/arm-linux-gnueabihf/6.3.0/../../../../include/c++/6.3.0/bits/basic_string.tcc:219:14
.Ltmp366:
	sub	r1, r11, #44
.Ltmp533:
	@DEBUG_VALUE: _M_construct<const char *>:__dnew <- [%R1+0]
	mov	r0, r5
	mov	r2, #0
	mov	r7, #0
	bl	_ZNSt7__cxx1112basic_stringIcSt11char_traitsIcESaIcEE9_M_createERjj
.Ltmp534:
.Ltmp367:
.Ltmp535:
@ BB#27:                                @ %.noexc233
	@DEBUG_VALUE: _M_construct<const char *>:this <- %R5
	@DEBUG_VALUE: _M_construct_aux<const char *>:this <- %R5
	@DEBUG_VALUE: _M_construct<const char *>:this <- %R5
	@DEBUG_VALUE: _M_local_data:this <- %R5
	@DEBUG_VALUE: basic_string:this <- %R5
	@DEBUG_VALUE: _M_data:this <- %R5
	@DEBUG_VALUE: _M_capacity:this <- %R5
	@DEBUG_VALUE: _M_data:this <- %R5
	@DEBUG_VALUE: _M_set_length:this <- %R5
	@DEBUG_VALUE: _M_length:this <- %R5
	@DEBUG_VALUE: _M_data:this <- %R5
	@DEBUG_VALUE: osc_on_receive:msg <- %R4
	.loc	12 290 33               @ /usr/bin/../lib/gcc/arm-linux-gnueabihf/6.3.0/../../../../include/c++/6.3.0/bits/char_traits.h:290:33
	movw	r2, :lower16:.L.str.11
.Ltmp536:
	.loc	51 220 18               @ /usr/bin/../lib/gcc/arm-linux-gnueabihf/6.3.0/../../../../include/c++/6.3.0/bits/basic_string.tcc:220:18
	ldr	r1, [r11, #-44]
.Ltmp537:
	@DEBUG_VALUE: _M_capacity:__capacity <- %R1
	@DEBUG_VALUE: _M_set_length:__n <- %R1
	@DEBUG_VALUE: _M_length:__length <- %R1
	@DEBUG_VALUE: _M_construct<const char *>:__dnew <- %R1
	.loc	12 290 33               @ /usr/bin/../lib/gcc/arm-linux-gnueabihf/6.3.0/../../../../include/c++/6.3.0/bits/char_traits.h:290:33
	movt	r2, :upper16:.L.str.11
	vld1.64	{d16, d17}, [r2]
	add	r2, r2, #13
.Ltmp538:
	.loc	7 128 26                @ /usr/bin/../lib/gcc/arm-linux-gnueabihf/6.3.0/../../../../include/c++/6.3.0/bits/basic_string.h:128:26
	str	r0, [r11, #-96]
.Ltmp539:
	@DEBUG_VALUE: _M_data:__p <- %R0
	.loc	12 290 33               @ /usr/bin/../lib/gcc/arm-linux-gnueabihf/6.3.0/../../../../include/c++/6.3.0/bits/char_traits.h:290:33
	vld1.8	{d18}, [r2]
	add	r2, r0, #13
.Ltmp540:
	.loc	7 160 31                @ /usr/bin/../lib/gcc/arm-linux-gnueabihf/6.3.0/../../../../include/c++/6.3.0/bits/basic_string.h:160:31
	str	r1, [r11, #-88]
.Ltmp541:
	@DEBUG_VALUE: _S_copy:__d <- %R0
	@DEBUG_VALUE: _S_copy:__n <- 21
	.loc	12 290 33               @ /usr/bin/../lib/gcc/arm-linux-gnueabihf/6.3.0/../../../../include/c++/6.3.0/bits/char_traits.h:290:33
	vst1.8	{d18}, [r2]
	vst1.8	{d16, d17}, [r0]
.Ltmp542:
	.loc	7 132 26                @ /usr/bin/../lib/gcc/arm-linux-gnueabihf/6.3.0/../../../../include/c++/6.3.0/bits/basic_string.h:132:26
	str	r1, [r11, #-92]
.Ltmp543:
	.loc	7 136 28                @ /usr/bin/../lib/gcc/arm-linux-gnueabihf/6.3.0/../../../../include/c++/6.3.0/bits/basic_string.h:136:28
	ldr	r0, [r11, #-96]
.Ltmp544:
	.loc	12 243 14               @ /usr/bin/../lib/gcc/arm-linux-gnueabihf/6.3.0/../../../../include/c++/6.3.0/bits/char_traits.h:243:14
	strb	r7, [r0, r1]
.Ltmp545:
	.loc	41 90 22 discriminator 1 @ /root/Bela/projects/SOFAlizer-for-Bela/osc.cpp:90:22
.Ltmp369:
	sub	r5, r11, #96
.Ltmp546:
	@DEBUG_VALUE: _M_data:this <- %R5
	@DEBUG_VALUE: _M_length:this <- %R5
	@DEBUG_VALUE: _M_set_length:this <- %R5
	@DEBUG_VALUE: _M_data:this <- %R5
	@DEBUG_VALUE: _M_capacity:this <- %R5
	@DEBUG_VALUE: _M_data:this <- %R5
	add	r0, sp, #48
	mov	r1, r4
.Ltmp547:
	mov	r2, r5
	bl	_ZNK6oscpkt7Message5matchERKNSt7__cxx1112basic_stringIcSt11char_traitsIcESaIcEEE
.Ltmp370:
.Ltmp548:
	@DEBUG_VALUE: _S_copy:__s <- %R2
@ BB#28:
	@DEBUG_VALUE: _S_copy:__s <- %R2
	@DEBUG_VALUE: _M_data:this <- %R5
	@DEBUG_VALUE: _M_capacity:this <- %R5
	@DEBUG_VALUE: _M_data:this <- %R5
	@DEBUG_VALUE: _M_set_length:this <- %R5
	@DEBUG_VALUE: _M_length:this <- %R5
	@DEBUG_VALUE: _M_data:this <- %R5
	@DEBUG_VALUE: osc_on_receive:msg <- %R4
	.loc	7 136 28                @ /usr/bin/../lib/gcc/arm-linux-gnueabihf/6.3.0/../../../../include/c++/6.3.0/bits/basic_string.h:136:28
	ldr	r0, [r11, #-96]
.Ltmp549:
	@DEBUG_VALUE: deallocate:__p <- %R0
	@DEBUG_VALUE: deallocate:__p <- %R0
	.loc	5 248 32                @ ./include/oscpkt.hh:248:32
	ldr	r7, [sp, #52]
.Ltmp550:
	.loc	7 180 6                 @ /usr/bin/../lib/gcc/arm-linux-gnueabihf/6.3.0/../../../../include/c++/6.3.0/bits/basic_string.h:180:6
	cmp	r0, r6
	beq	.LBB6_30
.Ltmp551:
@ BB#29:
	@DEBUG_VALUE: deallocate:__p <- %R0
	@DEBUG_VALUE: deallocate:__p <- %R0
	@DEBUG_VALUE: _S_copy:__s <- %R2
	@DEBUG_VALUE: _M_data:this <- %R5
	@DEBUG_VALUE: _M_capacity:this <- %R5
	@DEBUG_VALUE: _M_data:this <- %R5
	@DEBUG_VALUE: _M_set_length:this <- %R5
	@DEBUG_VALUE: _M_length:this <- %R5
	@DEBUG_VALUE: _M_data:this <- %R5
	@DEBUG_VALUE: osc_on_receive:msg <- %R4
	.loc	47 110 9                @ /usr/bin/../lib/gcc/arm-linux-gnueabihf/6.3.0/../../../../include/c++/6.3.0/ext/new_allocator.h:110:9
	bl	_ZdlPv
.Ltmp552:
.LBB6_30:                               @ %_ZNSt7__cxx1112basic_stringIcSt11char_traitsIcESaIcEED2Ev.exit224
	@DEBUG_VALUE: _M_data:this <- %R5
	@DEBUG_VALUE: _M_capacity:this <- %R5
	@DEBUG_VALUE: _M_data:this <- %R5
	@DEBUG_VALUE: _M_set_length:this <- %R5
	@DEBUG_VALUE: _M_length:this <- %R5
	@DEBUG_VALUE: _M_data:this <- %R5
	@DEBUG_VALUE: osc_on_receive:msg <- %R4
	.loc	41 90 17 discriminator 3 @ /root/Bela/projects/SOFAlizer-for-Bela/osc.cpp:90:17
	cmp	r7, #0
	beq	.LBB6_97
.Ltmp553:
@ BB#31:                                @ %.noexc8.i188
	@DEBUG_VALUE: _M_data:this <- %R5
	@DEBUG_VALUE: _M_capacity:this <- %R5
	@DEBUG_VALUE: _M_data:this <- %R5
	@DEBUG_VALUE: _M_set_length:this <- %R5
	@DEBUG_VALUE: _M_length:this <- %R5
	@DEBUG_VALUE: _M_data:this <- %R5
	@DEBUG_VALUE: osc_on_receive:msg <- %R4
	@DEBUG_VALUE: basic_string:this <- %R5
	@DEBUG_VALUE: _M_local_data:this <- %R5
	@DEBUG_VALUE: _M_construct<const char *>:this <- %R5
	@DEBUG_VALUE: _M_construct_aux<const char *>:this <- %R5
	@DEBUG_VALUE: _M_construct<const char *>:this <- %R5
	.loc	7 142 51                @ /usr/bin/../lib/gcc/arm-linux-gnueabihf/6.3.0/../../../../include/c++/6.3.0/bits/basic_string.h:142:51
	add	r6, r5, #8
.Ltmp554:
	.loc	51 215 12               @ /usr/bin/../lib/gcc/arm-linux-gnueabihf/6.3.0/../../../../include/c++/6.3.0/bits/basic_string.tcc:215:12
	mov	r0, #21
.Ltmp555:
	@DEBUG_VALUE: _M_construct<const char *>:__dnew <- 21
	.loc	7 110 25                @ /usr/bin/../lib/gcc/arm-linux-gnueabihf/6.3.0/../../../../include/c++/6.3.0/bits/basic_string.h:110:25
	str	r6, [r11, #-96]
.Ltmp556:
	.loc	51 215 12               @ /usr/bin/../lib/gcc/arm-linux-gnueabihf/6.3.0/../../../../include/c++/6.3.0/bits/basic_string.tcc:215:12
	str	r0, [r11, #-48]
.Ltmp557:
	.loc	51 219 14               @ /usr/bin/../lib/gcc/arm-linux-gnueabihf/6.3.0/../../../../include/c++/6.3.0/bits/basic_string.tcc:219:14
.Ltmp372:
	sub	r1, r11, #48
.Ltmp558:
	@DEBUG_VALUE: _M_construct<const char *>:__dnew <- [%R1+0]
	mov	r0, r5
	mov	r2, #0
	mov	r7, #0
	bl	_ZNSt7__cxx1112basic_stringIcSt11char_traitsIcESaIcEE9_M_createERjj
.Ltmp559:
.Ltmp373:
.Ltmp560:
@ BB#32:                                @ %.noexc190
	@DEBUG_VALUE: _M_construct<const char *>:this <- %R5
	@DEBUG_VALUE: _M_construct_aux<const char *>:this <- %R5
	@DEBUG_VALUE: _M_construct<const char *>:this <- %R5
	@DEBUG_VALUE: _M_local_data:this <- %R5
	@DEBUG_VALUE: basic_string:this <- %R5
	@DEBUG_VALUE: _M_data:this <- %R5
	@DEBUG_VALUE: _M_capacity:this <- %R5
	@DEBUG_VALUE: _M_data:this <- %R5
	@DEBUG_VALUE: _M_set_length:this <- %R5
	@DEBUG_VALUE: _M_length:this <- %R5
	@DEBUG_VALUE: _M_data:this <- %R5
	@DEBUG_VALUE: osc_on_receive:msg <- %R4
	.loc	12 290 33               @ /usr/bin/../lib/gcc/arm-linux-gnueabihf/6.3.0/../../../../include/c++/6.3.0/bits/char_traits.h:290:33
	movw	r2, :lower16:.L.str.12
.Ltmp561:
	.loc	51 220 18               @ /usr/bin/../lib/gcc/arm-linux-gnueabihf/6.3.0/../../../../include/c++/6.3.0/bits/basic_string.tcc:220:18
	ldr	r1, [r11, #-48]
.Ltmp562:
	@DEBUG_VALUE: _M_capacity:__capacity <- %R1
	@DEBUG_VALUE: _M_set_length:__n <- %R1
	@DEBUG_VALUE: _M_length:__length <- %R1
	@DEBUG_VALUE: _M_construct<const char *>:__dnew <- %R1
	.loc	12 290 33               @ /usr/bin/../lib/gcc/arm-linux-gnueabihf/6.3.0/../../../../include/c++/6.3.0/bits/char_traits.h:290:33
	movt	r2, :upper16:.L.str.12
	vld1.64	{d16, d17}, [r2]
	add	r2, r2, #13
.Ltmp563:
	.loc	7 128 26                @ /usr/bin/../lib/gcc/arm-linux-gnueabihf/6.3.0/../../../../include/c++/6.3.0/bits/basic_string.h:128:26
	str	r0, [r11, #-96]
.Ltmp564:
	@DEBUG_VALUE: _M_data:__p <- %R0
	.loc	12 290 33               @ /usr/bin/../lib/gcc/arm-linux-gnueabihf/6.3.0/../../../../include/c++/6.3.0/bits/char_traits.h:290:33
	vld1.8	{d18}, [r2]
	add	r2, r0, #13
.Ltmp565:
	.loc	7 160 31                @ /usr/bin/../lib/gcc/arm-linux-gnueabihf/6.3.0/../../../../include/c++/6.3.0/bits/basic_string.h:160:31
	str	r1, [r11, #-88]
.Ltmp566:
	@DEBUG_VALUE: _S_copy:__d <- %R0
	@DEBUG_VALUE: _S_copy:__n <- 21
	.loc	12 290 33               @ /usr/bin/../lib/gcc/arm-linux-gnueabihf/6.3.0/../../../../include/c++/6.3.0/bits/char_traits.h:290:33
	vst1.8	{d18}, [r2]
	vst1.8	{d16, d17}, [r0]
.Ltmp567:
	.loc	7 132 26                @ /usr/bin/../lib/gcc/arm-linux-gnueabihf/6.3.0/../../../../include/c++/6.3.0/bits/basic_string.h:132:26
	str	r1, [r11, #-92]
.Ltmp568:
	.loc	7 136 28                @ /usr/bin/../lib/gcc/arm-linux-gnueabihf/6.3.0/../../../../include/c++/6.3.0/bits/basic_string.h:136:28
	ldr	r0, [r11, #-96]
.Ltmp569:
	.loc	12 243 14               @ /usr/bin/../lib/gcc/arm-linux-gnueabihf/6.3.0/../../../../include/c++/6.3.0/bits/char_traits.h:243:14
	strb	r7, [r0, r1]
.Ltmp570:
	.loc	41 93 22 discriminator 1 @ /root/Bela/projects/SOFAlizer-for-Bela/osc.cpp:93:22
.Ltmp375:
	sub	r5, r11, #96
.Ltmp571:
	@DEBUG_VALUE: _M_data:this <- %R5
	@DEBUG_VALUE: _M_length:this <- %R5
	@DEBUG_VALUE: _M_set_length:this <- %R5
	@DEBUG_VALUE: _M_data:this <- %R5
	@DEBUG_VALUE: _M_capacity:this <- %R5
	@DEBUG_VALUE: _M_data:this <- %R5
	add	r0, sp, #36
	mov	r1, r4
.Ltmp572:
	mov	r2, r5
	bl	_ZNK6oscpkt7Message5matchERKNSt7__cxx1112basic_stringIcSt11char_traitsIcESaIcEEE
.Ltmp376:
.Ltmp573:
	@DEBUG_VALUE: _S_copy:__s <- %R2
@ BB#33:
	@DEBUG_VALUE: _S_copy:__s <- %R2
	@DEBUG_VALUE: _M_data:this <- %R5
	@DEBUG_VALUE: _M_capacity:this <- %R5
	@DEBUG_VALUE: _M_data:this <- %R5
	@DEBUG_VALUE: _M_set_length:this <- %R5
	@DEBUG_VALUE: _M_length:this <- %R5
	@DEBUG_VALUE: _M_data:this <- %R5
	@DEBUG_VALUE: osc_on_receive:msg <- %R4
	.loc	7 136 28                @ /usr/bin/../lib/gcc/arm-linux-gnueabihf/6.3.0/../../../../include/c++/6.3.0/bits/basic_string.h:136:28
	ldr	r0, [r11, #-96]
.Ltmp574:
	@DEBUG_VALUE: deallocate:__p <- %R0
	@DEBUG_VALUE: deallocate:__p <- %R0
	.loc	5 248 32                @ ./include/oscpkt.hh:248:32
	ldr	r7, [sp, #40]
.Ltmp575:
	.loc	7 180 6                 @ /usr/bin/../lib/gcc/arm-linux-gnueabihf/6.3.0/../../../../include/c++/6.3.0/bits/basic_string.h:180:6
	cmp	r0, r6
	beq	.LBB6_35
.Ltmp576:
@ BB#34:
	@DEBUG_VALUE: deallocate:__p <- %R0
	@DEBUG_VALUE: deallocate:__p <- %R0
	@DEBUG_VALUE: _S_copy:__s <- %R2
	@DEBUG_VALUE: _M_data:this <- %R5
	@DEBUG_VALUE: _M_capacity:this <- %R5
	@DEBUG_VALUE: _M_data:this <- %R5
	@DEBUG_VALUE: _M_set_length:this <- %R5
	@DEBUG_VALUE: _M_length:this <- %R5
	@DEBUG_VALUE: _M_data:this <- %R5
	@DEBUG_VALUE: osc_on_receive:msg <- %R4
	.loc	47 110 9                @ /usr/bin/../lib/gcc/arm-linux-gnueabihf/6.3.0/../../../../include/c++/6.3.0/ext/new_allocator.h:110:9
	bl	_ZdlPv
.Ltmp577:
.LBB6_35:                               @ %_ZNSt7__cxx1112basic_stringIcSt11char_traitsIcESaIcEED2Ev.exit178
	@DEBUG_VALUE: _M_data:this <- %R5
	@DEBUG_VALUE: _M_capacity:this <- %R5
	@DEBUG_VALUE: _M_data:this <- %R5
	@DEBUG_VALUE: _M_set_length:this <- %R5
	@DEBUG_VALUE: _M_length:this <- %R5
	@DEBUG_VALUE: _M_data:this <- %R5
	@DEBUG_VALUE: osc_on_receive:msg <- %R4
	.loc	41 93 17 discriminator 3 @ /root/Bela/projects/SOFAlizer-for-Bela/osc.cpp:93:17
	cmp	r7, #0
	beq	.LBB6_103
.Ltmp578:
@ BB#36:                                @ %._crit_edge.i.i.i.i152
	@DEBUG_VALUE: _M_data:this <- %R5
	@DEBUG_VALUE: _M_capacity:this <- %R5
	@DEBUG_VALUE: _M_data:this <- %R5
	@DEBUG_VALUE: _M_set_length:this <- %R5
	@DEBUG_VALUE: _M_length:this <- %R5
	@DEBUG_VALUE: _M_data:this <- %R5
	@DEBUG_VALUE: osc_on_receive:msg <- %R4
	@DEBUG_VALUE: basic_string:this <- %R5
	@DEBUG_VALUE: _M_local_data:this <- %R5
	@DEBUG_VALUE: _S_copy:__d <- %R6
	@DEBUG_VALUE: _S_copy_chars:__p <- %R6
	@DEBUG_VALUE: _M_construct<const char *>:this <- %R5
	@DEBUG_VALUE: _M_construct_aux<const char *>:this <- %R5
	@DEBUG_VALUE: _M_construct<const char *>:this <- %R5
	@DEBUG_VALUE: _M_construct<const char *>:__dnew <- 12
	@DEBUG_VALUE: _M_data:this <- %R5
	@DEBUG_VALUE: _M_set_length:this <- %R5
	@DEBUG_VALUE: _M_set_length:__n <- 12
	@DEBUG_VALUE: _M_length:this <- %R5
	@DEBUG_VALUE: _M_data:this <- %R5
	.loc	12 290 33               @ /usr/bin/../lib/gcc/arm-linux-gnueabihf/6.3.0/../../../../include/c++/6.3.0/bits/char_traits.h:290:33
	movw	r0, :lower16:.L.str.13
.Ltmp579:
	.loc	7 142 51                @ /usr/bin/../lib/gcc/arm-linux-gnueabihf/6.3.0/../../../../include/c++/6.3.0/bits/basic_string.h:142:51
	add	r6, r5, #8
.Ltmp580:
	.loc	12 290 33               @ /usr/bin/../lib/gcc/arm-linux-gnueabihf/6.3.0/../../../../include/c++/6.3.0/bits/char_traits.h:290:33
	movt	r0, :upper16:.L.str.13
.Ltmp581:
	.loc	7 110 25                @ /usr/bin/../lib/gcc/arm-linux-gnueabihf/6.3.0/../../../../include/c++/6.3.0/bits/basic_string.h:110:25
	str	r6, [r11, #-96]
.Ltmp582:
	@DEBUG_VALUE: _S_copy:__n <- 12
	.loc	12 290 33               @ /usr/bin/../lib/gcc/arm-linux-gnueabihf/6.3.0/../../../../include/c++/6.3.0/bits/char_traits.h:290:33
	vldr	d16, [r0]
	movw	r0, #25964
	movt	r0, #29795
	str	r0, [r11, #-80]
	mov	r0, #12
.Ltmp583:
	@DEBUG_VALUE: _M_length:__length <- 12
	vstr	d16, [r11, #-88]
.Ltmp584:
	.loc	7 132 26                @ /usr/bin/../lib/gcc/arm-linux-gnueabihf/6.3.0/../../../../include/c++/6.3.0/bits/basic_string.h:132:26
	str	r0, [r11, #-92]
.Ltmp585:
	.loc	12 243 14               @ /usr/bin/../lib/gcc/arm-linux-gnueabihf/6.3.0/../../../../include/c++/6.3.0/bits/char_traits.h:243:14
	mov	r0, #0
	strb	r0, [r11, #-76]
.Ltmp586:
	.loc	41 96 22 discriminator 1 @ /root/Bela/projects/SOFAlizer-for-Bela/osc.cpp:96:22
.Ltmp378:
	add	r0, sp, #24
	mov	r1, r4
	mov	r2, r5
	bl	_ZNK6oscpkt7Message5matchERKNSt7__cxx1112basic_stringIcSt11char_traitsIcESaIcEEE
.Ltmp379:
.Ltmp587:
	@DEBUG_VALUE: _S_copy:__s <- %R0
@ BB#37:
	@DEBUG_VALUE: _S_copy:__s <- %R0
	@DEBUG_VALUE: _M_data:this <- %R5
	@DEBUG_VALUE: _M_length:this <- %R5
	@DEBUG_VALUE: _M_set_length:this <- %R5
	@DEBUG_VALUE: _M_data:this <- %R5
	@DEBUG_VALUE: _M_construct<const char *>:this <- %R5
	@DEBUG_VALUE: _M_construct_aux<const char *>:this <- %R5
	@DEBUG_VALUE: _M_construct<const char *>:this <- %R5
	@DEBUG_VALUE: _M_local_data:this <- %R5
	@DEBUG_VALUE: basic_string:this <- %R5
	@DEBUG_VALUE: _M_data:this <- %R5
	@DEBUG_VALUE: _M_capacity:this <- %R5
	@DEBUG_VALUE: _M_data:this <- %R5
	@DEBUG_VALUE: _M_set_length:this <- %R5
	@DEBUG_VALUE: _M_length:this <- %R5
	@DEBUG_VALUE: _M_data:this <- %R5
	@DEBUG_VALUE: osc_on_receive:msg <- %R4
	.loc	7 136 28                @ /usr/bin/../lib/gcc/arm-linux-gnueabihf/6.3.0/../../../../include/c++/6.3.0/bits/basic_string.h:136:28
	ldr	r0, [r11, #-96]
.Ltmp588:
	@DEBUG_VALUE: deallocate:__p <- %R0
	@DEBUG_VALUE: deallocate:__p <- %R0
	.loc	5 248 32                @ ./include/oscpkt.hh:248:32
	ldr	r7, [sp, #28]
.Ltmp589:
	.loc	7 180 6                 @ /usr/bin/../lib/gcc/arm-linux-gnueabihf/6.3.0/../../../../include/c++/6.3.0/bits/basic_string.h:180:6
	cmp	r0, r6
	beq	.LBB6_39
.Ltmp590:
@ BB#38:
	@DEBUG_VALUE: deallocate:__p <- %R0
	@DEBUG_VALUE: deallocate:__p <- %R0
	@DEBUG_VALUE: _M_data:this <- %R5
	@DEBUG_VALUE: _M_length:this <- %R5
	@DEBUG_VALUE: _M_set_length:this <- %R5
	@DEBUG_VALUE: _M_data:this <- %R5
	@DEBUG_VALUE: _M_construct<const char *>:this <- %R5
	@DEBUG_VALUE: _M_construct_aux<const char *>:this <- %R5
	@DEBUG_VALUE: _M_construct<const char *>:this <- %R5
	@DEBUG_VALUE: _M_local_data:this <- %R5
	@DEBUG_VALUE: basic_string:this <- %R5
	@DEBUG_VALUE: _M_data:this <- %R5
	@DEBUG_VALUE: _M_capacity:this <- %R5
	@DEBUG_VALUE: _M_data:this <- %R5
	@DEBUG_VALUE: _M_set_length:this <- %R5
	@DEBUG_VALUE: _M_length:this <- %R5
	@DEBUG_VALUE: _M_data:this <- %R5
	@DEBUG_VALUE: osc_on_receive:msg <- %R4
	.loc	47 110 9                @ /usr/bin/../lib/gcc/arm-linux-gnueabihf/6.3.0/../../../../include/c++/6.3.0/ext/new_allocator.h:110:9
	bl	_ZdlPv
.Ltmp591:
.LBB6_39:                               @ %_ZNSt7__cxx1112basic_stringIcSt11char_traitsIcESaIcEED2Ev.exit135
	@DEBUG_VALUE: _M_data:this <- %R5
	@DEBUG_VALUE: _M_length:this <- %R5
	@DEBUG_VALUE: _M_set_length:this <- %R5
	@DEBUG_VALUE: _M_data:this <- %R5
	@DEBUG_VALUE: _M_construct<const char *>:this <- %R5
	@DEBUG_VALUE: _M_construct_aux<const char *>:this <- %R5
	@DEBUG_VALUE: _M_construct<const char *>:this <- %R5
	@DEBUG_VALUE: _M_local_data:this <- %R5
	@DEBUG_VALUE: basic_string:this <- %R5
	@DEBUG_VALUE: _M_data:this <- %R5
	@DEBUG_VALUE: _M_capacity:this <- %R5
	@DEBUG_VALUE: _M_data:this <- %R5
	@DEBUG_VALUE: _M_set_length:this <- %R5
	@DEBUG_VALUE: _M_length:this <- %R5
	@DEBUG_VALUE: _M_data:this <- %R5
	@DEBUG_VALUE: osc_on_receive:msg <- %R4
	.loc	41 96 17 discriminator 3 @ /root/Bela/projects/SOFAlizer-for-Bela/osc.cpp:96:17
	cmp	r7, #0
	beq	.LBB6_116
.Ltmp592:
@ BB#40:                                @ %._crit_edge.i.i.i.i78
	@DEBUG_VALUE: _M_data:this <- %R5
	@DEBUG_VALUE: _M_length:this <- %R5
	@DEBUG_VALUE: _M_set_length:this <- %R5
	@DEBUG_VALUE: _M_data:this <- %R5
	@DEBUG_VALUE: _M_construct<const char *>:this <- %R5
	@DEBUG_VALUE: _M_construct_aux<const char *>:this <- %R5
	@DEBUG_VALUE: _M_construct<const char *>:this <- %R5
	@DEBUG_VALUE: _M_local_data:this <- %R5
	@DEBUG_VALUE: basic_string:this <- %R5
	@DEBUG_VALUE: _M_data:this <- %R5
	@DEBUG_VALUE: _M_capacity:this <- %R5
	@DEBUG_VALUE: _M_data:this <- %R5
	@DEBUG_VALUE: _M_set_length:this <- %R5
	@DEBUG_VALUE: _M_length:this <- %R5
	@DEBUG_VALUE: _M_data:this <- %R5
	@DEBUG_VALUE: osc_on_receive:msg <- %R4
	@DEBUG_VALUE: basic_string:this <- %R5
	@DEBUG_VALUE: _M_local_data:this <- %R5
	@DEBUG_VALUE: _S_copy:__d <- %R6
	@DEBUG_VALUE: _S_copy_chars:__p <- %R6
	@DEBUG_VALUE: _M_construct<const char *>:this <- %R5
	@DEBUG_VALUE: _M_construct_aux<const char *>:this <- %R5
	@DEBUG_VALUE: _M_construct<const char *>:this <- %R5
	@DEBUG_VALUE: _M_construct<const char *>:__dnew <- 9
	@DEBUG_VALUE: _M_data:this <- %R5
	@DEBUG_VALUE: _M_set_length:this <- %R5
	@DEBUG_VALUE: _M_set_length:__n <- 9
	@DEBUG_VALUE: _M_length:this <- %R5
	@DEBUG_VALUE: _M_data:this <- %R5
	.loc	12 290 33               @ /usr/bin/../lib/gcc/arm-linux-gnueabihf/6.3.0/../../../../include/c++/6.3.0/bits/char_traits.h:290:33
	movw	r0, :lower16:.L.str.14
.Ltmp593:
	.loc	7 110 25                @ /usr/bin/../lib/gcc/arm-linux-gnueabihf/6.3.0/../../../../include/c++/6.3.0/bits/basic_string.h:110:25
	str	r6, [r11, #-96]
.Ltmp594:
	@DEBUG_VALUE: _S_copy:__n <- 9
	.loc	12 290 33               @ /usr/bin/../lib/gcc/arm-linux-gnueabihf/6.3.0/../../../../include/c++/6.3.0/bits/char_traits.h:290:33
	movt	r0, :upper16:.L.str.14
	vldr	d16, [r0]
	mov	r0, #99
	strb	r0, [r11, #-80]
	mov	r0, #9
.Ltmp595:
	@DEBUG_VALUE: _M_length:__length <- 9
	vstr	d16, [r11, #-88]
.Ltmp596:
	.loc	7 132 26                @ /usr/bin/../lib/gcc/arm-linux-gnueabihf/6.3.0/../../../../include/c++/6.3.0/bits/basic_string.h:132:26
	str	r0, [r11, #-92]
.Ltmp597:
	.loc	12 243 14               @ /usr/bin/../lib/gcc/arm-linux-gnueabihf/6.3.0/../../../../include/c++/6.3.0/bits/char_traits.h:243:14
	mov	r0, #0
	strb	r0, [r11, #-79]
.Ltmp598:
	.loc	41 109 22 discriminator 1 @ /root/Bela/projects/SOFAlizer-for-Bela/osc.cpp:109:22
.Ltmp381:
	add	r0, sp, #12
	mov	r1, r4
	mov	r2, r5
	bl	_ZNK6oscpkt7Message5matchERKNSt7__cxx1112basic_stringIcSt11char_traitsIcESaIcEEE
.Ltmp382:
.Ltmp599:
	@DEBUG_VALUE: _S_copy:__s <- %R0
@ BB#41:
	@DEBUG_VALUE: _S_copy:__s <- %R0
	@DEBUG_VALUE: _M_data:this <- %R5
	@DEBUG_VALUE: _M_length:this <- %R5
	@DEBUG_VALUE: _M_set_length:this <- %R5
	@DEBUG_VALUE: _M_data:this <- %R5
	@DEBUG_VALUE: _M_construct<const char *>:this <- %R5
	@DEBUG_VALUE: _M_construct_aux<const char *>:this <- %R5
	@DEBUG_VALUE: _M_construct<const char *>:this <- %R5
	@DEBUG_VALUE: _S_copy_chars:__p <- %R6
	@DEBUG_VALUE: _S_copy:__d <- %R6
	@DEBUG_VALUE: _M_local_data:this <- %R5
	@DEBUG_VALUE: basic_string:this <- %R5
	@DEBUG_VALUE: _M_data:this <- %R5
	@DEBUG_VALUE: _M_length:this <- %R5
	@DEBUG_VALUE: _M_set_length:this <- %R5
	@DEBUG_VALUE: _M_data:this <- %R5
	@DEBUG_VALUE: _M_construct<const char *>:this <- %R5
	@DEBUG_VALUE: _M_construct_aux<const char *>:this <- %R5
	@DEBUG_VALUE: _M_construct<const char *>:this <- %R5
	@DEBUG_VALUE: _M_local_data:this <- %R5
	@DEBUG_VALUE: basic_string:this <- %R5
	@DEBUG_VALUE: _M_data:this <- %R5
	@DEBUG_VALUE: _M_capacity:this <- %R5
	@DEBUG_VALUE: _M_data:this <- %R5
	@DEBUG_VALUE: _M_set_length:this <- %R5
	@DEBUG_VALUE: _M_length:this <- %R5
	@DEBUG_VALUE: _M_data:this <- %R5
	@DEBUG_VALUE: osc_on_receive:msg <- %R4
	.loc	7 136 28                @ /usr/bin/../lib/gcc/arm-linux-gnueabihf/6.3.0/../../../../include/c++/6.3.0/bits/basic_string.h:136:28
	ldr	r0, [r11, #-96]
.Ltmp600:
	@DEBUG_VALUE: deallocate:__p <- %R0
	@DEBUG_VALUE: deallocate:__p <- %R0
	.loc	5 248 32                @ ./include/oscpkt.hh:248:32
	ldr	r7, [sp, #16]
.Ltmp601:
	.loc	7 180 6                 @ /usr/bin/../lib/gcc/arm-linux-gnueabihf/6.3.0/../../../../include/c++/6.3.0/bits/basic_string.h:180:6
	cmp	r0, r6
	beq	.LBB6_43
.Ltmp602:
@ BB#42:
	@DEBUG_VALUE: deallocate:__p <- %R0
	@DEBUG_VALUE: deallocate:__p <- %R0
	@DEBUG_VALUE: _M_data:this <- %R5
	@DEBUG_VALUE: _M_length:this <- %R5
	@DEBUG_VALUE: _M_set_length:this <- %R5
	@DEBUG_VALUE: _M_data:this <- %R5
	@DEBUG_VALUE: _M_construct<const char *>:this <- %R5
	@DEBUG_VALUE: _M_construct_aux<const char *>:this <- %R5
	@DEBUG_VALUE: _M_construct<const char *>:this <- %R5
	@DEBUG_VALUE: _S_copy_chars:__p <- %R6
	@DEBUG_VALUE: _S_copy:__d <- %R6
	@DEBUG_VALUE: _M_local_data:this <- %R5
	@DEBUG_VALUE: basic_string:this <- %R5
	@DEBUG_VALUE: _M_data:this <- %R5
	@DEBUG_VALUE: _M_length:this <- %R5
	@DEBUG_VALUE: _M_set_length:this <- %R5
	@DEBUG_VALUE: _M_data:this <- %R5
	@DEBUG_VALUE: _M_construct<const char *>:this <- %R5
	@DEBUG_VALUE: _M_construct_aux<const char *>:this <- %R5
	@DEBUG_VALUE: _M_construct<const char *>:this <- %R5
	@DEBUG_VALUE: _M_local_data:this <- %R5
	@DEBUG_VALUE: basic_string:this <- %R5
	@DEBUG_VALUE: _M_data:this <- %R5
	@DEBUG_VALUE: _M_capacity:this <- %R5
	@DEBUG_VALUE: _M_data:this <- %R5
	@DEBUG_VALUE: _M_set_length:this <- %R5
	@DEBUG_VALUE: _M_length:this <- %R5
	@DEBUG_VALUE: _M_data:this <- %R5
	@DEBUG_VALUE: osc_on_receive:msg <- %R4
	.loc	47 110 9                @ /usr/bin/../lib/gcc/arm-linux-gnueabihf/6.3.0/../../../../include/c++/6.3.0/ext/new_allocator.h:110:9
	bl	_ZdlPv
.Ltmp603:
.LBB6_43:                               @ %_ZNSt7__cxx1112basic_stringIcSt11char_traitsIcESaIcEED2Ev.exit65
	@DEBUG_VALUE: _M_data:this <- %R5
	@DEBUG_VALUE: _M_length:this <- %R5
	@DEBUG_VALUE: _M_set_length:this <- %R5
	@DEBUG_VALUE: _M_data:this <- %R5
	@DEBUG_VALUE: _M_construct<const char *>:this <- %R5
	@DEBUG_VALUE: _M_construct_aux<const char *>:this <- %R5
	@DEBUG_VALUE: _M_construct<const char *>:this <- %R5
	@DEBUG_VALUE: _S_copy_chars:__p <- %R6
	@DEBUG_VALUE: _S_copy:__d <- %R6
	@DEBUG_VALUE: _M_local_data:this <- %R5
	@DEBUG_VALUE: basic_string:this <- %R5
	@DEBUG_VALUE: _M_data:this <- %R5
	@DEBUG_VALUE: _M_length:this <- %R5
	@DEBUG_VALUE: _M_set_length:this <- %R5
	@DEBUG_VALUE: _M_data:this <- %R5
	@DEBUG_VALUE: _M_construct<const char *>:this <- %R5
	@DEBUG_VALUE: _M_construct_aux<const char *>:this <- %R5
	@DEBUG_VALUE: _M_construct<const char *>:this <- %R5
	@DEBUG_VALUE: _M_local_data:this <- %R5
	@DEBUG_VALUE: basic_string:this <- %R5
	@DEBUG_VALUE: _M_data:this <- %R5
	@DEBUG_VALUE: _M_capacity:this <- %R5
	@DEBUG_VALUE: _M_data:this <- %R5
	@DEBUG_VALUE: _M_set_length:this <- %R5
	@DEBUG_VALUE: _M_length:this <- %R5
	@DEBUG_VALUE: _M_data:this <- %R5
	@DEBUG_VALUE: osc_on_receive:msg <- %R4
	.loc	41 109 17 discriminator 3 @ /root/Bela/projects/SOFAlizer-for-Bela/osc.cpp:109:17
	cmp	r7, #0
	beq	.LBB6_123
.Ltmp604:
@ BB#44:                                @ %._crit_edge.i.i.i.i33
	@DEBUG_VALUE: _M_data:this <- %R5
	@DEBUG_VALUE: _M_length:this <- %R5
	@DEBUG_VALUE: _M_set_length:this <- %R5
	@DEBUG_VALUE: _M_data:this <- %R5
	@DEBUG_VALUE: _M_construct<const char *>:this <- %R5
	@DEBUG_VALUE: _M_construct_aux<const char *>:this <- %R5
	@DEBUG_VALUE: _M_construct<const char *>:this <- %R5
	@DEBUG_VALUE: _S_copy_chars:__p <- %R6
	@DEBUG_VALUE: _S_copy:__d <- %R6
	@DEBUG_VALUE: _M_local_data:this <- %R5
	@DEBUG_VALUE: basic_string:this <- %R5
	@DEBUG_VALUE: _M_data:this <- %R5
	@DEBUG_VALUE: _M_length:this <- %R5
	@DEBUG_VALUE: _M_set_length:this <- %R5
	@DEBUG_VALUE: _M_data:this <- %R5
	@DEBUG_VALUE: _M_construct<const char *>:this <- %R5
	@DEBUG_VALUE: _M_construct_aux<const char *>:this <- %R5
	@DEBUG_VALUE: _M_construct<const char *>:this <- %R5
	@DEBUG_VALUE: _M_local_data:this <- %R5
	@DEBUG_VALUE: basic_string:this <- %R5
	@DEBUG_VALUE: _M_data:this <- %R5
	@DEBUG_VALUE: _M_capacity:this <- %R5
	@DEBUG_VALUE: _M_data:this <- %R5
	@DEBUG_VALUE: _M_set_length:this <- %R5
	@DEBUG_VALUE: _M_length:this <- %R5
	@DEBUG_VALUE: _M_data:this <- %R5
	@DEBUG_VALUE: osc_on_receive:msg <- %R4
	@DEBUG_VALUE: basic_string:this <- %R5
	@DEBUG_VALUE: _M_local_data:this <- %R5
	@DEBUG_VALUE: _S_copy:__d <- %R6
	@DEBUG_VALUE: _S_copy_chars:__p <- %R6
	@DEBUG_VALUE: _M_construct<const char *>:this <- %R5
	@DEBUG_VALUE: _M_construct_aux<const char *>:this <- %R5
	@DEBUG_VALUE: _M_construct<const char *>:this <- %R5
	@DEBUG_VALUE: _M_construct<const char *>:__dnew <- 9
	@DEBUG_VALUE: _M_data:this <- %R5
	@DEBUG_VALUE: _M_set_length:this <- %R5
	@DEBUG_VALUE: _M_set_length:__n <- 9
	@DEBUG_VALUE: _M_length:this <- %R5
	@DEBUG_VALUE: _M_data:this <- %R5
	.loc	12 290 33               @ /usr/bin/../lib/gcc/arm-linux-gnueabihf/6.3.0/../../../../include/c++/6.3.0/bits/char_traits.h:290:33
	movw	r0, :lower16:.L.str.15
.Ltmp605:
	.loc	7 110 25                @ /usr/bin/../lib/gcc/arm-linux-gnueabihf/6.3.0/../../../../include/c++/6.3.0/bits/basic_string.h:110:25
	str	r6, [r11, #-96]
.Ltmp606:
	@DEBUG_VALUE: _S_copy:__n <- 9
	.loc	12 290 33               @ /usr/bin/../lib/gcc/arm-linux-gnueabihf/6.3.0/../../../../include/c++/6.3.0/bits/char_traits.h:290:33
	movt	r0, :upper16:.L.str.15
	vldr	d16, [r0]
	mov	r0, #99
	strb	r0, [r11, #-80]
	mov	r0, #9
.Ltmp607:
	@DEBUG_VALUE: _M_length:__length <- 9
	vstr	d16, [r11, #-88]
.Ltmp608:
	.loc	7 132 26                @ /usr/bin/../lib/gcc/arm-linux-gnueabihf/6.3.0/../../../../include/c++/6.3.0/bits/basic_string.h:132:26
	str	r0, [r11, #-92]
.Ltmp609:
	.loc	12 243 14               @ /usr/bin/../lib/gcc/arm-linux-gnueabihf/6.3.0/../../../../include/c++/6.3.0/bits/char_traits.h:243:14
	mov	r0, #0
	strb	r0, [r11, #-79]
.Ltmp610:
	.loc	41 117 22 discriminator 1 @ /root/Bela/projects/SOFAlizer-for-Bela/osc.cpp:117:22
.Ltmp384:
	mov	r0, sp
	mov	r1, r4
	mov	r2, r5
	bl	_ZNK6oscpkt7Message5matchERKNSt7__cxx1112basic_stringIcSt11char_traitsIcESaIcEEE
.Ltmp385:
.Ltmp611:
	@DEBUG_VALUE: _S_copy:__s <- %R0
@ BB#45:
	@DEBUG_VALUE: _S_copy:__s <- %R0
	@DEBUG_VALUE: _M_data:this <- %R5
	@DEBUG_VALUE: _M_length:this <- %R5
	@DEBUG_VALUE: _M_set_length:this <- %R5
	@DEBUG_VALUE: _M_data:this <- %R5
	@DEBUG_VALUE: _M_construct<const char *>:this <- %R5
	@DEBUG_VALUE: _M_construct_aux<const char *>:this <- %R5
	@DEBUG_VALUE: _M_construct<const char *>:this <- %R5
	@DEBUG_VALUE: _S_copy_chars:__p <- %R6
	@DEBUG_VALUE: _S_copy:__d <- %R6
	@DEBUG_VALUE: _M_local_data:this <- %R5
	@DEBUG_VALUE: basic_string:this <- %R5
	@DEBUG_VALUE: _M_data:this <- %R5
	@DEBUG_VALUE: _M_length:this <- %R5
	@DEBUG_VALUE: _M_set_length:this <- %R5
	@DEBUG_VALUE: _M_data:this <- %R5
	@DEBUG_VALUE: _M_construct<const char *>:this <- %R5
	@DEBUG_VALUE: _M_construct_aux<const char *>:this <- %R5
	@DEBUG_VALUE: _M_construct<const char *>:this <- %R5
	@DEBUG_VALUE: _S_copy_chars:__p <- %R6
	@DEBUG_VALUE: _S_copy:__d <- %R6
	@DEBUG_VALUE: _M_local_data:this <- %R5
	@DEBUG_VALUE: basic_string:this <- %R5
	@DEBUG_VALUE: _M_data:this <- %R5
	@DEBUG_VALUE: _M_length:this <- %R5
	@DEBUG_VALUE: _M_set_length:this <- %R5
	@DEBUG_VALUE: _M_data:this <- %R5
	@DEBUG_VALUE: _M_construct<const char *>:this <- %R5
	@DEBUG_VALUE: _M_construct_aux<const char *>:this <- %R5
	@DEBUG_VALUE: _M_construct<const char *>:this <- %R5
	@DEBUG_VALUE: _M_local_data:this <- %R5
	@DEBUG_VALUE: basic_string:this <- %R5
	@DEBUG_VALUE: _M_data:this <- %R5
	@DEBUG_VALUE: _M_capacity:this <- %R5
	@DEBUG_VALUE: _M_data:this <- %R5
	@DEBUG_VALUE: _M_set_length:this <- %R5
	@DEBUG_VALUE: _M_length:this <- %R5
	@DEBUG_VALUE: _M_data:this <- %R5
	@DEBUG_VALUE: osc_on_receive:msg <- %R4
	.loc	7 136 28                @ /usr/bin/../lib/gcc/arm-linux-gnueabihf/6.3.0/../../../../include/c++/6.3.0/bits/basic_string.h:136:28
	ldr	r0, [r11, #-96]
.Ltmp612:
	@DEBUG_VALUE: deallocate:__p <- %R0
	@DEBUG_VALUE: deallocate:__p <- %R0
	.loc	5 248 32                @ ./include/oscpkt.hh:248:32
	ldr	r4, [sp, #4]
.Ltmp613:
	.loc	7 180 6                 @ /usr/bin/../lib/gcc/arm-linux-gnueabihf/6.3.0/../../../../include/c++/6.3.0/bits/basic_string.h:180:6
	cmp	r0, r6
	beq	.LBB6_47
.Ltmp614:
@ BB#46:
	@DEBUG_VALUE: deallocate:__p <- %R0
	@DEBUG_VALUE: deallocate:__p <- %R0
	@DEBUG_VALUE: _M_data:this <- %R5
	@DEBUG_VALUE: _M_length:this <- %R5
	@DEBUG_VALUE: _M_set_length:this <- %R5
	@DEBUG_VALUE: _M_data:this <- %R5
	@DEBUG_VALUE: _M_construct<const char *>:this <- %R5
	@DEBUG_VALUE: _M_construct_aux<const char *>:this <- %R5
	@DEBUG_VALUE: _M_construct<const char *>:this <- %R5
	@DEBUG_VALUE: _S_copy_chars:__p <- %R6
	@DEBUG_VALUE: _S_copy:__d <- %R6
	@DEBUG_VALUE: _M_local_data:this <- %R5
	@DEBUG_VALUE: basic_string:this <- %R5
	@DEBUG_VALUE: _M_data:this <- %R5
	@DEBUG_VALUE: _M_length:this <- %R5
	@DEBUG_VALUE: _M_set_length:this <- %R5
	@DEBUG_VALUE: _M_data:this <- %R5
	@DEBUG_VALUE: _M_construct<const char *>:this <- %R5
	@DEBUG_VALUE: _M_construct_aux<const char *>:this <- %R5
	@DEBUG_VALUE: _M_construct<const char *>:this <- %R5
	@DEBUG_VALUE: _S_copy_chars:__p <- %R6
	@DEBUG_VALUE: _S_copy:__d <- %R6
	@DEBUG_VALUE: _M_local_data:this <- %R5
	@DEBUG_VALUE: basic_string:this <- %R5
	@DEBUG_VALUE: _M_data:this <- %R5
	@DEBUG_VALUE: _M_length:this <- %R5
	@DEBUG_VALUE: _M_set_length:this <- %R5
	@DEBUG_VALUE: _M_data:this <- %R5
	@DEBUG_VALUE: _M_construct<const char *>:this <- %R5
	@DEBUG_VALUE: _M_construct_aux<const char *>:this <- %R5
	@DEBUG_VALUE: _M_construct<const char *>:this <- %R5
	@DEBUG_VALUE: _M_local_data:this <- %R5
	@DEBUG_VALUE: basic_string:this <- %R5
	@DEBUG_VALUE: _M_data:this <- %R5
	@DEBUG_VALUE: _M_capacity:this <- %R5
	@DEBUG_VALUE: _M_data:this <- %R5
	@DEBUG_VALUE: _M_set_length:this <- %R5
	@DEBUG_VALUE: _M_length:this <- %R5
	@DEBUG_VALUE: _M_data:this <- %R5
	.loc	47 110 9                @ /usr/bin/../lib/gcc/arm-linux-gnueabihf/6.3.0/../../../../include/c++/6.3.0/ext/new_allocator.h:110:9
	bl	_ZdlPv
.Ltmp615:
.LBB6_47:                               @ %_ZNSt7__cxx1112basic_stringIcSt11char_traitsIcESaIcEED2Ev.exit30
	@DEBUG_VALUE: _M_data:this <- %R5
	@DEBUG_VALUE: _M_length:this <- %R5
	@DEBUG_VALUE: _M_set_length:this <- %R5
	@DEBUG_VALUE: _M_data:this <- %R5
	@DEBUG_VALUE: _M_construct<const char *>:this <- %R5
	@DEBUG_VALUE: _M_construct_aux<const char *>:this <- %R5
	@DEBUG_VALUE: _M_construct<const char *>:this <- %R5
	@DEBUG_VALUE: _S_copy_chars:__p <- %R6
	@DEBUG_VALUE: _S_copy:__d <- %R6
	@DEBUG_VALUE: _M_local_data:this <- %R5
	@DEBUG_VALUE: basic_string:this <- %R5
	@DEBUG_VALUE: _M_data:this <- %R5
	@DEBUG_VALUE: _M_length:this <- %R5
	@DEBUG_VALUE: _M_set_length:this <- %R5
	@DEBUG_VALUE: _M_data:this <- %R5
	@DEBUG_VALUE: _M_construct<const char *>:this <- %R5
	@DEBUG_VALUE: _M_construct_aux<const char *>:this <- %R5
	@DEBUG_VALUE: _M_construct<const char *>:this <- %R5
	@DEBUG_VALUE: _S_copy_chars:__p <- %R6
	@DEBUG_VALUE: _S_copy:__d <- %R6
	@DEBUG_VALUE: _M_local_data:this <- %R5
	@DEBUG_VALUE: basic_string:this <- %R5
	@DEBUG_VALUE: _M_data:this <- %R5
	@DEBUG_VALUE: _M_length:this <- %R5
	@DEBUG_VALUE: _M_set_length:this <- %R5
	@DEBUG_VALUE: _M_data:this <- %R5
	@DEBUG_VALUE: _M_construct<const char *>:this <- %R5
	@DEBUG_VALUE: _M_construct_aux<const char *>:this <- %R5
	@DEBUG_VALUE: _M_construct<const char *>:this <- %R5
	@DEBUG_VALUE: _M_local_data:this <- %R5
	@DEBUG_VALUE: basic_string:this <- %R5
	@DEBUG_VALUE: _M_data:this <- %R5
	@DEBUG_VALUE: _M_capacity:this <- %R5
	@DEBUG_VALUE: _M_data:this <- %R5
	@DEBUG_VALUE: _M_set_length:this <- %R5
	@DEBUG_VALUE: _M_length:this <- %R5
	@DEBUG_VALUE: _M_data:this <- %R5
	.loc	41 117 17 discriminator 3 @ /root/Bela/projects/SOFAlizer-for-Bela/osc.cpp:117:17
	cmp	r4, #0
	bne	.LBB6_114
.Ltmp616:
@ BB#48:
	@DEBUG_VALUE: _M_data:this <- %R5
	@DEBUG_VALUE: _M_length:this <- %R5
	@DEBUG_VALUE: _M_set_length:this <- %R5
	@DEBUG_VALUE: _M_data:this <- %R5
	@DEBUG_VALUE: _M_construct<const char *>:this <- %R5
	@DEBUG_VALUE: _M_construct_aux<const char *>:this <- %R5
	@DEBUG_VALUE: _M_construct<const char *>:this <- %R5
	@DEBUG_VALUE: _S_copy_chars:__p <- %R6
	@DEBUG_VALUE: _S_copy:__d <- %R6
	@DEBUG_VALUE: _M_local_data:this <- %R5
	@DEBUG_VALUE: basic_string:this <- %R5
	@DEBUG_VALUE: _M_data:this <- %R5
	@DEBUG_VALUE: _M_length:this <- %R5
	@DEBUG_VALUE: _M_set_length:this <- %R5
	@DEBUG_VALUE: _M_data:this <- %R5
	@DEBUG_VALUE: _M_construct<const char *>:this <- %R5
	@DEBUG_VALUE: _M_construct_aux<const char *>:this <- %R5
	@DEBUG_VALUE: _M_construct<const char *>:this <- %R5
	@DEBUG_VALUE: _S_copy_chars:__p <- %R6
	@DEBUG_VALUE: _S_copy:__d <- %R6
	@DEBUG_VALUE: _M_local_data:this <- %R5
	@DEBUG_VALUE: basic_string:this <- %R5
	@DEBUG_VALUE: _M_data:this <- %R5
	@DEBUG_VALUE: _M_length:this <- %R5
	@DEBUG_VALUE: _M_set_length:this <- %R5
	@DEBUG_VALUE: _M_data:this <- %R5
	@DEBUG_VALUE: _M_construct<const char *>:this <- %R5
	@DEBUG_VALUE: _M_construct_aux<const char *>:this <- %R5
	@DEBUG_VALUE: _M_construct<const char *>:this <- %R5
	@DEBUG_VALUE: _M_local_data:this <- %R5
	@DEBUG_VALUE: basic_string:this <- %R5
	@DEBUG_VALUE: _M_data:this <- %R5
	@DEBUG_VALUE: _M_capacity:this <- %R5
	@DEBUG_VALUE: _M_data:this <- %R5
	@DEBUG_VALUE: _M_set_length:this <- %R5
	@DEBUG_VALUE: _M_length:this <- %R5
	@DEBUG_VALUE: _M_data:this <- %R5
	.loc	1 747 7                 @ /usr/bin/../lib/gcc/arm-linux-gnueabihf/6.3.0/../../../../include/arm-linux-gnueabihf/c++/6.3.0/bits/gthr-default.h:747:7
	movw	r4, :lower16:__pthread_key_create
	movt	r4, :upper16:__pthread_key_create
	cmp	r4, #0
	beq	.LBB6_50
.Ltmp617:
@ BB#49:                                @ %_ZL20__gthread_mutex_lockP15pthread_mutex_t.exit.i
	@DEBUG_VALUE: _M_data:this <- %R5
	@DEBUG_VALUE: _M_length:this <- %R5
	@DEBUG_VALUE: _M_set_length:this <- %R5
	@DEBUG_VALUE: _M_data:this <- %R5
	@DEBUG_VALUE: _M_construct<const char *>:this <- %R5
	@DEBUG_VALUE: _M_construct_aux<const char *>:this <- %R5
	@DEBUG_VALUE: _M_construct<const char *>:this <- %R5
	@DEBUG_VALUE: _S_copy_chars:__p <- %R6
	@DEBUG_VALUE: _S_copy:__d <- %R6
	@DEBUG_VALUE: _M_local_data:this <- %R5
	@DEBUG_VALUE: basic_string:this <- %R5
	@DEBUG_VALUE: _M_data:this <- %R5
	@DEBUG_VALUE: _M_length:this <- %R5
	@DEBUG_VALUE: _M_set_length:this <- %R5
	@DEBUG_VALUE: _M_data:this <- %R5
	@DEBUG_VALUE: _M_construct<const char *>:this <- %R5
	@DEBUG_VALUE: _M_construct_aux<const char *>:this <- %R5
	@DEBUG_VALUE: _M_construct<const char *>:this <- %R5
	@DEBUG_VALUE: _S_copy_chars:__p <- %R6
	@DEBUG_VALUE: _S_copy:__d <- %R6
	@DEBUG_VALUE: _M_local_data:this <- %R5
	@DEBUG_VALUE: basic_string:this <- %R5
	@DEBUG_VALUE: _M_data:this <- %R5
	@DEBUG_VALUE: _M_length:this <- %R5
	@DEBUG_VALUE: _M_set_length:this <- %R5
	@DEBUG_VALUE: _M_data:this <- %R5
	@DEBUG_VALUE: _M_construct<const char *>:this <- %R5
	@DEBUG_VALUE: _M_construct_aux<const char *>:this <- %R5
	@DEBUG_VALUE: _M_construct<const char *>:this <- %R5
	@DEBUG_VALUE: _M_local_data:this <- %R5
	@DEBUG_VALUE: basic_string:this <- %R5
	@DEBUG_VALUE: _M_data:this <- %R5
	@DEBUG_VALUE: _M_capacity:this <- %R5
	@DEBUG_VALUE: _M_data:this <- %R5
	@DEBUG_VALUE: _M_set_length:this <- %R5
	@DEBUG_VALUE: _M_length:this <- %R5
	@DEBUG_VALUE: _M_data:this <- %R5
	.loc	1 748 12                @ /usr/bin/../lib/gcc/arm-linux-gnueabihf/6.3.0/../../../../include/arm-linux-gnueabihf/c++/6.3.0/bits/gthr-default.h:748:12
	movw	r0, :lower16:m_hrtf_num
	movt	r0, :upper16:m_hrtf_num
.Ltmp618:
	@DEBUG_VALUE: lock:this <- %R0
	bl	pthread_mutex_lock
.Ltmp619:
	@DEBUG_VALUE: lock:__e <- %R0
	.loc	53 106 11               @ /usr/bin/../lib/gcc/arm-linux-gnueabihf/6.3.0/../../../../include/c++/6.3.0/bits/std_mutex.h:106:11
	cmp	r0, #0
	bne	.LBB6_142
.Ltmp620:
.LBB6_50:                               @ %_ZNSt5mutex4lockEv.exit
	@DEBUG_VALUE: _M_data:this <- %R5
	@DEBUG_VALUE: _M_length:this <- %R5
	@DEBUG_VALUE: _M_set_length:this <- %R5
	@DEBUG_VALUE: _M_data:this <- %R5
	@DEBUG_VALUE: _M_construct<const char *>:this <- %R5
	@DEBUG_VALUE: _M_construct_aux<const char *>:this <- %R5
	@DEBUG_VALUE: _M_construct<const char *>:this <- %R5
	@DEBUG_VALUE: _S_copy_chars:__p <- %R6
	@DEBUG_VALUE: _S_copy:__d <- %R6
	@DEBUG_VALUE: _M_local_data:this <- %R5
	@DEBUG_VALUE: basic_string:this <- %R5
	@DEBUG_VALUE: _M_data:this <- %R5
	@DEBUG_VALUE: _M_length:this <- %R5
	@DEBUG_VALUE: _M_set_length:this <- %R5
	@DEBUG_VALUE: _M_data:this <- %R5
	@DEBUG_VALUE: _M_construct<const char *>:this <- %R5
	@DEBUG_VALUE: _M_construct_aux<const char *>:this <- %R5
	@DEBUG_VALUE: _M_construct<const char *>:this <- %R5
	@DEBUG_VALUE: _S_copy_chars:__p <- %R6
	@DEBUG_VALUE: _S_copy:__d <- %R6
	@DEBUG_VALUE: _M_local_data:this <- %R5
	@DEBUG_VALUE: basic_string:this <- %R5
	@DEBUG_VALUE: _M_data:this <- %R5
	@DEBUG_VALUE: _M_length:this <- %R5
	@DEBUG_VALUE: _M_set_length:this <- %R5
	@DEBUG_VALUE: _M_data:this <- %R5
	@DEBUG_VALUE: _M_construct<const char *>:this <- %R5
	@DEBUG_VALUE: _M_construct_aux<const char *>:this <- %R5
	@DEBUG_VALUE: _M_construct<const char *>:this <- %R5
	@DEBUG_VALUE: _M_local_data:this <- %R5
	@DEBUG_VALUE: basic_string:this <- %R5
	@DEBUG_VALUE: _M_data:this <- %R5
	@DEBUG_VALUE: _M_capacity:this <- %R5
	@DEBUG_VALUE: _M_data:this <- %R5
	@DEBUG_VALUE: _M_set_length:this <- %R5
	@DEBUG_VALUE: _M_length:this <- %R5
	@DEBUG_VALUE: _M_data:this <- %R5
	.loc	41 119 21               @ /root/Bela/projects/SOFAlizer-for-Bela/osc.cpp:119:21
	movw	r0, :lower16:hrtf_num
	movt	r0, :upper16:hrtf_num
	ldr	r1, [r0]
	sub	r2, r1, #1
	str	r2, [r0]
	.loc	41 120 17               @ /root/Bela/projects/SOFAlizer-for-Bela/osc.cpp:120:17
	cmp	r1, #0
	bne	.LBB6_127
.Ltmp621:
@ BB#51:
	@DEBUG_VALUE: _M_data:this <- %R5
	@DEBUG_VALUE: _M_length:this <- %R5
	@DEBUG_VALUE: _M_set_length:this <- %R5
	@DEBUG_VALUE: _M_data:this <- %R5
	@DEBUG_VALUE: _M_construct<const char *>:this <- %R5
	@DEBUG_VALUE: _M_construct_aux<const char *>:this <- %R5
	@DEBUG_VALUE: _M_construct<const char *>:this <- %R5
	@DEBUG_VALUE: _S_copy_chars:__p <- %R6
	@DEBUG_VALUE: _S_copy:__d <- %R6
	@DEBUG_VALUE: _M_local_data:this <- %R5
	@DEBUG_VALUE: basic_string:this <- %R5
	@DEBUG_VALUE: _M_data:this <- %R5
	@DEBUG_VALUE: _M_length:this <- %R5
	@DEBUG_VALUE: _M_set_length:this <- %R5
	@DEBUG_VALUE: _M_data:this <- %R5
	@DEBUG_VALUE: _M_construct<const char *>:this <- %R5
	@DEBUG_VALUE: _M_construct_aux<const char *>:this <- %R5
	@DEBUG_VALUE: _M_construct<const char *>:this <- %R5
	@DEBUG_VALUE: _S_copy_chars:__p <- %R6
	@DEBUG_VALUE: _S_copy:__d <- %R6
	@DEBUG_VALUE: _M_local_data:this <- %R5
	@DEBUG_VALUE: basic_string:this <- %R5
	@DEBUG_VALUE: _M_data:this <- %R5
	@DEBUG_VALUE: _M_length:this <- %R5
	@DEBUG_VALUE: _M_set_length:this <- %R5
	@DEBUG_VALUE: _M_data:this <- %R5
	@DEBUG_VALUE: _M_construct<const char *>:this <- %R5
	@DEBUG_VALUE: _M_construct_aux<const char *>:this <- %R5
	@DEBUG_VALUE: _M_construct<const char *>:this <- %R5
	@DEBUG_VALUE: _M_local_data:this <- %R5
	@DEBUG_VALUE: basic_string:this <- %R5
	@DEBUG_VALUE: _M_data:this <- %R5
	@DEBUG_VALUE: _M_capacity:this <- %R5
	@DEBUG_VALUE: _M_data:this <- %R5
	@DEBUG_VALUE: _M_set_length:this <- %R5
	@DEBUG_VALUE: _M_length:this <- %R5
	@DEBUG_VALUE: _M_data:this <- %R5
	.loc	41 121 28               @ /root/Bela/projects/SOFAlizer-for-Bela/osc.cpp:121:28
	movw	r1, :lower16:hrtf_cnt
	movt	r1, :upper16:hrtf_cnt
	ldr	r1, [r1]
	.loc	41 121 36 is_stmt 0     @ /root/Bela/projects/SOFAlizer-for-Bela/osc.cpp:121:36
	sub	r1, r1, #1
	b	.LBB6_126
.Ltmp622:
.LBB6_52:
	@DEBUG_VALUE: _M_data:this <- %R5
	@DEBUG_VALUE: _M_capacity:this <- %R5
	@DEBUG_VALUE: _M_data:this <- %R5
	@DEBUG_VALUE: _M_set_length:this <- %R5
	@DEBUG_VALUE: _M_length:this <- %R5
	@DEBUG_VALUE: _M_data:this <- %R5
	@DEBUG_VALUE: osc_on_receive:msg <- %R4
	@DEBUG_VALUE: ArgReader:e <- 0
	@DEBUG_VALUE: getErr:this <- %R4
	.loc	5 235 31 is_stmt 1 discriminator 1 @ ./include/oscpkt.hh:235:31
	ldr	r1, [r4, #80]
	mov	r0, #0
.Ltmp623:
	.loc	5 310 11                @ ./include/oscpkt.hh:310:11
	cmp	r1, #0
	bne	.LBB6_58
.Ltmp624:
@ BB#53:
	@DEBUG_VALUE: getErr:this <- %R4
	@DEBUG_VALUE: _M_data:this <- %R5
	@DEBUG_VALUE: _M_capacity:this <- %R5
	@DEBUG_VALUE: _M_data:this <- %R5
	@DEBUG_VALUE: _M_set_length:this <- %R5
	@DEBUG_VALUE: _M_length:this <- %R5
	@DEBUG_VALUE: _M_data:this <- %R5
	@DEBUG_VALUE: osc_on_receive:msg <- %R4
	.loc	13 656 66               @ /usr/bin/../lib/gcc/arm-linux-gnueabihf/6.3.0/../../../../include/c++/6.3.0/bits/stl_vector.h:656:66
	ldr	r1, [r4, #56]
	.loc	13 656 40 is_stmt 0     @ /usr/bin/../lib/gcc/arm-linux-gnueabihf/6.3.0/../../../../include/c++/6.3.0/bits/stl_vector.h:656:40
	ldr	r2, [r4, #60]
	cmp	r2, r1
.Ltmp625:
	.loc	7 805 16 is_stmt 1      @ /usr/bin/../lib/gcc/arm-linux-gnueabihf/6.3.0/../../../../include/c++/6.3.0/bits/basic_string.h:805:16
	ldrne	r1, [r4, #36]
.Ltmp626:
	.loc	5 333 11 discriminator 1 @ ./include/oscpkt.hh:333:11
	cmpne	r1, #0
	beq	.LBB6_58
.Ltmp627:
@ BB#54:                                @ %_ZN6oscpkt7Message9ArgReader14currentTypeTagEv.exit5.i
	@DEBUG_VALUE: getErr:this <- %R4
	@DEBUG_VALUE: _M_data:this <- %R5
	@DEBUG_VALUE: _M_capacity:this <- %R5
	@DEBUG_VALUE: _M_data:this <- %R5
	@DEBUG_VALUE: _M_set_length:this <- %R5
	@DEBUG_VALUE: _M_length:this <- %R5
	@DEBUG_VALUE: _M_data:this <- %R5
	@DEBUG_VALUE: osc_on_receive:msg <- %R4
	@DEBUG_VALUE: operator[]:__pos <- 0
	.loc	7 136 28                @ /usr/bin/../lib/gcc/arm-linux-gnueabihf/6.3.0/../../../../include/c++/6.3.0/bits/basic_string.h:136:28
	ldr	r2, [r4, #32]
	mov	r1, #1
.Ltmp628:
	.loc	5 333 59 discriminator 2 @ ./include/oscpkt.hh:333:59
	ldrb	r2, [r2]
.Ltmp629:
	.loc	5 311 16                @ ./include/oscpkt.hh:311:16
	cmp	r2, #84
	beq	.LBB6_57
.Ltmp630:
@ BB#55:                                @ %_ZN6oscpkt7Message9ArgReader14currentTypeTagEv.exit5.i
	@DEBUG_VALUE: getErr:this <- %R4
	@DEBUG_VALUE: _M_data:this <- %R5
	@DEBUG_VALUE: _M_capacity:this <- %R5
	@DEBUG_VALUE: _M_data:this <- %R5
	@DEBUG_VALUE: _M_set_length:this <- %R5
	@DEBUG_VALUE: _M_length:this <- %R5
	@DEBUG_VALUE: _M_data:this <- %R5
	@DEBUG_VALUE: osc_on_receive:msg <- %R4
	cmp	r2, #70
	bne	.LBB6_58
.Ltmp631:
@ BB#56:
	@DEBUG_VALUE: getErr:this <- %R4
	@DEBUG_VALUE: _M_data:this <- %R5
	@DEBUG_VALUE: _M_capacity:this <- %R5
	@DEBUG_VALUE: _M_data:this <- %R5
	@DEBUG_VALUE: _M_set_length:this <- %R5
	@DEBUG_VALUE: _M_length:this <- %R5
	@DEBUG_VALUE: _M_data:this <- %R5
	@DEBUG_VALUE: osc_on_receive:msg <- %R4
	mov	r1, #0
.Ltmp632:
.LBB6_57:                               @ %_ZN6oscpkt7Message9ArgReader7popBoolERb.exit
	@DEBUG_VALUE: getErr:this <- %R4
	@DEBUG_VALUE: _M_data:this <- %R5
	@DEBUG_VALUE: _M_capacity:this <- %R5
	@DEBUG_VALUE: _M_data:this <- %R5
	@DEBUG_VALUE: _M_set_length:this <- %R5
	@DEBUG_VALUE: _M_length:this <- %R5
	@DEBUG_VALUE: _M_data:this <- %R5
	@DEBUG_VALUE: osc_on_receive:msg <- %R4
	mov	r0, r1
.Ltmp633:
.LBB6_58:                               @ %_ZNK6oscpkt7Message9ArgReader14isOkNoMoreArgsEv.exit
	@DEBUG_VALUE: getErr:this <- %R4
	@DEBUG_VALUE: _M_data:this <- %R5
	@DEBUG_VALUE: _M_capacity:this <- %R5
	@DEBUG_VALUE: _M_data:this <- %R5
	@DEBUG_VALUE: _M_set_length:this <- %R5
	@DEBUG_VALUE: _M_length:this <- %R5
	@DEBUG_VALUE: _M_data:this <- %R5
	@DEBUG_VALUE: osc_on_receive:msg <- %R4
	@DEBUG_VALUE: store:__m <- 5
	@DEBUG_VALUE: operator=:this <- %R1
	.loc	8 374 2 discriminator 3 @ /usr/bin/../lib/gcc/arm-linux-gnueabihf/6.3.0/../../../../include/c++/6.3.0/bits/atomic_base.h:374:2
	movw	r1, :lower16:bypass
.Ltmp634:
	dmb	ish
	movt	r1, :upper16:bypass
	strb	r0, [r1]
	dmb	ish
	b	.LBB6_114
.Ltmp635:
.LBB6_59:
	@DEBUG_VALUE: _M_data:this <- %R5
	@DEBUG_VALUE: _M_capacity:this <- %R5
	@DEBUG_VALUE: _M_data:this <- %R5
	@DEBUG_VALUE: _M_set_length:this <- %R5
	@DEBUG_VALUE: _M_length:this <- %R5
	@DEBUG_VALUE: _M_data:this <- %R5
	@DEBUG_VALUE: osc_on_receive:msg <- %R4
	@DEBUG_VALUE: ArgReader:e <- 0
	@DEBUG_VALUE: getErr:this <- %R4
	vmov.i32	d8, #0x0
.Ltmp636:
	@DEBUG_VALUE: precheck:tag <- 102
	@DEBUG_VALUE: popPod<float>:tag <- 102
	.loc	13 656 66               @ /usr/bin/../lib/gcc/arm-linux-gnueabihf/6.3.0/../../../../include/c++/6.3.0/bits/stl_vector.h:656:66
	ldr	r0, [r4, #56]
	.loc	13 656 40 is_stmt 0     @ /usr/bin/../lib/gcc/arm-linux-gnueabihf/6.3.0/../../../../include/c++/6.3.0/bits/stl_vector.h:656:40
	ldr	r1, [r4, #60]
.Ltmp637:
	.loc	5 346 11 is_stmt 1      @ ./include/oscpkt.hh:346:11
	cmp	r1, r0
	beq	.LBB6_66
.Ltmp638:
@ BB#60:
	@DEBUG_VALUE: getErr:this <- %R4
	@DEBUG_VALUE: _M_data:this <- %R5
	@DEBUG_VALUE: _M_capacity:this <- %R5
	@DEBUG_VALUE: _M_data:this <- %R5
	@DEBUG_VALUE: _M_set_length:this <- %R5
	@DEBUG_VALUE: _M_length:this <- %R5
	@DEBUG_VALUE: _M_data:this <- %R5
	@DEBUG_VALUE: osc_on_receive:msg <- %R4
	.loc	5 235 31 discriminator 1 @ ./include/oscpkt.hh:235:31
	ldr	r2, [r4, #80]
	cmp	r2, #0
	bne	.LBB6_66
.Ltmp639:
@ BB#61:
	@DEBUG_VALUE: getErr:this <- %R4
	@DEBUG_VALUE: _M_data:this <- %R5
	@DEBUG_VALUE: _M_capacity:this <- %R5
	@DEBUG_VALUE: _M_data:this <- %R5
	@DEBUG_VALUE: _M_set_length:this <- %R5
	@DEBUG_VALUE: _M_length:this <- %R5
	@DEBUG_VALUE: _M_data:this <- %R5
	@DEBUG_VALUE: osc_on_receive:msg <- %R4
	.loc	7 805 16                @ /usr/bin/../lib/gcc/arm-linux-gnueabihf/6.3.0/../../../../include/c++/6.3.0/bits/basic_string.h:805:16
	ldr	r2, [r4, #36]
.Ltmp640:
	.loc	5 333 11 discriminator 1 @ ./include/oscpkt.hh:333:11
	cmp	r2, #0
	beq	.LBB6_66
.Ltmp641:
@ BB#62:                                @ %_ZN6oscpkt7Message9ArgReader14currentTypeTagEv.exit.i.i.i
	@DEBUG_VALUE: getErr:this <- %R4
	@DEBUG_VALUE: _M_data:this <- %R5
	@DEBUG_VALUE: _M_capacity:this <- %R5
	@DEBUG_VALUE: _M_data:this <- %R5
	@DEBUG_VALUE: _M_set_length:this <- %R5
	@DEBUG_VALUE: _M_length:this <- %R5
	@DEBUG_VALUE: _M_data:this <- %R5
	@DEBUG_VALUE: osc_on_receive:msg <- %R4
	@DEBUG_VALUE: operator[]:__pos <- 0
	.loc	7 136 28                @ /usr/bin/../lib/gcc/arm-linux-gnueabihf/6.3.0/../../../../include/c++/6.3.0/bits/basic_string.h:136:28
	ldr	r2, [r4, #32]
.Ltmp642:
	.loc	5 333 59 discriminator 2 @ ./include/oscpkt.hh:333:59
	ldrb	r2, [r2]
.Ltmp643:
	.loc	5 347 16 discriminator 1 @ ./include/oscpkt.hh:347:16
	cmp	r2, #102
	bne	.LBB6_66
.Ltmp644:
@ BB#63:                                @ %_ZN6oscpkt7Message9ArgReader8popFloatERf.exit
	@DEBUG_VALUE: getErr:this <- %R4
	@DEBUG_VALUE: _M_data:this <- %R5
	@DEBUG_VALUE: _M_capacity:this <- %R5
	@DEBUG_VALUE: _M_data:this <- %R5
	@DEBUG_VALUE: _M_set_length:this <- %R5
	@DEBUG_VALUE: _M_length:this <- %R5
	@DEBUG_VALUE: _M_data:this <- %R5
	@DEBUG_VALUE: osc_on_receive:msg <- %R4
	@DEBUG_VALUE: argBeg:idx <- 0
	.loc	13 656 66               @ /usr/bin/../lib/gcc/arm-linux-gnueabihf/6.3.0/../../../../include/c++/6.3.0/bits/stl_vector.h:656:66
	ldr	r2, [r4, #68]
.Ltmp645:
	.loc	13 656 50 is_stmt 0     @ /usr/bin/../lib/gcc/arm-linux-gnueabihf/6.3.0/../../../../include/c++/6.3.0/bits/stl_vector.h:656:50
	sub	r1, r1, r0
.Ltmp646:
	.loc	13 656 40               @ /usr/bin/../lib/gcc/arm-linux-gnueabihf/6.3.0/../../../../include/c++/6.3.0/bits/stl_vector.h:656:40
	ldr	r3, [r4, #72]
.Ltmp647:
	.loc	5 326 62 is_stmt 1      @ ./include/oscpkt.hh:326:62
	ldr	r7, [r0]
.Ltmp648:
	.loc	13 656 50               @ /usr/bin/../lib/gcc/arm-linux-gnueabihf/6.3.0/../../../../include/c++/6.3.0/bits/stl_vector.h:656:50
	asr	r1, r1, #3
.Ltmp649:
	.loc	5 326 40                @ ./include/oscpkt.hh:326:40
	cmp	r3, r2
	addne	r7, r7, r2
.Ltmp650:
	@DEBUG_VALUE: i <- 1
	@DEBUG_VALUE: bytes2pod<float>:bytes <- %R7
	.loc	5 346 11                @ ./include/oscpkt.hh:346:11
	cmp	r1, #2
.Ltmp651:
	.loc	7 805 16                @ /usr/bin/../lib/gcc/arm-linux-gnueabihf/6.3.0/../../../../include/c++/6.3.0/bits/basic_string.h:805:16
	ldrhs	r1, [r4, #36]
.Ltmp652:
	.loc	5 136 18                @ ./include/oscpkt.hh:136:18
	ldrb	r6, [r7, #2]
.Ltmp653:
	@DEBUG_VALUE: i <- 0
	ldrb	r2, [r7]
.Ltmp654:
	.loc	5 333 11 discriminator 1 @ ./include/oscpkt.hh:333:11
	cmphs	r1, #2
.Ltmp655:
	.loc	5 136 18                @ ./include/oscpkt.hh:136:18
	ldrb	r3, [r7, #1]
	ldrb	r7, [r7, #3]
.Ltmp656:
	orr	r7, r7, r6, lsl #8
	orr	r3, r7, r3, lsl #16
	orr	r2, r3, r2, lsl #24
.Ltmp657:
	@DEBUG_VALUE: i <- 1
	.loc	5 341 7                 @ ./include/oscpkt.hh:341:7
	vmov	d0, r2, r2
.Ltmp658:
	@DEBUG_VALUE: precheck:tag <- 102
	@DEBUG_VALUE: popPod<float>:tag <- 102
	vcvt.f64.f32	d9, s0
	blo	.LBB6_67
.Ltmp659:
@ BB#64:                                @ %_ZN6oscpkt7Message9ArgReader14currentTypeTagEv.exit.i.i.i50
	@DEBUG_VALUE: getErr:this <- %R4
	@DEBUG_VALUE: _M_data:this <- %R5
	@DEBUG_VALUE: _M_capacity:this <- %R5
	@DEBUG_VALUE: _M_data:this <- %R5
	@DEBUG_VALUE: _M_set_length:this <- %R5
	@DEBUG_VALUE: _M_length:this <- %R5
	@DEBUG_VALUE: _M_data:this <- %R5
	@DEBUG_VALUE: osc_on_receive:msg <- %R4
	@DEBUG_VALUE: operator[]:__pos <- 1
	.loc	7 136 28                @ /usr/bin/../lib/gcc/arm-linux-gnueabihf/6.3.0/../../../../include/c++/6.3.0/bits/basic_string.h:136:28
	ldr	r1, [r4, #32]
.Ltmp660:
	.loc	5 333 59 discriminator 2 @ ./include/oscpkt.hh:333:59
	ldrb	r1, [r1, #1]
.Ltmp661:
	.loc	5 347 16 discriminator 1 @ ./include/oscpkt.hh:347:16
	cmp	r1, #102
	bne	.LBB6_67
.Ltmp662:
@ BB#65:
	@DEBUG_VALUE: getErr:this <- %R4
	@DEBUG_VALUE: _M_data:this <- %R5
	@DEBUG_VALUE: _M_capacity:this <- %R5
	@DEBUG_VALUE: _M_data:this <- %R5
	@DEBUG_VALUE: _M_set_length:this <- %R5
	@DEBUG_VALUE: _M_length:this <- %R5
	@DEBUG_VALUE: _M_data:this <- %R5
	@DEBUG_VALUE: osc_on_receive:msg <- %R4
	@DEBUG_VALUE: argBeg:idx <- 1
	.loc	13 656 66               @ /usr/bin/../lib/gcc/arm-linux-gnueabihf/6.3.0/../../../../include/c++/6.3.0/bits/stl_vector.h:656:66
	ldr	r1, [r4, #68]
	.loc	13 656 40 is_stmt 0     @ /usr/bin/../lib/gcc/arm-linux-gnueabihf/6.3.0/../../../../include/c++/6.3.0/bits/stl_vector.h:656:40
	ldr	r2, [r4, #72]
.Ltmp663:
	.loc	5 326 62 is_stmt 1      @ ./include/oscpkt.hh:326:62
	ldr	r0, [r0, #8]
	.loc	5 326 40 is_stmt 0      @ ./include/oscpkt.hh:326:40
	cmp	r2, r1
	addne	r0, r0, r1
.Ltmp664:
	@DEBUG_VALUE: i <- 1
	@DEBUG_VALUE: bytes2pod<float>:bytes <- %R0
	.loc	5 136 18 is_stmt 1      @ ./include/oscpkt.hh:136:18
	ldrb	r3, [r0, #2]
.Ltmp665:
	@DEBUG_VALUE: i <- 0
	ldrb	r1, [r0]
	ldrb	r2, [r0, #1]
	ldrb	r0, [r0, #3]
.Ltmp666:
	orr	r0, r0, r3, lsl #8
	orr	r0, r0, r2, lsl #16
	orr	r0, r0, r1, lsl #24
.Ltmp667:
	@DEBUG_VALUE: i <- 1
	.loc	41 48 48 discriminator 3 @ /root/Bela/projects/SOFAlizer-for-Bela/osc.cpp:48:48
	vmov	d0, r0, r0
	vcvt.f64.f32	d8, s0
	b	.LBB6_67
.Ltmp668:
.LBB6_66:
	@DEBUG_VALUE: getErr:this <- %R4
	@DEBUG_VALUE: _M_data:this <- %R5
	@DEBUG_VALUE: _M_capacity:this <- %R5
	@DEBUG_VALUE: _M_data:this <- %R5
	@DEBUG_VALUE: _M_set_length:this <- %R5
	@DEBUG_VALUE: _M_length:this <- %R5
	@DEBUG_VALUE: _M_data:this <- %R5
	@DEBUG_VALUE: osc_on_receive:msg <- %R4
	vmov.i32	d9, #0x0
.Ltmp669:
.LBB6_67:                               @ %_ZNK6oscpkt7Message9ArgReader14isOkNoMoreArgsEv.exit64
	@DEBUG_VALUE: getErr:this <- %R4
	@DEBUG_VALUE: _M_data:this <- %R5
	@DEBUG_VALUE: _M_capacity:this <- %R5
	@DEBUG_VALUE: _M_data:this <- %R5
	@DEBUG_VALUE: _M_set_length:this <- %R5
	@DEBUG_VALUE: _M_length:this <- %R5
	@DEBUG_VALUE: _M_data:this <- %R5
	@DEBUG_VALUE: osc_on_receive:msg <- %R4
	.loc	1 747 7                 @ /usr/bin/../lib/gcc/arm-linux-gnueabihf/6.3.0/../../../../include/arm-linux-gnueabihf/c++/6.3.0/bits/gthr-default.h:747:7
	movw	r4, :lower16:__pthread_key_create
.Ltmp670:
	movt	r4, :upper16:__pthread_key_create
	cmp	r4, #0
	beq	.LBB6_82
.Ltmp671:
@ BB#68:                                @ %_ZL20__gthread_mutex_lockP15pthread_mutex_t.exit.i66
	@DEBUG_VALUE: _M_data:this <- %R5
	@DEBUG_VALUE: _M_capacity:this <- %R5
	@DEBUG_VALUE: _M_data:this <- %R5
	@DEBUG_VALUE: _M_set_length:this <- %R5
	@DEBUG_VALUE: _M_length:this <- %R5
	@DEBUG_VALUE: _M_data:this <- %R5
	.loc	1 748 12                @ /usr/bin/../lib/gcc/arm-linux-gnueabihf/6.3.0/../../../../include/arm-linux-gnueabihf/c++/6.3.0/bits/gthr-default.h:748:12
	movw	r0, :lower16:m_left_pos
	movt	r0, :upper16:m_left_pos
.Ltmp672:
	@DEBUG_VALUE: unlock:this <- %R0
	bl	pthread_mutex_lock
.Ltmp673:
	@DEBUG_VALUE: lock:__e <- %R0
	.loc	53 106 11               @ /usr/bin/../lib/gcc/arm-linux-gnueabihf/6.3.0/../../../../include/c++/6.3.0/bits/std_mutex.h:106:11
	cmp	r0, #0
	bne	.LBB6_142
.Ltmp674:
@ BB#69:                                @ %_ZNSt5mutex4lockEv.exit67
	@DEBUG_VALUE: lock:__e <- %R0
	@DEBUG_VALUE: _M_data:this <- %R5
	@DEBUG_VALUE: _M_capacity:this <- %R5
	@DEBUG_VALUE: _M_data:this <- %R5
	@DEBUG_VALUE: _M_set_length:this <- %R5
	@DEBUG_VALUE: _M_length:this <- %R5
	@DEBUG_VALUE: _M_data:this <- %R5
	.loc	41 50 36                @ /root/Bela/projects/SOFAlizer-for-Bela/osc.cpp:50:36
	vldr	d10, .LCPI6_3
	vmov.f64	d0, d9
	vorr	d1, d10, d10
	bl	__fmod_finite
.Ltmp675:
	vcvt.f32.f64	s0, d0
	.loc	41 50 34 is_stmt 0      @ /root/Bela/projects/SOFAlizer-for-Bela/osc.cpp:50:34
	movw	r5, :lower16:leftPosition
.Ltmp676:
	movt	r5, :upper16:leftPosition
	vstr	s0, [r5, #16]
	.loc	41 51 44 is_stmt 1      @ /root/Bela/projects/SOFAlizer-for-Bela/osc.cpp:51:44
	vorr	d1, d10, d10
	vmov.f64	d0, d8
	bl	__fmod_finite
	vcvt.f32.f64	s0, d0
	.loc	41 51 42 is_stmt 0      @ /root/Bela/projects/SOFAlizer-for-Bela/osc.cpp:51:42
	vstr	s0, [r5, #20]
	b	.LBB6_110
.Ltmp677:
.LBB6_70:
	@DEBUG_VALUE: _M_data:this <- %R5
	@DEBUG_VALUE: _M_capacity:this <- %R5
	@DEBUG_VALUE: _M_data:this <- %R5
	@DEBUG_VALUE: _M_set_length:this <- %R5
	@DEBUG_VALUE: _M_length:this <- %R5
	@DEBUG_VALUE: _M_data:this <- %R5
	@DEBUG_VALUE: osc_on_receive:msg <- %R4
	@DEBUG_VALUE: ArgReader:e <- 0
	@DEBUG_VALUE: getErr:this <- %R4
	vmov.i32	d8, #0x0
.Ltmp678:
	@DEBUG_VALUE: precheck:tag <- 102
	@DEBUG_VALUE: popPod<float>:tag <- 102
	.loc	13 656 66 is_stmt 1     @ /usr/bin/../lib/gcc/arm-linux-gnueabihf/6.3.0/../../../../include/c++/6.3.0/bits/stl_vector.h:656:66
	ldr	r0, [r4, #56]
	.loc	13 656 40 is_stmt 0     @ /usr/bin/../lib/gcc/arm-linux-gnueabihf/6.3.0/../../../../include/c++/6.3.0/bits/stl_vector.h:656:40
	ldr	r1, [r4, #60]
.Ltmp679:
	.loc	5 346 11 is_stmt 1      @ ./include/oscpkt.hh:346:11
	cmp	r1, r0
	beq	.LBB6_77
.Ltmp680:
@ BB#71:
	@DEBUG_VALUE: getErr:this <- %R4
	@DEBUG_VALUE: _M_data:this <- %R5
	@DEBUG_VALUE: _M_capacity:this <- %R5
	@DEBUG_VALUE: _M_data:this <- %R5
	@DEBUG_VALUE: _M_set_length:this <- %R5
	@DEBUG_VALUE: _M_length:this <- %R5
	@DEBUG_VALUE: _M_data:this <- %R5
	@DEBUG_VALUE: osc_on_receive:msg <- %R4
	.loc	5 235 31 discriminator 1 @ ./include/oscpkt.hh:235:31
	ldr	r2, [r4, #80]
	cmp	r2, #0
	bne	.LBB6_77
.Ltmp681:
@ BB#72:
	@DEBUG_VALUE: getErr:this <- %R4
	@DEBUG_VALUE: _M_data:this <- %R5
	@DEBUG_VALUE: _M_capacity:this <- %R5
	@DEBUG_VALUE: _M_data:this <- %R5
	@DEBUG_VALUE: _M_set_length:this <- %R5
	@DEBUG_VALUE: _M_length:this <- %R5
	@DEBUG_VALUE: _M_data:this <- %R5
	@DEBUG_VALUE: osc_on_receive:msg <- %R4
	.loc	7 805 16                @ /usr/bin/../lib/gcc/arm-linux-gnueabihf/6.3.0/../../../../include/c++/6.3.0/bits/basic_string.h:805:16
	ldr	r2, [r4, #36]
.Ltmp682:
	.loc	5 333 11 discriminator 1 @ ./include/oscpkt.hh:333:11
	cmp	r2, #0
	beq	.LBB6_77
.Ltmp683:
@ BB#73:                                @ %_ZN6oscpkt7Message9ArgReader14currentTypeTagEv.exit.i.i.i84
	@DEBUG_VALUE: getErr:this <- %R4
	@DEBUG_VALUE: _M_data:this <- %R5
	@DEBUG_VALUE: _M_capacity:this <- %R5
	@DEBUG_VALUE: _M_data:this <- %R5
	@DEBUG_VALUE: _M_set_length:this <- %R5
	@DEBUG_VALUE: _M_length:this <- %R5
	@DEBUG_VALUE: _M_data:this <- %R5
	@DEBUG_VALUE: osc_on_receive:msg <- %R4
	@DEBUG_VALUE: operator[]:__pos <- 0
	.loc	7 136 28                @ /usr/bin/../lib/gcc/arm-linux-gnueabihf/6.3.0/../../../../include/c++/6.3.0/bits/basic_string.h:136:28
	ldr	r2, [r4, #32]
.Ltmp684:
	.loc	5 333 59 discriminator 2 @ ./include/oscpkt.hh:333:59
	ldrb	r2, [r2]
.Ltmp685:
	.loc	5 347 16 discriminator 1 @ ./include/oscpkt.hh:347:16
	cmp	r2, #102
	bne	.LBB6_77
.Ltmp686:
@ BB#74:                                @ %_ZN6oscpkt7Message9ArgReader8popFloatERf.exit97
	@DEBUG_VALUE: getErr:this <- %R4
	@DEBUG_VALUE: _M_data:this <- %R5
	@DEBUG_VALUE: _M_capacity:this <- %R5
	@DEBUG_VALUE: _M_data:this <- %R5
	@DEBUG_VALUE: _M_set_length:this <- %R5
	@DEBUG_VALUE: _M_length:this <- %R5
	@DEBUG_VALUE: _M_data:this <- %R5
	@DEBUG_VALUE: osc_on_receive:msg <- %R4
	@DEBUG_VALUE: argBeg:idx <- 0
	.loc	13 656 66               @ /usr/bin/../lib/gcc/arm-linux-gnueabihf/6.3.0/../../../../include/c++/6.3.0/bits/stl_vector.h:656:66
	ldr	r2, [r4, #68]
.Ltmp687:
	.loc	13 656 50 is_stmt 0     @ /usr/bin/../lib/gcc/arm-linux-gnueabihf/6.3.0/../../../../include/c++/6.3.0/bits/stl_vector.h:656:50
	sub	r1, r1, r0
.Ltmp688:
	.loc	13 656 40               @ /usr/bin/../lib/gcc/arm-linux-gnueabihf/6.3.0/../../../../include/c++/6.3.0/bits/stl_vector.h:656:40
	ldr	r3, [r4, #72]
.Ltmp689:
	.loc	5 326 62 is_stmt 1      @ ./include/oscpkt.hh:326:62
	ldr	r7, [r0]
.Ltmp690:
	.loc	13 656 50               @ /usr/bin/../lib/gcc/arm-linux-gnueabihf/6.3.0/../../../../include/c++/6.3.0/bits/stl_vector.h:656:50
	asr	r1, r1, #3
.Ltmp691:
	.loc	5 326 40                @ ./include/oscpkt.hh:326:40
	cmp	r3, r2
	addne	r7, r7, r2
.Ltmp692:
	@DEBUG_VALUE: i <- 1
	@DEBUG_VALUE: bytes2pod<float>:bytes <- %R7
	.loc	5 346 11                @ ./include/oscpkt.hh:346:11
	cmp	r1, #2
.Ltmp693:
	.loc	7 805 16                @ /usr/bin/../lib/gcc/arm-linux-gnueabihf/6.3.0/../../../../include/c++/6.3.0/bits/basic_string.h:805:16
	ldrhs	r1, [r4, #36]
.Ltmp694:
	.loc	5 136 18                @ ./include/oscpkt.hh:136:18
	ldrb	r6, [r7, #2]
.Ltmp695:
	@DEBUG_VALUE: i <- 0
	ldrb	r2, [r7]
.Ltmp696:
	.loc	5 333 11 discriminator 1 @ ./include/oscpkt.hh:333:11
	cmphs	r1, #2
.Ltmp697:
	.loc	5 136 18                @ ./include/oscpkt.hh:136:18
	ldrb	r3, [r7, #1]
	ldrb	r7, [r7, #3]
.Ltmp698:
	orr	r7, r7, r6, lsl #8
	orr	r3, r7, r3, lsl #16
	orr	r2, r3, r2, lsl #24
.Ltmp699:
	@DEBUG_VALUE: i <- 1
	.loc	5 341 7                 @ ./include/oscpkt.hh:341:7
	vmov	d0, r2, r2
.Ltmp700:
	@DEBUG_VALUE: precheck:tag <- 102
	@DEBUG_VALUE: popPod<float>:tag <- 102
	vcvt.f64.f32	d9, s0
	blo	.LBB6_78
.Ltmp701:
@ BB#75:                                @ %_ZN6oscpkt7Message9ArgReader14currentTypeTagEv.exit.i.i.i100
	@DEBUG_VALUE: getErr:this <- %R4
	@DEBUG_VALUE: _M_data:this <- %R5
	@DEBUG_VALUE: _M_capacity:this <- %R5
	@DEBUG_VALUE: _M_data:this <- %R5
	@DEBUG_VALUE: _M_set_length:this <- %R5
	@DEBUG_VALUE: _M_length:this <- %R5
	@DEBUG_VALUE: _M_data:this <- %R5
	@DEBUG_VALUE: osc_on_receive:msg <- %R4
	@DEBUG_VALUE: operator[]:__pos <- 1
	.loc	7 136 28                @ /usr/bin/../lib/gcc/arm-linux-gnueabihf/6.3.0/../../../../include/c++/6.3.0/bits/basic_string.h:136:28
	ldr	r1, [r4, #32]
.Ltmp702:
	.loc	5 333 59 discriminator 2 @ ./include/oscpkt.hh:333:59
	ldrb	r1, [r1, #1]
.Ltmp703:
	.loc	5 347 16 discriminator 1 @ ./include/oscpkt.hh:347:16
	cmp	r1, #102
	bne	.LBB6_78
.Ltmp704:
@ BB#76:
	@DEBUG_VALUE: getErr:this <- %R4
	@DEBUG_VALUE: _M_data:this <- %R5
	@DEBUG_VALUE: _M_capacity:this <- %R5
	@DEBUG_VALUE: _M_data:this <- %R5
	@DEBUG_VALUE: _M_set_length:this <- %R5
	@DEBUG_VALUE: _M_length:this <- %R5
	@DEBUG_VALUE: _M_data:this <- %R5
	@DEBUG_VALUE: osc_on_receive:msg <- %R4
	@DEBUG_VALUE: argBeg:idx <- 1
	.loc	13 656 66               @ /usr/bin/../lib/gcc/arm-linux-gnueabihf/6.3.0/../../../../include/c++/6.3.0/bits/stl_vector.h:656:66
	ldr	r1, [r4, #68]
	.loc	13 656 40 is_stmt 0     @ /usr/bin/../lib/gcc/arm-linux-gnueabihf/6.3.0/../../../../include/c++/6.3.0/bits/stl_vector.h:656:40
	ldr	r2, [r4, #72]
.Ltmp705:
	.loc	5 326 62 is_stmt 1      @ ./include/oscpkt.hh:326:62
	ldr	r0, [r0, #8]
	.loc	5 326 40 is_stmt 0      @ ./include/oscpkt.hh:326:40
	cmp	r2, r1
	addne	r0, r0, r1
.Ltmp706:
	@DEBUG_VALUE: i <- 1
	@DEBUG_VALUE: bytes2pod<float>:bytes <- %R0
	.loc	5 136 18 is_stmt 1      @ ./include/oscpkt.hh:136:18
	ldrb	r3, [r0, #2]
.Ltmp707:
	@DEBUG_VALUE: i <- 0
	ldrb	r1, [r0]
	ldrb	r2, [r0, #1]
	ldrb	r0, [r0, #3]
.Ltmp708:
	orr	r0, r0, r3, lsl #8
	orr	r0, r0, r2, lsl #16
	orr	r0, r0, r1, lsl #24
.Ltmp709:
	@DEBUG_VALUE: i <- 1
	.loc	41 60 48 discriminator 3 @ /root/Bela/projects/SOFAlizer-for-Bela/osc.cpp:60:48
	vmov	d0, r0, r0
	vcvt.f64.f32	d8, s0
	b	.LBB6_78
.Ltmp710:
.LBB6_77:
	@DEBUG_VALUE: getErr:this <- %R4
	@DEBUG_VALUE: _M_data:this <- %R5
	@DEBUG_VALUE: _M_capacity:this <- %R5
	@DEBUG_VALUE: _M_data:this <- %R5
	@DEBUG_VALUE: _M_set_length:this <- %R5
	@DEBUG_VALUE: _M_length:this <- %R5
	@DEBUG_VALUE: _M_data:this <- %R5
	@DEBUG_VALUE: osc_on_receive:msg <- %R4
	vmov.i32	d9, #0x0
.Ltmp711:
.LBB6_78:                               @ %_ZNK6oscpkt7Message9ArgReader14isOkNoMoreArgsEv.exit115
	@DEBUG_VALUE: getErr:this <- %R4
	@DEBUG_VALUE: _M_data:this <- %R5
	@DEBUG_VALUE: _M_capacity:this <- %R5
	@DEBUG_VALUE: _M_data:this <- %R5
	@DEBUG_VALUE: _M_set_length:this <- %R5
	@DEBUG_VALUE: _M_length:this <- %R5
	@DEBUG_VALUE: _M_data:this <- %R5
	@DEBUG_VALUE: osc_on_receive:msg <- %R4
	.loc	1 747 7                 @ /usr/bin/../lib/gcc/arm-linux-gnueabihf/6.3.0/../../../../include/arm-linux-gnueabihf/c++/6.3.0/bits/gthr-default.h:747:7
	movw	r4, :lower16:__pthread_key_create
.Ltmp712:
	movt	r4, :upper16:__pthread_key_create
	cmp	r4, #0
	beq	.LBB6_89
.Ltmp713:
@ BB#79:                                @ %_ZL20__gthread_mutex_lockP15pthread_mutex_t.exit.i118
	@DEBUG_VALUE: _M_data:this <- %R5
	@DEBUG_VALUE: _M_capacity:this <- %R5
	@DEBUG_VALUE: _M_data:this <- %R5
	@DEBUG_VALUE: _M_set_length:this <- %R5
	@DEBUG_VALUE: _M_length:this <- %R5
	@DEBUG_VALUE: _M_data:this <- %R5
	.loc	1 748 12                @ /usr/bin/../lib/gcc/arm-linux-gnueabihf/6.3.0/../../../../include/arm-linux-gnueabihf/c++/6.3.0/bits/gthr-default.h:748:12
	movw	r0, :lower16:m_right_pos
	movt	r0, :upper16:m_right_pos
.Ltmp714:
	@DEBUG_VALUE: unlock:this <- %R0
	bl	pthread_mutex_lock
.Ltmp715:
	@DEBUG_VALUE: lock:__e <- %R0
	.loc	53 106 11               @ /usr/bin/../lib/gcc/arm-linux-gnueabihf/6.3.0/../../../../include/c++/6.3.0/bits/std_mutex.h:106:11
	cmp	r0, #0
	bne	.LBB6_142
.Ltmp716:
@ BB#80:                                @ %_ZNSt5mutex4lockEv.exit119
	@DEBUG_VALUE: lock:__e <- %R0
	@DEBUG_VALUE: _M_data:this <- %R5
	@DEBUG_VALUE: _M_capacity:this <- %R5
	@DEBUG_VALUE: _M_data:this <- %R5
	@DEBUG_VALUE: _M_set_length:this <- %R5
	@DEBUG_VALUE: _M_length:this <- %R5
	@DEBUG_VALUE: _M_data:this <- %R5
	.loc	41 62 36                @ /root/Bela/projects/SOFAlizer-for-Bela/osc.cpp:62:36
	vldr	d10, .LCPI6_3
	vmov.f64	d0, d9
	vorr	d1, d10, d10
	bl	__fmod_finite
.Ltmp717:
	vcvt.f32.f64	s0, d0
	.loc	41 62 34 is_stmt 0      @ /root/Bela/projects/SOFAlizer-for-Bela/osc.cpp:62:34
	movw	r5, :lower16:righPosition
.Ltmp718:
	movt	r5, :upper16:righPosition
	vstr	s0, [r5, #16]
	.loc	41 63 44 is_stmt 1      @ /root/Bela/projects/SOFAlizer-for-Bela/osc.cpp:63:44
	vorr	d1, d10, d10
	vmov.f64	d0, d8
	bl	__fmod_finite
	vcvt.f32.f64	s0, d0
.Ltmp719:
	.loc	1 777 7                 @ /usr/bin/../lib/gcc/arm-linux-gnueabihf/6.3.0/../../../../include/arm-linux-gnueabihf/c++/6.3.0/bits/gthr-default.h:777:7
	cmp	r4, #0
.Ltmp720:
	.loc	41 63 42                @ /root/Bela/projects/SOFAlizer-for-Bela/osc.cpp:63:42
	vstr	s0, [r5, #20]
	beq	.LBB6_114
@ BB#81:
.Ltmp721:
	.loc	1 778 12                @ /usr/bin/../lib/gcc/arm-linux-gnueabihf/6.3.0/../../../../include/arm-linux-gnueabihf/c++/6.3.0/bits/gthr-default.h:778:12
	movw	r0, :lower16:m_right_pos
	movt	r0, :upper16:m_right_pos
.Ltmp722:
	@DEBUG_VALUE: unlock:this <- %R0
	bl	pthread_mutex_unlock
.Ltmp723:
	b	.LBB6_114
.Ltmp724:
.LBB6_82:                               @ %_ZNSt5mutex6unlockEv.exit68.critedge
	@DEBUG_VALUE: _M_data:this <- %R5
	@DEBUG_VALUE: _M_capacity:this <- %R5
	@DEBUG_VALUE: _M_data:this <- %R5
	@DEBUG_VALUE: _M_set_length:this <- %R5
	@DEBUG_VALUE: _M_length:this <- %R5
	@DEBUG_VALUE: _M_data:this <- %R5
	.loc	41 50 36                @ /root/Bela/projects/SOFAlizer-for-Bela/osc.cpp:50:36
	vldr	d10, .LCPI6_3
	vmov.f64	d0, d9
	vorr	d1, d10, d10
	bl	__fmod_finite
	vcvt.f32.f64	s0, d0
	.loc	41 50 34 is_stmt 0      @ /root/Bela/projects/SOFAlizer-for-Bela/osc.cpp:50:34
	movw	r4, :lower16:leftPosition
	movt	r4, :upper16:leftPosition
	b	.LBB6_90
.Ltmp725:
.LBB6_83:
	@DEBUG_VALUE: _M_data:this <- %R5
	@DEBUG_VALUE: _M_capacity:this <- %R5
	@DEBUG_VALUE: _M_data:this <- %R5
	@DEBUG_VALUE: _M_set_length:this <- %R5
	@DEBUG_VALUE: _M_length:this <- %R5
	@DEBUG_VALUE: _M_data:this <- %R5
	@DEBUG_VALUE: osc_on_receive:msg <- %R4
	@DEBUG_VALUE: ArgReader:e <- 0
	@DEBUG_VALUE: getErr:this <- %R4
	vmov.f32	d9, #-3.000000e+01
.Ltmp726:
	.loc	13 656 66 is_stmt 1     @ /usr/bin/../lib/gcc/arm-linux-gnueabihf/6.3.0/../../../../include/c++/6.3.0/bits/stl_vector.h:656:66
	ldr	r0, [r4, #56]
	.loc	13 656 40 is_stmt 0     @ /usr/bin/../lib/gcc/arm-linux-gnueabihf/6.3.0/../../../../include/c++/6.3.0/bits/stl_vector.h:656:40
	ldr	r1, [r4, #60]
	vmov.i32	d8, #0x0
.Ltmp727:
	@DEBUG_VALUE: precheck:tag <- 102
	@DEBUG_VALUE: popPod<float>:tag <- 102
	.loc	5 346 11 is_stmt 1      @ ./include/oscpkt.hh:346:11
	cmp	r1, r0
	beq	.LBB6_99
.Ltmp728:
@ BB#84:
	@DEBUG_VALUE: getErr:this <- %R4
	@DEBUG_VALUE: _M_data:this <- %R5
	@DEBUG_VALUE: _M_capacity:this <- %R5
	@DEBUG_VALUE: _M_data:this <- %R5
	@DEBUG_VALUE: _M_set_length:this <- %R5
	@DEBUG_VALUE: _M_length:this <- %R5
	@DEBUG_VALUE: _M_data:this <- %R5
	@DEBUG_VALUE: osc_on_receive:msg <- %R4
	.loc	5 235 31 discriminator 1 @ ./include/oscpkt.hh:235:31
	ldr	r2, [r4, #80]
	cmp	r2, #0
	bne	.LBB6_99
.Ltmp729:
@ BB#85:
	@DEBUG_VALUE: getErr:this <- %R4
	@DEBUG_VALUE: _M_data:this <- %R5
	@DEBUG_VALUE: _M_capacity:this <- %R5
	@DEBUG_VALUE: _M_data:this <- %R5
	@DEBUG_VALUE: _M_set_length:this <- %R5
	@DEBUG_VALUE: _M_length:this <- %R5
	@DEBUG_VALUE: _M_data:this <- %R5
	@DEBUG_VALUE: osc_on_receive:msg <- %R4
	.loc	7 805 16                @ /usr/bin/../lib/gcc/arm-linux-gnueabihf/6.3.0/../../../../include/c++/6.3.0/bits/basic_string.h:805:16
	ldr	r2, [r4, #36]
.Ltmp730:
	.loc	5 333 11 discriminator 1 @ ./include/oscpkt.hh:333:11
	cmp	r2, #0
	beq	.LBB6_98
.Ltmp731:
@ BB#86:                                @ %_ZN6oscpkt7Message9ArgReader14currentTypeTagEv.exit.i.i.i137
	@DEBUG_VALUE: getErr:this <- %R4
	@DEBUG_VALUE: _M_data:this <- %R5
	@DEBUG_VALUE: _M_capacity:this <- %R5
	@DEBUG_VALUE: _M_data:this <- %R5
	@DEBUG_VALUE: _M_set_length:this <- %R5
	@DEBUG_VALUE: _M_length:this <- %R5
	@DEBUG_VALUE: _M_data:this <- %R5
	@DEBUG_VALUE: osc_on_receive:msg <- %R4
	@DEBUG_VALUE: operator[]:__pos <- 0
	.loc	7 136 28                @ /usr/bin/../lib/gcc/arm-linux-gnueabihf/6.3.0/../../../../include/c++/6.3.0/bits/basic_string.h:136:28
	ldr	r2, [r4, #32]
.Ltmp732:
	.loc	5 333 59 discriminator 2 @ ./include/oscpkt.hh:333:59
	ldrb	r2, [r2]
.Ltmp733:
	.loc	5 347 16 discriminator 1 @ ./include/oscpkt.hh:347:16
	cmp	r2, #102
	bne	.LBB6_98
.Ltmp734:
@ BB#87:                                @ %_ZN6oscpkt7Message9ArgReader8popFloatERf.exit150
	@DEBUG_VALUE: getErr:this <- %R4
	@DEBUG_VALUE: _M_data:this <- %R5
	@DEBUG_VALUE: _M_capacity:this <- %R5
	@DEBUG_VALUE: _M_data:this <- %R5
	@DEBUG_VALUE: _M_set_length:this <- %R5
	@DEBUG_VALUE: _M_length:this <- %R5
	@DEBUG_VALUE: _M_data:this <- %R5
	@DEBUG_VALUE: osc_on_receive:msg <- %R4
	@DEBUG_VALUE: argBeg:idx <- 0
	.loc	13 656 66               @ /usr/bin/../lib/gcc/arm-linux-gnueabihf/6.3.0/../../../../include/c++/6.3.0/bits/stl_vector.h:656:66
	ldr	r2, [r4, #68]
.Ltmp735:
	.loc	13 656 50 is_stmt 0     @ /usr/bin/../lib/gcc/arm-linux-gnueabihf/6.3.0/../../../../include/c++/6.3.0/bits/stl_vector.h:656:50
	sub	r1, r1, r0
.Ltmp736:
	.loc	13 656 40               @ /usr/bin/../lib/gcc/arm-linux-gnueabihf/6.3.0/../../../../include/c++/6.3.0/bits/stl_vector.h:656:40
	ldr	r3, [r4, #72]
.Ltmp737:
	.loc	5 326 62 is_stmt 1      @ ./include/oscpkt.hh:326:62
	ldr	r7, [r0]
.Ltmp738:
	.loc	13 656 50               @ /usr/bin/../lib/gcc/arm-linux-gnueabihf/6.3.0/../../../../include/c++/6.3.0/bits/stl_vector.h:656:50
	asr	r1, r1, #3
.Ltmp739:
	.loc	5 326 40                @ ./include/oscpkt.hh:326:40
	cmp	r3, r2
.Ltmp740:
	.loc	5 341 7                 @ ./include/oscpkt.hh:341:7
	vldr	s0, .LCPI6_4
.Ltmp741:
	.loc	5 326 40                @ ./include/oscpkt.hh:326:40
	addne	r7, r7, r2
.Ltmp742:
	@DEBUG_VALUE: i <- 1
	@DEBUG_VALUE: bytes2pod<float>:bytes <- %R7
	.loc	5 346 11                @ ./include/oscpkt.hh:346:11
	cmp	r1, #2
.Ltmp743:
	.loc	5 136 18                @ ./include/oscpkt.hh:136:18
	ldrb	r6, [r7, #2]
.Ltmp744:
	@DEBUG_VALUE: i <- 0
	ldrb	r2, [r7]
	ldrb	r3, [r7, #1]
	ldrb	r7, [r7, #3]
.Ltmp745:
	orr	r7, r7, r6, lsl #8
	orr	r3, r7, r3, lsl #16
	orr	r2, r3, r2, lsl #24
.Ltmp746:
	@DEBUG_VALUE: i <- 1
	.loc	5 341 7                 @ ./include/oscpkt.hh:341:7
	vmov	d16, r2, r2
.Ltmp747:
	@DEBUG_VALUE: precheck:tag <- 102
	@DEBUG_VALUE: popPod<float>:tag <- 102
	vmul.f32	d8, d16, d0
	bhs	.LBB6_129
.Ltmp748:
@ BB#88:
	@DEBUG_VALUE: getErr:this <- %R4
	@DEBUG_VALUE: _M_data:this <- %R5
	@DEBUG_VALUE: _M_capacity:this <- %R5
	@DEBUG_VALUE: _M_data:this <- %R5
	@DEBUG_VALUE: _M_set_length:this <- %R5
	@DEBUG_VALUE: _M_length:this <- %R5
	@DEBUG_VALUE: _M_data:this <- %R5
	@DEBUG_VALUE: osc_on_receive:msg <- %R4
	vmov.f32	d9, #-3.000000e+01
	b	.LBB6_99
.Ltmp749:
.LBB6_89:                               @ %_ZNSt5mutex6unlockEv.exit68.critedge322
	@DEBUG_VALUE: _M_data:this <- %R5
	@DEBUG_VALUE: _M_capacity:this <- %R5
	@DEBUG_VALUE: _M_data:this <- %R5
	@DEBUG_VALUE: _M_set_length:this <- %R5
	@DEBUG_VALUE: _M_length:this <- %R5
	@DEBUG_VALUE: _M_data:this <- %R5
	.loc	41 62 36                @ /root/Bela/projects/SOFAlizer-for-Bela/osc.cpp:62:36
	vldr	d10, .LCPI6_3
	vmov.f64	d0, d9
	vorr	d1, d10, d10
	bl	__fmod_finite
	.loc	41 62 34 is_stmt 0      @ /root/Bela/projects/SOFAlizer-for-Bela/osc.cpp:62:34
	movw	r4, :lower16:righPosition
	.loc	41 62 36                @ /root/Bela/projects/SOFAlizer-for-Bela/osc.cpp:62:36
	vcvt.f32.f64	s0, d0
	.loc	41 62 34                @ /root/Bela/projects/SOFAlizer-for-Bela/osc.cpp:62:34
	movt	r4, :upper16:righPosition
.Ltmp750:
.LBB6_90:                               @ %_ZNSt5mutex6unlockEv.exit68
	.loc	41 50 34 is_stmt 1      @ /root/Bela/projects/SOFAlizer-for-Bela/osc.cpp:50:34
	vstr	s0, [r4, #16]
	.loc	41 51 44                @ /root/Bela/projects/SOFAlizer-for-Bela/osc.cpp:51:44
	vorr	d1, d10, d10
	vmov.f64	d0, d8
	bl	__fmod_finite
	vcvt.f32.f64	s0, d0
	.loc	41 51 42 is_stmt 0      @ /root/Bela/projects/SOFAlizer-for-Bela/osc.cpp:51:42
	vstr	s0, [r4, #20]
	b	.LBB6_114
.Ltmp751:
.LBB6_91:
	@DEBUG_VALUE: _M_data:this <- %R5
	@DEBUG_VALUE: _M_capacity:this <- %R5
	@DEBUG_VALUE: _M_data:this <- %R5
	@DEBUG_VALUE: _M_set_length:this <- %R5
	@DEBUG_VALUE: _M_length:this <- %R5
	@DEBUG_VALUE: _M_data:this <- %R5
	@DEBUG_VALUE: osc_on_receive:msg <- %R4
	@DEBUG_VALUE: ArgReader:e <- 0
	@DEBUG_VALUE: getErr:this <- %R4
	vmov.f32	d9, #-3.000000e+01
.Ltmp752:
	.loc	13 656 66 is_stmt 1     @ /usr/bin/../lib/gcc/arm-linux-gnueabihf/6.3.0/../../../../include/c++/6.3.0/bits/stl_vector.h:656:66
	ldr	r0, [r4, #56]
	.loc	13 656 40 is_stmt 0     @ /usr/bin/../lib/gcc/arm-linux-gnueabihf/6.3.0/../../../../include/c++/6.3.0/bits/stl_vector.h:656:40
	ldr	r1, [r4, #60]
	vmov.i32	d8, #0x0
.Ltmp753:
	@DEBUG_VALUE: precheck:tag <- 102
	@DEBUG_VALUE: popPod<float>:tag <- 102
	.loc	5 346 11 is_stmt 1      @ ./include/oscpkt.hh:346:11
	cmp	r1, r0
	beq	.LBB6_106
.Ltmp754:
@ BB#92:
	@DEBUG_VALUE: getErr:this <- %R4
	@DEBUG_VALUE: _M_data:this <- %R5
	@DEBUG_VALUE: _M_capacity:this <- %R5
	@DEBUG_VALUE: _M_data:this <- %R5
	@DEBUG_VALUE: _M_set_length:this <- %R5
	@DEBUG_VALUE: _M_length:this <- %R5
	@DEBUG_VALUE: _M_data:this <- %R5
	@DEBUG_VALUE: osc_on_receive:msg <- %R4
	.loc	5 235 31 discriminator 1 @ ./include/oscpkt.hh:235:31
	ldr	r2, [r4, #80]
	cmp	r2, #0
	bne	.LBB6_106
.Ltmp755:
@ BB#93:
	@DEBUG_VALUE: getErr:this <- %R4
	@DEBUG_VALUE: _M_data:this <- %R5
	@DEBUG_VALUE: _M_capacity:this <- %R5
	@DEBUG_VALUE: _M_data:this <- %R5
	@DEBUG_VALUE: _M_set_length:this <- %R5
	@DEBUG_VALUE: _M_length:this <- %R5
	@DEBUG_VALUE: _M_data:this <- %R5
	@DEBUG_VALUE: osc_on_receive:msg <- %R4
	.loc	7 805 16                @ /usr/bin/../lib/gcc/arm-linux-gnueabihf/6.3.0/../../../../include/c++/6.3.0/bits/basic_string.h:805:16
	ldr	r2, [r4, #36]
.Ltmp756:
	.loc	5 333 11 discriminator 1 @ ./include/oscpkt.hh:333:11
	cmp	r2, #0
	beq	.LBB6_105
.Ltmp757:
@ BB#94:                                @ %_ZN6oscpkt7Message9ArgReader14currentTypeTagEv.exit.i.i.i193
	@DEBUG_VALUE: getErr:this <- %R4
	@DEBUG_VALUE: _M_data:this <- %R5
	@DEBUG_VALUE: _M_capacity:this <- %R5
	@DEBUG_VALUE: _M_data:this <- %R5
	@DEBUG_VALUE: _M_set_length:this <- %R5
	@DEBUG_VALUE: _M_length:this <- %R5
	@DEBUG_VALUE: _M_data:this <- %R5
	@DEBUG_VALUE: osc_on_receive:msg <- %R4
	@DEBUG_VALUE: operator[]:__pos <- 0
	.loc	7 136 28                @ /usr/bin/../lib/gcc/arm-linux-gnueabihf/6.3.0/../../../../include/c++/6.3.0/bits/basic_string.h:136:28
	ldr	r2, [r4, #32]
.Ltmp758:
	.loc	5 333 59 discriminator 2 @ ./include/oscpkt.hh:333:59
	ldrb	r2, [r2]
.Ltmp759:
	.loc	5 347 16 discriminator 1 @ ./include/oscpkt.hh:347:16
	cmp	r2, #102
	bne	.LBB6_105
.Ltmp760:
@ BB#95:                                @ %_ZN6oscpkt7Message9ArgReader8popFloatERf.exit206
	@DEBUG_VALUE: getErr:this <- %R4
	@DEBUG_VALUE: _M_data:this <- %R5
	@DEBUG_VALUE: _M_capacity:this <- %R5
	@DEBUG_VALUE: _M_data:this <- %R5
	@DEBUG_VALUE: _M_set_length:this <- %R5
	@DEBUG_VALUE: _M_length:this <- %R5
	@DEBUG_VALUE: _M_data:this <- %R5
	@DEBUG_VALUE: osc_on_receive:msg <- %R4
	@DEBUG_VALUE: argBeg:idx <- 0
	.loc	13 656 66               @ /usr/bin/../lib/gcc/arm-linux-gnueabihf/6.3.0/../../../../include/c++/6.3.0/bits/stl_vector.h:656:66
	ldr	r2, [r4, #68]
.Ltmp761:
	.loc	13 656 50 is_stmt 0     @ /usr/bin/../lib/gcc/arm-linux-gnueabihf/6.3.0/../../../../include/c++/6.3.0/bits/stl_vector.h:656:50
	sub	r1, r1, r0
.Ltmp762:
	.loc	13 656 40               @ /usr/bin/../lib/gcc/arm-linux-gnueabihf/6.3.0/../../../../include/c++/6.3.0/bits/stl_vector.h:656:40
	ldr	r3, [r4, #72]
.Ltmp763:
	.loc	5 326 62 is_stmt 1      @ ./include/oscpkt.hh:326:62
	ldr	r7, [r0]
.Ltmp764:
	.loc	13 656 50               @ /usr/bin/../lib/gcc/arm-linux-gnueabihf/6.3.0/../../../../include/c++/6.3.0/bits/stl_vector.h:656:50
	asr	r1, r1, #3
.Ltmp765:
	.loc	5 326 40                @ ./include/oscpkt.hh:326:40
	cmp	r3, r2
.Ltmp766:
	.loc	5 341 7                 @ ./include/oscpkt.hh:341:7
	vldr	s0, .LCPI6_0
.Ltmp767:
	.loc	5 326 40                @ ./include/oscpkt.hh:326:40
	addne	r7, r7, r2
.Ltmp768:
	@DEBUG_VALUE: i <- 1
	@DEBUG_VALUE: bytes2pod<float>:bytes <- %R7
	.loc	5 346 11                @ ./include/oscpkt.hh:346:11
	cmp	r1, #2
.Ltmp769:
	.loc	5 136 18                @ ./include/oscpkt.hh:136:18
	ldrb	r6, [r7, #2]
.Ltmp770:
	@DEBUG_VALUE: i <- 0
	ldrb	r2, [r7]
	ldrb	r3, [r7, #1]
	ldrb	r7, [r7, #3]
.Ltmp771:
	orr	r7, r7, r6, lsl #8
	orr	r3, r7, r3, lsl #16
	orr	r2, r3, r2, lsl #24
.Ltmp772:
	@DEBUG_VALUE: i <- 1
	.loc	5 341 7                 @ ./include/oscpkt.hh:341:7
	vmov	d16, r2, r2
.Ltmp773:
	@DEBUG_VALUE: precheck:tag <- 102
	@DEBUG_VALUE: popPod<float>:tag <- 102
	vmul.f32	d8, d16, d0
	bhs	.LBB6_133
.Ltmp774:
@ BB#96:
	@DEBUG_VALUE: getErr:this <- %R4
	@DEBUG_VALUE: _M_data:this <- %R5
	@DEBUG_VALUE: _M_capacity:this <- %R5
	@DEBUG_VALUE: _M_data:this <- %R5
	@DEBUG_VALUE: _M_set_length:this <- %R5
	@DEBUG_VALUE: _M_length:this <- %R5
	@DEBUG_VALUE: _M_data:this <- %R5
	@DEBUG_VALUE: osc_on_receive:msg <- %R4
	vmov.f32	d9, #-3.000000e+01
	b	.LBB6_106
.Ltmp775:
.LBB6_97:
	@DEBUG_VALUE: _M_data:this <- %R5
	@DEBUG_VALUE: _M_capacity:this <- %R5
	@DEBUG_VALUE: _M_data:this <- %R5
	@DEBUG_VALUE: _M_set_length:this <- %R5
	@DEBUG_VALUE: _M_length:this <- %R5
	@DEBUG_VALUE: _M_data:this <- %R5
	@DEBUG_VALUE: osc_on_receive:msg <- %R4
	.loc	41 91 24                @ /root/Bela/projects/SOFAlizer-for-Bela/osc.cpp:91:24
	movw	r0, :lower16:send_pos_0
	movt	r0, :upper16:send_pos_0
	b	.LBB6_104
.Ltmp776:
.LBB6_98:
	@DEBUG_VALUE: getErr:this <- %R4
	@DEBUG_VALUE: _M_data:this <- %R5
	@DEBUG_VALUE: _M_capacity:this <- %R5
	@DEBUG_VALUE: _M_data:this <- %R5
	@DEBUG_VALUE: _M_set_length:this <- %R5
	@DEBUG_VALUE: _M_length:this <- %R5
	@DEBUG_VALUE: _M_data:this <- %R5
	@DEBUG_VALUE: osc_on_receive:msg <- %R4
	vmov.f32	d9, #-3.000000e+01
	vmov.i32	d8, #0x0
.Ltmp777:
.LBB6_99:                               @ %_ZNK6oscpkt7Message9ArgReader14isOkNoMoreArgsEv.exit172
	@DEBUG_VALUE: getErr:this <- %R4
	@DEBUG_VALUE: _M_data:this <- %R5
	@DEBUG_VALUE: _M_capacity:this <- %R5
	@DEBUG_VALUE: _M_data:this <- %R5
	@DEBUG_VALUE: _M_set_length:this <- %R5
	@DEBUG_VALUE: _M_length:this <- %R5
	@DEBUG_VALUE: _M_data:this <- %R5
	@DEBUG_VALUE: osc_on_receive:msg <- %R4
	.loc	1 747 7                 @ /usr/bin/../lib/gcc/arm-linux-gnueabihf/6.3.0/../../../../include/arm-linux-gnueabihf/c++/6.3.0/bits/gthr-default.h:747:7
	movw	r4, :lower16:__pthread_key_create
.Ltmp778:
	movt	r4, :upper16:__pthread_key_create
	cmp	r4, #0
	beq	.LBB6_102
.Ltmp779:
@ BB#100:                               @ %_ZL20__gthread_mutex_lockP15pthread_mutex_t.exit.i174
	@DEBUG_VALUE: _M_data:this <- %R5
	@DEBUG_VALUE: _M_capacity:this <- %R5
	@DEBUG_VALUE: _M_data:this <- %R5
	@DEBUG_VALUE: _M_set_length:this <- %R5
	@DEBUG_VALUE: _M_length:this <- %R5
	@DEBUG_VALUE: _M_data:this <- %R5
	.loc	1 748 12                @ /usr/bin/../lib/gcc/arm-linux-gnueabihf/6.3.0/../../../../include/arm-linux-gnueabihf/c++/6.3.0/bits/gthr-default.h:748:12
	movw	r0, :lower16:m_left_pos
	movt	r0, :upper16:m_left_pos
.Ltmp780:
	@DEBUG_VALUE: unlock:this <- %R0
	bl	pthread_mutex_lock
.Ltmp781:
	@DEBUG_VALUE: lock:__e <- %R0
	.loc	53 106 11               @ /usr/bin/../lib/gcc/arm-linux-gnueabihf/6.3.0/../../../../include/c++/6.3.0/bits/std_mutex.h:106:11
	cmp	r0, #0
	bne	.LBB6_142
.Ltmp782:
@ BB#101:                               @ %_ZNSt5mutex4lockEv.exit175
	@DEBUG_VALUE: lock:__e <- %R0
	@DEBUG_VALUE: _M_data:this <- %R5
	@DEBUG_VALUE: _M_capacity:this <- %R5
	@DEBUG_VALUE: _M_data:this <- %R5
	@DEBUG_VALUE: _M_set_length:this <- %R5
	@DEBUG_VALUE: _M_length:this <- %R5
	@DEBUG_VALUE: _M_data:this <- %R5
	.loc	41 74 34                @ /root/Bela/projects/SOFAlizer-for-Bela/osc.cpp:74:34
	movw	r0, :lower16:leftPosition
.Ltmp783:
	movt	r0, :upper16:leftPosition
	b	.LBB6_109
.Ltmp784:
.LBB6_102:                              @ %_ZNSt5mutex6unlockEv.exit68.critedge326
	@DEBUG_VALUE: _M_data:this <- %R5
	@DEBUG_VALUE: _M_capacity:this <- %R5
	@DEBUG_VALUE: _M_data:this <- %R5
	@DEBUG_VALUE: _M_set_length:this <- %R5
	@DEBUG_VALUE: _M_length:this <- %R5
	@DEBUG_VALUE: _M_data:this <- %R5
	movw	r0, :lower16:leftPosition
	movt	r0, :upper16:leftPosition
	b	.LBB6_113
.Ltmp785:
.LBB6_103:
	@DEBUG_VALUE: _M_data:this <- %R5
	@DEBUG_VALUE: _M_capacity:this <- %R5
	@DEBUG_VALUE: _M_data:this <- %R5
	@DEBUG_VALUE: _M_set_length:this <- %R5
	@DEBUG_VALUE: _M_length:this <- %R5
	@DEBUG_VALUE: _M_data:this <- %R5
	@DEBUG_VALUE: osc_on_receive:msg <- %R4
	.loc	41 94 24                @ /root/Bela/projects/SOFAlizer-for-Bela/osc.cpp:94:24
	movw	r0, :lower16:send_pos_1
	movt	r0, :upper16:send_pos_1
.Ltmp786:
.LBB6_104:                              @ %_ZNSt5mutex6unlockEv.exit68
	@DEBUG_VALUE: osc_on_receive:msg <- %R4
	.loc	41 91 24                @ /root/Bela/projects/SOFAlizer-for-Bela/osc.cpp:91:24
	mov	r1, #1
	strb	r1, [r0]
	b	.LBB6_114
.Ltmp787:
.LBB6_105:
	@DEBUG_VALUE: getErr:this <- %R4
	@DEBUG_VALUE: _M_data:this <- %R5
	@DEBUG_VALUE: _M_capacity:this <- %R5
	@DEBUG_VALUE: _M_data:this <- %R5
	@DEBUG_VALUE: _M_set_length:this <- %R5
	@DEBUG_VALUE: _M_length:this <- %R5
	@DEBUG_VALUE: _M_data:this <- %R5
	@DEBUG_VALUE: osc_on_receive:msg <- %R4
	vmov.f32	d9, #-3.000000e+01
	vmov.i32	d8, #0x0
.Ltmp788:
.LBB6_106:                              @ %_ZNK6oscpkt7Message9ArgReader14isOkNoMoreArgsEv.exit223
	@DEBUG_VALUE: getErr:this <- %R4
	@DEBUG_VALUE: _M_data:this <- %R5
	@DEBUG_VALUE: _M_capacity:this <- %R5
	@DEBUG_VALUE: _M_data:this <- %R5
	@DEBUG_VALUE: _M_set_length:this <- %R5
	@DEBUG_VALUE: _M_length:this <- %R5
	@DEBUG_VALUE: _M_data:this <- %R5
	@DEBUG_VALUE: osc_on_receive:msg <- %R4
	.loc	1 747 7                 @ /usr/bin/../lib/gcc/arm-linux-gnueabihf/6.3.0/../../../../include/arm-linux-gnueabihf/c++/6.3.0/bits/gthr-default.h:747:7
	movw	r4, :lower16:__pthread_key_create
.Ltmp789:
	movt	r4, :upper16:__pthread_key_create
	cmp	r4, #0
	beq	.LBB6_112
.Ltmp790:
@ BB#107:                               @ %_ZL20__gthread_mutex_lockP15pthread_mutex_t.exit.i225
	@DEBUG_VALUE: _M_data:this <- %R5
	@DEBUG_VALUE: _M_capacity:this <- %R5
	@DEBUG_VALUE: _M_data:this <- %R5
	@DEBUG_VALUE: _M_set_length:this <- %R5
	@DEBUG_VALUE: _M_length:this <- %R5
	@DEBUG_VALUE: _M_data:this <- %R5
	.loc	1 748 12                @ /usr/bin/../lib/gcc/arm-linux-gnueabihf/6.3.0/../../../../include/arm-linux-gnueabihf/c++/6.3.0/bits/gthr-default.h:748:12
	movw	r0, :lower16:m_left_pos
	movt	r0, :upper16:m_left_pos
.Ltmp791:
	@DEBUG_VALUE: unlock:this <- %R0
	bl	pthread_mutex_lock
.Ltmp792:
	@DEBUG_VALUE: lock:__e <- %R0
	.loc	53 106 11               @ /usr/bin/../lib/gcc/arm-linux-gnueabihf/6.3.0/../../../../include/c++/6.3.0/bits/std_mutex.h:106:11
	cmp	r0, #0
	bne	.LBB6_142
.Ltmp793:
@ BB#108:                               @ %_ZNSt5mutex4lockEv.exit226
	@DEBUG_VALUE: lock:__e <- %R0
	@DEBUG_VALUE: _M_data:this <- %R5
	@DEBUG_VALUE: _M_capacity:this <- %R5
	@DEBUG_VALUE: _M_data:this <- %R5
	@DEBUG_VALUE: _M_set_length:this <- %R5
	@DEBUG_VALUE: _M_length:this <- %R5
	@DEBUG_VALUE: _M_data:this <- %R5
	.loc	41 85 34                @ /root/Bela/projects/SOFAlizer-for-Bela/osc.cpp:85:34
	movw	r0, :lower16:righPosition
.Ltmp794:
	movt	r0, :upper16:righPosition
.Ltmp795:
.LBB6_109:                              @ %_ZNSt5mutex4lockEv.exit175
	.loc	41 74 34                @ /root/Bela/projects/SOFAlizer-for-Bela/osc.cpp:74:34
	vstr	s16, [r0, #16]
	.loc	41 76 42                @ /root/Bela/projects/SOFAlizer-for-Bela/osc.cpp:76:42
	vstr	s18, [r0, #20]
.Ltmp796:
.LBB6_110:                              @ %_ZNSt5mutex4lockEv.exit67
	.loc	1 777 7                 @ /usr/bin/../lib/gcc/arm-linux-gnueabihf/6.3.0/../../../../include/arm-linux-gnueabihf/c++/6.3.0/bits/gthr-default.h:777:7
	cmp	r4, #0
	beq	.LBB6_114
@ BB#111:
.Ltmp797:
	.loc	1 778 12                @ /usr/bin/../lib/gcc/arm-linux-gnueabihf/6.3.0/../../../../include/arm-linux-gnueabihf/c++/6.3.0/bits/gthr-default.h:778:12
	movw	r0, :lower16:m_left_pos
	movt	r0, :upper16:m_left_pos
.Ltmp798:
	@DEBUG_VALUE: unlock:this <- %R0
	bl	pthread_mutex_unlock
.Ltmp799:
	b	.LBB6_114
.Ltmp800:
.LBB6_112:                              @ %_ZNSt5mutex6unlockEv.exit68.critedge330
	@DEBUG_VALUE: _M_data:this <- %R5
	@DEBUG_VALUE: _M_capacity:this <- %R5
	@DEBUG_VALUE: _M_data:this <- %R5
	@DEBUG_VALUE: _M_set_length:this <- %R5
	@DEBUG_VALUE: _M_length:this <- %R5
	@DEBUG_VALUE: _M_data:this <- %R5
	.loc	41 85 34                @ /root/Bela/projects/SOFAlizer-for-Bela/osc.cpp:85:34
	movw	r0, :lower16:righPosition
	movt	r0, :upper16:righPosition
.Ltmp801:
.LBB6_113:                              @ %_ZNSt5mutex6unlockEv.exit68
	.loc	41 74 34                @ /root/Bela/projects/SOFAlizer-for-Bela/osc.cpp:74:34
	vstr	s16, [r0, #16]
	.loc	41 76 42                @ /root/Bela/projects/SOFAlizer-for-Bela/osc.cpp:76:42
	vstr	s18, [r0, #20]
.Ltmp802:
.LBB6_114:                              @ %_ZNSt5mutex6unlockEv.exit68
	.loc	41 126 1 discriminator 20 @ /root/Bela/projects/SOFAlizer-for-Bela/osc.cpp:126:1
	sub	sp, r11, #40
	vpop	{d8, d9, d10}
	pop	{r4, r5, r6, r7, r11, pc}
	.p2align	3
@ BB#115:
.LCPI6_3:
	.long	0                       @ double 360
	.long	1081507840
.LBB6_116:
.Ltmp803:
	@DEBUG_VALUE: _M_data:this <- %R5
	@DEBUG_VALUE: _M_length:this <- %R5
	@DEBUG_VALUE: _M_set_length:this <- %R5
	@DEBUG_VALUE: _M_data:this <- %R5
	@DEBUG_VALUE: _M_construct<const char *>:this <- %R5
	@DEBUG_VALUE: _M_construct_aux<const char *>:this <- %R5
	@DEBUG_VALUE: _M_construct<const char *>:this <- %R5
	@DEBUG_VALUE: _M_local_data:this <- %R5
	@DEBUG_VALUE: basic_string:this <- %R5
	@DEBUG_VALUE: _M_data:this <- %R5
	@DEBUG_VALUE: _M_capacity:this <- %R5
	@DEBUG_VALUE: _M_data:this <- %R5
	@DEBUG_VALUE: _M_set_length:this <- %R5
	@DEBUG_VALUE: _M_length:this <- %R5
	@DEBUG_VALUE: _M_data:this <- %R5
	@DEBUG_VALUE: osc_on_receive:msg <- %R4
	@DEBUG_VALUE: ArgReader:e <- 0
	@DEBUG_VALUE: getErr:this <- %R4
	@DEBUG_VALUE: popPod<int>:tag <- 105
	@DEBUG_VALUE: precheck:tag <- 105
	.loc	5 235 31 discriminator 1 @ ./include/oscpkt.hh:235:31
	ldr	r0, [r4, #80]
	mov	r5, #0
.Ltmp804:
	.loc	5 346 11                @ ./include/oscpkt.hh:346:11
	cmp	r0, #0
	bne	.LBB6_120
.Ltmp805:
@ BB#117:
	@DEBUG_VALUE: getErr:this <- %R4
	@DEBUG_VALUE: osc_on_receive:msg <- %R4
	.loc	13 656 66               @ /usr/bin/../lib/gcc/arm-linux-gnueabihf/6.3.0/../../../../include/c++/6.3.0/bits/stl_vector.h:656:66
	ldr	r0, [r4, #56]
	.loc	13 656 40 is_stmt 0     @ /usr/bin/../lib/gcc/arm-linux-gnueabihf/6.3.0/../../../../include/c++/6.3.0/bits/stl_vector.h:656:40
	ldr	r1, [r4, #60]
	cmp	r1, r0
.Ltmp806:
	.loc	7 805 16 is_stmt 1      @ /usr/bin/../lib/gcc/arm-linux-gnueabihf/6.3.0/../../../../include/c++/6.3.0/bits/basic_string.h:805:16
	ldrne	r1, [r4, #36]
.Ltmp807:
	.loc	5 333 11 discriminator 1 @ ./include/oscpkt.hh:333:11
	cmpne	r1, #0
	beq	.LBB6_120
.Ltmp808:
@ BB#118:                               @ %_ZN6oscpkt7Message9ArgReader14currentTypeTagEv.exit.i.i.i131
	@DEBUG_VALUE: getErr:this <- %R4
	@DEBUG_VALUE: osc_on_receive:msg <- %R4
	@DEBUG_VALUE: operator[]:__pos <- 0
	.loc	7 136 28                @ /usr/bin/../lib/gcc/arm-linux-gnueabihf/6.3.0/../../../../include/c++/6.3.0/bits/basic_string.h:136:28
	ldr	r1, [r4, #32]
.Ltmp809:
	.loc	5 333 59 discriminator 2 @ ./include/oscpkt.hh:333:59
	ldrb	r1, [r1]
.Ltmp810:
	.loc	5 347 16 discriminator 1 @ ./include/oscpkt.hh:347:16
	cmp	r1, #105
	bne	.LBB6_120
.Ltmp811:
@ BB#119:
	@DEBUG_VALUE: getErr:this <- %R4
	@DEBUG_VALUE: osc_on_receive:msg <- %R4
	@DEBUG_VALUE: argBeg:idx <- 0
	.loc	13 656 66               @ /usr/bin/../lib/gcc/arm-linux-gnueabihf/6.3.0/../../../../include/c++/6.3.0/bits/stl_vector.h:656:66
	ldr	r1, [r4, #68]
	.loc	13 656 40 is_stmt 0     @ /usr/bin/../lib/gcc/arm-linux-gnueabihf/6.3.0/../../../../include/c++/6.3.0/bits/stl_vector.h:656:40
	ldr	r2, [r4, #72]
.Ltmp812:
	.loc	5 326 62 is_stmt 1      @ ./include/oscpkt.hh:326:62
	ldr	r0, [r0]
	.loc	5 326 40 is_stmt 0      @ ./include/oscpkt.hh:326:40
	cmp	r2, r1
	addne	r0, r0, r1
.Ltmp813:
	@DEBUG_VALUE: i <- 1
	@DEBUG_VALUE: bytes2pod<int>:bytes <- %R0
	.loc	5 139 1 is_stmt 1       @ ./include/oscpkt.hh:139:1
	ldrb	r3, [r0, #2]
	ldrb	r1, [r0]
	ldrb	r2, [r0, #1]
	ldrb	r0, [r0, #3]
.Ltmp814:
	orr	r0, r0, r3, lsl #8
	orr	r0, r0, r2, lsl #16
	orr	r5, r0, r1, lsl #24
.Ltmp815:
	@DEBUG_VALUE: num <- %R5
.LBB6_120:                              @ %_ZNK6oscpkt7Message9ArgReader14isOkNoMoreArgsEv.exit129
	@DEBUG_VALUE: getErr:this <- %R4
	@DEBUG_VALUE: osc_on_receive:msg <- %R4
	.loc	1 747 7                 @ /usr/bin/../lib/gcc/arm-linux-gnueabihf/6.3.0/../../../../include/arm-linux-gnueabihf/c++/6.3.0/bits/gthr-default.h:747:7
	movw	r4, :lower16:__pthread_key_create
.Ltmp816:
	movt	r4, :upper16:__pthread_key_create
	cmp	r4, #0
	beq	.LBB6_132
@ BB#121:                               @ %_ZL20__gthread_mutex_lockP15pthread_mutex_t.exit.i116
.Ltmp817:
	.loc	1 748 12                @ /usr/bin/../lib/gcc/arm-linux-gnueabihf/6.3.0/../../../../include/arm-linux-gnueabihf/c++/6.3.0/bits/gthr-default.h:748:12
	movw	r0, :lower16:m_hrtf_num
	movt	r0, :upper16:m_hrtf_num
.Ltmp818:
	@DEBUG_VALUE: unlock:this <- %R0
	bl	pthread_mutex_lock
.Ltmp819:
	@DEBUG_VALUE: lock:__e <- %R0
	.loc	53 106 11               @ /usr/bin/../lib/gcc/arm-linux-gnueabihf/6.3.0/../../../../include/c++/6.3.0/bits/std_mutex.h:106:11
	cmp	r0, #0
	bne	.LBB6_142
.Ltmp820:
@ BB#122:                               @ %_ZNSt5mutex4lockEv.exit117
	@DEBUG_VALUE: lock:__e <- %R0
	.loc	41 100 24               @ /root/Bela/projects/SOFAlizer-for-Bela/osc.cpp:100:24
	movw	r1, :lower16:hrtf_num
.Ltmp821:
	.loc	41 104 28               @ /root/Bela/projects/SOFAlizer-for-Bela/osc.cpp:104:28
	movw	r0, :lower16:hrtf_cnt
.Ltmp822:
	.loc	41 100 24               @ /root/Bela/projects/SOFAlizer-for-Bela/osc.cpp:100:24
	movt	r1, :upper16:hrtf_num
.Ltmp823:
	.loc	41 104 28               @ /root/Bela/projects/SOFAlizer-for-Bela/osc.cpp:104:28
	movt	r0, :upper16:hrtf_cnt
.Ltmp824:
	.loc	41 100 24               @ /root/Bela/projects/SOFAlizer-for-Bela/osc.cpp:100:24
	ldr	r2, [r1]
.Ltmp825:
	.loc	41 104 28               @ /root/Bela/projects/SOFAlizer-for-Bela/osc.cpp:104:28
	ldr	r0, [r0]
.Ltmp826:
	.loc	41 100 17               @ /root/Bela/projects/SOFAlizer-for-Bela/osc.cpp:100:17
	cmp	r5, r2
	subhi	r5, r0, #1
.Ltmp827:
	.loc	41 101 26               @ /root/Bela/projects/SOFAlizer-for-Bela/osc.cpp:101:26
	str	r5, [r1]
	b	.LBB6_127
.Ltmp828:
.LBB6_123:
	@DEBUG_VALUE: _M_data:this <- %R5
	@DEBUG_VALUE: _M_length:this <- %R5
	@DEBUG_VALUE: _M_set_length:this <- %R5
	@DEBUG_VALUE: _M_data:this <- %R5
	@DEBUG_VALUE: _M_construct<const char *>:this <- %R5
	@DEBUG_VALUE: _M_construct_aux<const char *>:this <- %R5
	@DEBUG_VALUE: _M_construct<const char *>:this <- %R5
	@DEBUG_VALUE: _S_copy_chars:__p <- %R6
	@DEBUG_VALUE: _S_copy:__d <- %R6
	@DEBUG_VALUE: _M_local_data:this <- %R5
	@DEBUG_VALUE: basic_string:this <- %R5
	@DEBUG_VALUE: _M_data:this <- %R5
	@DEBUG_VALUE: _M_length:this <- %R5
	@DEBUG_VALUE: _M_set_length:this <- %R5
	@DEBUG_VALUE: _M_data:this <- %R5
	@DEBUG_VALUE: _M_construct<const char *>:this <- %R5
	@DEBUG_VALUE: _M_construct_aux<const char *>:this <- %R5
	@DEBUG_VALUE: _M_construct<const char *>:this <- %R5
	@DEBUG_VALUE: _M_local_data:this <- %R5
	@DEBUG_VALUE: basic_string:this <- %R5
	@DEBUG_VALUE: _M_data:this <- %R5
	@DEBUG_VALUE: _M_capacity:this <- %R5
	@DEBUG_VALUE: _M_data:this <- %R5
	@DEBUG_VALUE: _M_set_length:this <- %R5
	@DEBUG_VALUE: _M_length:this <- %R5
	@DEBUG_VALUE: _M_data:this <- %R5
	@DEBUG_VALUE: osc_on_receive:msg <- %R4
	.loc	1 747 7                 @ /usr/bin/../lib/gcc/arm-linux-gnueabihf/6.3.0/../../../../include/arm-linux-gnueabihf/c++/6.3.0/bits/gthr-default.h:747:7
	movw	r4, :lower16:__pthread_key_create
.Ltmp829:
	movt	r4, :upper16:__pthread_key_create
	cmp	r4, #0
	beq	.LBB6_137
.Ltmp830:
@ BB#124:                               @ %_ZL20__gthread_mutex_lockP15pthread_mutex_t.exit.i47
	@DEBUG_VALUE: _M_data:this <- %R5
	@DEBUG_VALUE: _M_length:this <- %R5
	@DEBUG_VALUE: _M_set_length:this <- %R5
	@DEBUG_VALUE: _M_data:this <- %R5
	@DEBUG_VALUE: _M_construct<const char *>:this <- %R5
	@DEBUG_VALUE: _M_construct_aux<const char *>:this <- %R5
	@DEBUG_VALUE: _M_construct<const char *>:this <- %R5
	@DEBUG_VALUE: _S_copy_chars:__p <- %R6
	@DEBUG_VALUE: _S_copy:__d <- %R6
	@DEBUG_VALUE: _M_local_data:this <- %R5
	@DEBUG_VALUE: basic_string:this <- %R5
	@DEBUG_VALUE: _M_data:this <- %R5
	@DEBUG_VALUE: _M_length:this <- %R5
	@DEBUG_VALUE: _M_set_length:this <- %R5
	@DEBUG_VALUE: _M_data:this <- %R5
	@DEBUG_VALUE: _M_construct<const char *>:this <- %R5
	@DEBUG_VALUE: _M_construct_aux<const char *>:this <- %R5
	@DEBUG_VALUE: _M_construct<const char *>:this <- %R5
	@DEBUG_VALUE: _M_local_data:this <- %R5
	@DEBUG_VALUE: basic_string:this <- %R5
	@DEBUG_VALUE: _M_data:this <- %R5
	@DEBUG_VALUE: _M_capacity:this <- %R5
	@DEBUG_VALUE: _M_data:this <- %R5
	@DEBUG_VALUE: _M_set_length:this <- %R5
	@DEBUG_VALUE: _M_length:this <- %R5
	@DEBUG_VALUE: _M_data:this <- %R5
	.loc	1 748 12                @ /usr/bin/../lib/gcc/arm-linux-gnueabihf/6.3.0/../../../../include/arm-linux-gnueabihf/c++/6.3.0/bits/gthr-default.h:748:12
	movw	r0, :lower16:m_hrtf_num
	movt	r0, :upper16:m_hrtf_num
.Ltmp831:
	@DEBUG_VALUE: unlock:this <- %R0
	bl	pthread_mutex_lock
.Ltmp832:
	@DEBUG_VALUE: lock:__e <- %R0
	.loc	53 106 11               @ /usr/bin/../lib/gcc/arm-linux-gnueabihf/6.3.0/../../../../include/c++/6.3.0/bits/std_mutex.h:106:11
	cmp	r0, #0
	bne	.LBB6_142
.Ltmp833:
@ BB#125:                               @ %_ZNSt5mutex4lockEv.exit48
	@DEBUG_VALUE: lock:__e <- %R0
	@DEBUG_VALUE: _M_data:this <- %R5
	@DEBUG_VALUE: _M_length:this <- %R5
	@DEBUG_VALUE: _M_set_length:this <- %R5
	@DEBUG_VALUE: _M_data:this <- %R5
	@DEBUG_VALUE: _M_construct<const char *>:this <- %R5
	@DEBUG_VALUE: _M_construct_aux<const char *>:this <- %R5
	@DEBUG_VALUE: _M_construct<const char *>:this <- %R5
	@DEBUG_VALUE: _S_copy_chars:__p <- %R6
	@DEBUG_VALUE: _S_copy:__d <- %R6
	@DEBUG_VALUE: _M_local_data:this <- %R5
	@DEBUG_VALUE: basic_string:this <- %R5
	@DEBUG_VALUE: _M_data:this <- %R5
	@DEBUG_VALUE: _M_length:this <- %R5
	@DEBUG_VALUE: _M_set_length:this <- %R5
	@DEBUG_VALUE: _M_data:this <- %R5
	@DEBUG_VALUE: _M_construct<const char *>:this <- %R5
	@DEBUG_VALUE: _M_construct_aux<const char *>:this <- %R5
	@DEBUG_VALUE: _M_construct<const char *>:this <- %R5
	@DEBUG_VALUE: _M_local_data:this <- %R5
	@DEBUG_VALUE: basic_string:this <- %R5
	@DEBUG_VALUE: _M_data:this <- %R5
	@DEBUG_VALUE: _M_capacity:this <- %R5
	@DEBUG_VALUE: _M_data:this <- %R5
	@DEBUG_VALUE: _M_set_length:this <- %R5
	@DEBUG_VALUE: _M_length:this <- %R5
	@DEBUG_VALUE: _M_data:this <- %R5
	.loc	41 111 21               @ /root/Bela/projects/SOFAlizer-for-Bela/osc.cpp:111:21
	movw	r0, :lower16:hrtf_num
.Ltmp834:
	.loc	41 112 29               @ /root/Bela/projects/SOFAlizer-for-Bela/osc.cpp:112:29
	movw	r2, :lower16:hrtf_cnt
.Ltmp835:
	.loc	41 111 21               @ /root/Bela/projects/SOFAlizer-for-Bela/osc.cpp:111:21
	movt	r0, :upper16:hrtf_num
.Ltmp836:
	.loc	41 112 29               @ /root/Bela/projects/SOFAlizer-for-Bela/osc.cpp:112:29
	movt	r2, :upper16:hrtf_cnt
.Ltmp837:
	.loc	41 111 21               @ /root/Bela/projects/SOFAlizer-for-Bela/osc.cpp:111:21
	ldr	r1, [r0]
.Ltmp838:
	.loc	41 112 29               @ /root/Bela/projects/SOFAlizer-for-Bela/osc.cpp:112:29
	ldr	r2, [r2]
.Ltmp839:
	.loc	41 111 21               @ /root/Bela/projects/SOFAlizer-for-Bela/osc.cpp:111:21
	add	r1, r1, #1
	.loc	41 112 17               @ /root/Bela/projects/SOFAlizer-for-Bela/osc.cpp:112:17
	cmp	r1, r2
	movweq	r1, #0
.Ltmp840:
.LBB6_126:                              @ %_ZNSt5mutex4lockEv.exit117
	@DEBUG_VALUE: _M_data:this <- %R5
	@DEBUG_VALUE: _M_length:this <- %R5
	@DEBUG_VALUE: _M_set_length:this <- %R5
	@DEBUG_VALUE: _M_data:this <- %R5
	@DEBUG_VALUE: _M_construct<const char *>:this <- %R5
	@DEBUG_VALUE: _M_construct_aux<const char *>:this <- %R5
	@DEBUG_VALUE: _M_construct<const char *>:this <- %R5
	@DEBUG_VALUE: _S_copy_chars:__p <- %R6
	@DEBUG_VALUE: _S_copy:__d <- %R6
	@DEBUG_VALUE: _M_local_data:this <- %R5
	@DEBUG_VALUE: basic_string:this <- %R5
	@DEBUG_VALUE: _M_data:this <- %R5
	@DEBUG_VALUE: _M_length:this <- %R5
	@DEBUG_VALUE: _M_set_length:this <- %R5
	@DEBUG_VALUE: _M_data:this <- %R5
	@DEBUG_VALUE: _M_construct<const char *>:this <- %R5
	@DEBUG_VALUE: _M_construct_aux<const char *>:this <- %R5
	@DEBUG_VALUE: _M_construct<const char *>:this <- %R5
	@DEBUG_VALUE: _M_local_data:this <- %R5
	@DEBUG_VALUE: basic_string:this <- %R5
	@DEBUG_VALUE: _M_data:this <- %R5
	@DEBUG_VALUE: _M_capacity:this <- %R5
	@DEBUG_VALUE: _M_data:this <- %R5
	@DEBUG_VALUE: _M_set_length:this <- %R5
	@DEBUG_VALUE: _M_length:this <- %R5
	@DEBUG_VALUE: _M_data:this <- %R5
	.loc	41 113 26               @ /root/Bela/projects/SOFAlizer-for-Bela/osc.cpp:113:26
	str	r1, [r0]
.Ltmp841:
.LBB6_127:                              @ %_ZNSt5mutex4lockEv.exit117
	.loc	1 777 7                 @ /usr/bin/../lib/gcc/arm-linux-gnueabihf/6.3.0/../../../../include/arm-linux-gnueabihf/c++/6.3.0/bits/gthr-default.h:777:7
	cmp	r4, #0
	beq	.LBB6_114
@ BB#128:
.Ltmp842:
	.loc	1 778 12                @ /usr/bin/../lib/gcc/arm-linux-gnueabihf/6.3.0/../../../../include/arm-linux-gnueabihf/c++/6.3.0/bits/gthr-default.h:778:12
	movw	r0, :lower16:m_hrtf_num
	movt	r0, :upper16:m_hrtf_num
.Ltmp843:
	@DEBUG_VALUE: unlock:this <- %R0
	bl	pthread_mutex_unlock
.Ltmp844:
	b	.LBB6_114
.Ltmp845:
.LBB6_129:
	@DEBUG_VALUE: getErr:this <- %R4
	@DEBUG_VALUE: _M_data:this <- %R5
	@DEBUG_VALUE: _M_capacity:this <- %R5
	@DEBUG_VALUE: _M_data:this <- %R5
	@DEBUG_VALUE: _M_set_length:this <- %R5
	@DEBUG_VALUE: _M_length:this <- %R5
	@DEBUG_VALUE: _M_data:this <- %R5
	@DEBUG_VALUE: osc_on_receive:msg <- %R4
	.loc	7 805 16                @ /usr/bin/../lib/gcc/arm-linux-gnueabihf/6.3.0/../../../../include/c++/6.3.0/bits/basic_string.h:805:16
	ldr	r1, [r4, #36]
.Ltmp846:
	.loc	5 333 11 discriminator 1 @ ./include/oscpkt.hh:333:11
	cmp	r1, #2
	blo	.LBB6_138
.Ltmp847:
@ BB#130:                               @ %_ZN6oscpkt7Message9ArgReader14currentTypeTagEv.exit.i.i.i158
	@DEBUG_VALUE: getErr:this <- %R4
	@DEBUG_VALUE: _M_data:this <- %R5
	@DEBUG_VALUE: _M_capacity:this <- %R5
	@DEBUG_VALUE: _M_data:this <- %R5
	@DEBUG_VALUE: _M_set_length:this <- %R5
	@DEBUG_VALUE: _M_length:this <- %R5
	@DEBUG_VALUE: _M_data:this <- %R5
	@DEBUG_VALUE: osc_on_receive:msg <- %R4
	@DEBUG_VALUE: operator[]:__pos <- 1
	.loc	7 136 28                @ /usr/bin/../lib/gcc/arm-linux-gnueabihf/6.3.0/../../../../include/c++/6.3.0/bits/basic_string.h:136:28
	ldr	r1, [r4, #32]
.Ltmp848:
	.loc	5 333 59 discriminator 2 @ ./include/oscpkt.hh:333:59
	ldrb	r1, [r1, #1]
.Ltmp849:
	.loc	5 347 16 discriminator 1 @ ./include/oscpkt.hh:347:16
	cmp	r1, #102
	bne	.LBB6_140
.Ltmp850:
@ BB#131:
	@DEBUG_VALUE: getErr:this <- %R4
	@DEBUG_VALUE: _M_data:this <- %R5
	@DEBUG_VALUE: _M_capacity:this <- %R5
	@DEBUG_VALUE: _M_data:this <- %R5
	@DEBUG_VALUE: _M_set_length:this <- %R5
	@DEBUG_VALUE: _M_length:this <- %R5
	@DEBUG_VALUE: _M_data:this <- %R5
	@DEBUG_VALUE: osc_on_receive:msg <- %R4
	@DEBUG_VALUE: argBeg:idx <- 1
	.loc	13 656 66               @ /usr/bin/../lib/gcc/arm-linux-gnueabihf/6.3.0/../../../../include/c++/6.3.0/bits/stl_vector.h:656:66
	ldr	r1, [r4, #68]
.Ltmp851:
	.loc	41 71 58 discriminator 3 @ /root/Bela/projects/SOFAlizer-for-Bela/osc.cpp:71:58
	vmov.f32	d17, #-3.000000e+01
.Ltmp852:
	.loc	13 656 40               @ /usr/bin/../lib/gcc/arm-linux-gnueabihf/6.3.0/../../../../include/c++/6.3.0/bits/stl_vector.h:656:40
	ldr	r2, [r4, #72]
.Ltmp853:
	.loc	5 326 62                @ ./include/oscpkt.hh:326:62
	ldr	r0, [r0, #8]
	.loc	5 326 40 is_stmt 0      @ ./include/oscpkt.hh:326:40
	cmp	r2, r1
.Ltmp854:
	.loc	41 71 58 is_stmt 1 discriminator 3 @ /root/Bela/projects/SOFAlizer-for-Bela/osc.cpp:71:58
	vldr	s0, .LCPI6_1
.Ltmp855:
	.loc	5 326 40                @ ./include/oscpkt.hh:326:40
	addne	r0, r0, r1
.Ltmp856:
	@DEBUG_VALUE: i <- 1
	@DEBUG_VALUE: bytes2pod<float>:bytes <- %R0
	.loc	5 136 18                @ ./include/oscpkt.hh:136:18
	ldrb	r3, [r0, #2]
.Ltmp857:
	@DEBUG_VALUE: i <- 0
	ldrb	r1, [r0]
	ldrb	r2, [r0, #1]
	ldrb	r0, [r0, #3]
.Ltmp858:
	orr	r0, r0, r3, lsl #8
	orr	r0, r0, r2, lsl #16
	orr	r0, r0, r1, lsl #24
.Ltmp859:
	@DEBUG_VALUE: i <- 1
	.loc	41 71 58 discriminator 3 @ /root/Bela/projects/SOFAlizer-for-Bela/osc.cpp:71:58
	vmov	d16, r0, r0
	vmul.f32	d16, d16, d0
	vadd.f32	d9, d16, d17
	b	.LBB6_99
.Ltmp860:
.LBB6_132:                              @ %_ZNSt5mutex6unlockEv.exit68.critedge333
	.loc	41 100 24               @ /root/Bela/projects/SOFAlizer-for-Bela/osc.cpp:100:24
	movw	r1, :lower16:hrtf_num
.Ltmp861:
	.loc	41 104 28               @ /root/Bela/projects/SOFAlizer-for-Bela/osc.cpp:104:28
	movw	r0, :lower16:hrtf_cnt
.Ltmp862:
	.loc	41 100 24               @ /root/Bela/projects/SOFAlizer-for-Bela/osc.cpp:100:24
	movt	r1, :upper16:hrtf_num
.Ltmp863:
	.loc	41 104 28               @ /root/Bela/projects/SOFAlizer-for-Bela/osc.cpp:104:28
	movt	r0, :upper16:hrtf_cnt
.Ltmp864:
	.loc	41 100 24               @ /root/Bela/projects/SOFAlizer-for-Bela/osc.cpp:100:24
	ldr	r2, [r1]
.Ltmp865:
	.loc	41 104 28               @ /root/Bela/projects/SOFAlizer-for-Bela/osc.cpp:104:28
	ldr	r0, [r0]
.Ltmp866:
	.loc	41 100 17               @ /root/Bela/projects/SOFAlizer-for-Bela/osc.cpp:100:17
	cmp	r5, r2
	subhi	r5, r0, #1
.Ltmp867:
	.loc	41 101 26               @ /root/Bela/projects/SOFAlizer-for-Bela/osc.cpp:101:26
	str	r5, [r1]
	b	.LBB6_114
.Ltmp868:
.LBB6_133:
	@DEBUG_VALUE: getErr:this <- %R4
	@DEBUG_VALUE: _M_data:this <- %R5
	@DEBUG_VALUE: _M_capacity:this <- %R5
	@DEBUG_VALUE: _M_data:this <- %R5
	@DEBUG_VALUE: _M_set_length:this <- %R5
	@DEBUG_VALUE: _M_length:this <- %R5
	@DEBUG_VALUE: _M_data:this <- %R5
	@DEBUG_VALUE: osc_on_receive:msg <- %R4
	.loc	7 805 16                @ /usr/bin/../lib/gcc/arm-linux-gnueabihf/6.3.0/../../../../include/c++/6.3.0/bits/basic_string.h:805:16
	ldr	r1, [r4, #36]
.Ltmp869:
	.loc	5 333 11 discriminator 1 @ ./include/oscpkt.hh:333:11
	cmp	r1, #2
	blo	.LBB6_139
.Ltmp870:
@ BB#134:                               @ %_ZN6oscpkt7Message9ArgReader14currentTypeTagEv.exit.i.i.i208
	@DEBUG_VALUE: getErr:this <- %R4
	@DEBUG_VALUE: _M_data:this <- %R5
	@DEBUG_VALUE: _M_capacity:this <- %R5
	@DEBUG_VALUE: _M_data:this <- %R5
	@DEBUG_VALUE: _M_set_length:this <- %R5
	@DEBUG_VALUE: _M_length:this <- %R5
	@DEBUG_VALUE: _M_data:this <- %R5
	@DEBUG_VALUE: osc_on_receive:msg <- %R4
	@DEBUG_VALUE: operator[]:__pos <- 1
	.loc	7 136 28                @ /usr/bin/../lib/gcc/arm-linux-gnueabihf/6.3.0/../../../../include/c++/6.3.0/bits/basic_string.h:136:28
	ldr	r1, [r4, #32]
.Ltmp871:
	.loc	5 333 59 discriminator 2 @ ./include/oscpkt.hh:333:59
	ldrb	r1, [r1, #1]
.Ltmp872:
	.loc	5 347 16 discriminator 1 @ ./include/oscpkt.hh:347:16
	cmp	r1, #102
	bne	.LBB6_141
.Ltmp873:
@ BB#135:
	@DEBUG_VALUE: getErr:this <- %R4
	@DEBUG_VALUE: _M_data:this <- %R5
	@DEBUG_VALUE: _M_capacity:this <- %R5
	@DEBUG_VALUE: _M_data:this <- %R5
	@DEBUG_VALUE: _M_set_length:this <- %R5
	@DEBUG_VALUE: _M_length:this <- %R5
	@DEBUG_VALUE: _M_data:this <- %R5
	@DEBUG_VALUE: osc_on_receive:msg <- %R4
	@DEBUG_VALUE: argBeg:idx <- 1
	.loc	13 656 66               @ /usr/bin/../lib/gcc/arm-linux-gnueabihf/6.3.0/../../../../include/c++/6.3.0/bits/stl_vector.h:656:66
	ldr	r1, [r4, #68]
.Ltmp874:
	.loc	41 82 60 discriminator 3 @ /root/Bela/projects/SOFAlizer-for-Bela/osc.cpp:82:60
	vmov.f32	d17, #-3.000000e+01
.Ltmp875:
	.loc	13 656 40               @ /usr/bin/../lib/gcc/arm-linux-gnueabihf/6.3.0/../../../../include/c++/6.3.0/bits/stl_vector.h:656:40
	ldr	r2, [r4, #72]
.Ltmp876:
	.loc	5 326 62                @ ./include/oscpkt.hh:326:62
	ldr	r0, [r0, #8]
	.loc	5 326 40 is_stmt 0      @ ./include/oscpkt.hh:326:40
	cmp	r2, r1
.Ltmp877:
	.loc	41 82 60 is_stmt 1 discriminator 3 @ /root/Bela/projects/SOFAlizer-for-Bela/osc.cpp:82:60
	vldr	s0, .LCPI6_1
.Ltmp878:
	.loc	5 326 40                @ ./include/oscpkt.hh:326:40
	addne	r0, r0, r1
.Ltmp879:
	@DEBUG_VALUE: i <- 1
	@DEBUG_VALUE: bytes2pod<float>:bytes <- %R0
	.loc	5 136 18                @ ./include/oscpkt.hh:136:18
	ldrb	r3, [r0, #2]
.Ltmp880:
	@DEBUG_VALUE: i <- 0
	ldrb	r1, [r0]
	ldrb	r2, [r0, #1]
	ldrb	r0, [r0, #3]
.Ltmp881:
	orr	r0, r0, r3, lsl #8
	orr	r0, r0, r2, lsl #16
	orr	r0, r0, r1, lsl #24
.Ltmp882:
	@DEBUG_VALUE: i <- 1
	.loc	41 82 60 discriminator 3 @ /root/Bela/projects/SOFAlizer-for-Bela/osc.cpp:82:60
	vmov	d16, r0, r0
	vmul.f32	d16, d16, d0
	vadd.f32	d9, d16, d17
	b	.LBB6_106
.Ltmp883:
	.p2align	2
@ BB#136:
.LCPI6_4:
	.long	1135869952              @ float 360
.LBB6_137:                              @ %_ZNSt5mutex6unlockEv.exit68.critedge334
.Ltmp884:
	@DEBUG_VALUE: _M_data:this <- %R5
	@DEBUG_VALUE: _M_length:this <- %R5
	@DEBUG_VALUE: _M_set_length:this <- %R5
	@DEBUG_VALUE: _M_data:this <- %R5
	@DEBUG_VALUE: _M_construct<const char *>:this <- %R5
	@DEBUG_VALUE: _M_construct_aux<const char *>:this <- %R5
	@DEBUG_VALUE: _M_construct<const char *>:this <- %R5
	@DEBUG_VALUE: _S_copy_chars:__p <- %R6
	@DEBUG_VALUE: _S_copy:__d <- %R6
	@DEBUG_VALUE: _M_local_data:this <- %R5
	@DEBUG_VALUE: basic_string:this <- %R5
	@DEBUG_VALUE: _M_data:this <- %R5
	@DEBUG_VALUE: _M_length:this <- %R5
	@DEBUG_VALUE: _M_set_length:this <- %R5
	@DEBUG_VALUE: _M_data:this <- %R5
	@DEBUG_VALUE: _M_construct<const char *>:this <- %R5
	@DEBUG_VALUE: _M_construct_aux<const char *>:this <- %R5
	@DEBUG_VALUE: _M_construct<const char *>:this <- %R5
	@DEBUG_VALUE: _M_local_data:this <- %R5
	@DEBUG_VALUE: basic_string:this <- %R5
	@DEBUG_VALUE: _M_data:this <- %R5
	@DEBUG_VALUE: _M_capacity:this <- %R5
	@DEBUG_VALUE: _M_data:this <- %R5
	@DEBUG_VALUE: _M_set_length:this <- %R5
	@DEBUG_VALUE: _M_length:this <- %R5
	@DEBUG_VALUE: _M_data:this <- %R5
	.loc	41 111 21               @ /root/Bela/projects/SOFAlizer-for-Bela/osc.cpp:111:21
	movw	r0, :lower16:hrtf_num
.Ltmp885:
	.loc	41 112 29               @ /root/Bela/projects/SOFAlizer-for-Bela/osc.cpp:112:29
	movw	r2, :lower16:hrtf_cnt
.Ltmp886:
	.loc	41 111 21               @ /root/Bela/projects/SOFAlizer-for-Bela/osc.cpp:111:21
	movt	r0, :upper16:hrtf_num
.Ltmp887:
	.loc	41 112 29               @ /root/Bela/projects/SOFAlizer-for-Bela/osc.cpp:112:29
	movt	r2, :upper16:hrtf_cnt
.Ltmp888:
	.loc	41 111 21               @ /root/Bela/projects/SOFAlizer-for-Bela/osc.cpp:111:21
	ldr	r1, [r0]
.Ltmp889:
	.loc	41 112 29               @ /root/Bela/projects/SOFAlizer-for-Bela/osc.cpp:112:29
	ldr	r2, [r2]
.Ltmp890:
	.loc	41 111 21               @ /root/Bela/projects/SOFAlizer-for-Bela/osc.cpp:111:21
	add	r1, r1, #1
	.loc	41 112 17               @ /root/Bela/projects/SOFAlizer-for-Bela/osc.cpp:112:17
	cmp	r1, r2
	movweq	r1, #0
.Ltmp891:
	.loc	41 113 26               @ /root/Bela/projects/SOFAlizer-for-Bela/osc.cpp:113:26
	str	r1, [r0]
	b	.LBB6_114
.Ltmp892:
.LBB6_138:
	@DEBUG_VALUE: getErr:this <- %R4
	@DEBUG_VALUE: _M_data:this <- %R5
	@DEBUG_VALUE: _M_capacity:this <- %R5
	@DEBUG_VALUE: _M_data:this <- %R5
	@DEBUG_VALUE: _M_set_length:this <- %R5
	@DEBUG_VALUE: _M_length:this <- %R5
	@DEBUG_VALUE: _M_data:this <- %R5
	@DEBUG_VALUE: osc_on_receive:msg <- %R4
	vmov.f32	d9, #-3.000000e+01
	b	.LBB6_99
.Ltmp893:
.LBB6_139:
	@DEBUG_VALUE: getErr:this <- %R4
	@DEBUG_VALUE: _M_data:this <- %R5
	@DEBUG_VALUE: _M_capacity:this <- %R5
	@DEBUG_VALUE: _M_data:this <- %R5
	@DEBUG_VALUE: _M_set_length:this <- %R5
	@DEBUG_VALUE: _M_length:this <- %R5
	@DEBUG_VALUE: _M_data:this <- %R5
	@DEBUG_VALUE: osc_on_receive:msg <- %R4
	vmov.f32	d9, #-3.000000e+01
	b	.LBB6_106
.Ltmp894:
.LBB6_140:
	@DEBUG_VALUE: getErr:this <- %R4
	@DEBUG_VALUE: _M_data:this <- %R5
	@DEBUG_VALUE: _M_capacity:this <- %R5
	@DEBUG_VALUE: _M_data:this <- %R5
	@DEBUG_VALUE: _M_set_length:this <- %R5
	@DEBUG_VALUE: _M_length:this <- %R5
	@DEBUG_VALUE: _M_data:this <- %R5
	@DEBUG_VALUE: osc_on_receive:msg <- %R4
	vmov.f32	d9, #-3.000000e+01
	b	.LBB6_99
.Ltmp895:
.LBB6_141:
	@DEBUG_VALUE: getErr:this <- %R4
	@DEBUG_VALUE: _M_data:this <- %R5
	@DEBUG_VALUE: _M_capacity:this <- %R5
	@DEBUG_VALUE: _M_data:this <- %R5
	@DEBUG_VALUE: _M_set_length:this <- %R5
	@DEBUG_VALUE: _M_length:this <- %R5
	@DEBUG_VALUE: _M_data:this <- %R5
	@DEBUG_VALUE: osc_on_receive:msg <- %R4
	vmov.f32	d9, #-3.000000e+01
	b	.LBB6_106
.Ltmp896:
.LBB6_142:
	.loc	53 107 2                @ /usr/bin/../lib/gcc/arm-linux-gnueabihf/6.3.0/../../../../include/c++/6.3.0/bits/std_mutex.h:107:2
	mov	lr, pc
	b	_ZSt20__throw_system_errori
.Ltmp897:
.LBB6_143:
	@DEBUG_VALUE: _S_copy:__s <- %R0
	@DEBUG_VALUE: _M_data:this <- %R5
	@DEBUG_VALUE: _M_length:this <- %R5
	@DEBUG_VALUE: _M_set_length:this <- %R5
	@DEBUG_VALUE: _M_data:this <- %R5
	@DEBUG_VALUE: _M_construct<const char *>:this <- %R5
	@DEBUG_VALUE: _M_construct_aux<const char *>:this <- %R5
	@DEBUG_VALUE: _M_construct<const char *>:this <- %R5
	@DEBUG_VALUE: _S_copy_chars:__p <- %R6
	@DEBUG_VALUE: _S_copy:__d <- %R6
	@DEBUG_VALUE: _M_local_data:this <- %R5
	@DEBUG_VALUE: basic_string:this <- %R5
	@DEBUG_VALUE: _M_data:this <- %R5
	@DEBUG_VALUE: _M_length:this <- %R5
	@DEBUG_VALUE: _M_set_length:this <- %R5
	@DEBUG_VALUE: _M_data:this <- %R5
	@DEBUG_VALUE: _M_construct<const char *>:this <- %R5
	@DEBUG_VALUE: _M_construct_aux<const char *>:this <- %R5
	@DEBUG_VALUE: _M_construct<const char *>:this <- %R5
	@DEBUG_VALUE: _S_copy_chars:__p <- %R6
	@DEBUG_VALUE: _S_copy:__d <- %R6
	@DEBUG_VALUE: _M_local_data:this <- %R5
	@DEBUG_VALUE: basic_string:this <- %R5
	@DEBUG_VALUE: _M_data:this <- %R5
	@DEBUG_VALUE: _M_length:this <- %R5
	@DEBUG_VALUE: _M_set_length:this <- %R5
	@DEBUG_VALUE: _M_data:this <- %R5
	@DEBUG_VALUE: _M_construct<const char *>:this <- %R5
	@DEBUG_VALUE: _M_construct_aux<const char *>:this <- %R5
	@DEBUG_VALUE: _M_construct<const char *>:this <- %R5
	@DEBUG_VALUE: _M_local_data:this <- %R5
	@DEBUG_VALUE: basic_string:this <- %R5
	@DEBUG_VALUE: _M_data:this <- %R5
	@DEBUG_VALUE: _M_capacity:this <- %R5
	@DEBUG_VALUE: _M_data:this <- %R5
	@DEBUG_VALUE: _M_set_length:this <- %R5
	@DEBUG_VALUE: _M_length:this <- %R5
	@DEBUG_VALUE: _M_data:this <- %R5
	@DEBUG_VALUE: osc_on_receive:msg <- %R4
.Ltmp386:
	b	.LBB6_159
.Ltmp898:
.LBB6_144:
	@DEBUG_VALUE: _S_copy:__s <- %R0
	@DEBUG_VALUE: _M_data:this <- %R5
	@DEBUG_VALUE: _M_length:this <- %R5
	@DEBUG_VALUE: _M_set_length:this <- %R5
	@DEBUG_VALUE: _M_data:this <- %R5
	@DEBUG_VALUE: _M_construct<const char *>:this <- %R5
	@DEBUG_VALUE: _M_construct_aux<const char *>:this <- %R5
	@DEBUG_VALUE: _M_construct<const char *>:this <- %R5
	@DEBUG_VALUE: _S_copy_chars:__p <- %R6
	@DEBUG_VALUE: _S_copy:__d <- %R6
	@DEBUG_VALUE: _M_local_data:this <- %R5
	@DEBUG_VALUE: basic_string:this <- %R5
	@DEBUG_VALUE: _M_data:this <- %R5
	@DEBUG_VALUE: _M_length:this <- %R5
	@DEBUG_VALUE: _M_set_length:this <- %R5
	@DEBUG_VALUE: _M_data:this <- %R5
	@DEBUG_VALUE: _M_construct<const char *>:this <- %R5
	@DEBUG_VALUE: _M_construct_aux<const char *>:this <- %R5
	@DEBUG_VALUE: _M_construct<const char *>:this <- %R5
	@DEBUG_VALUE: _M_local_data:this <- %R5
	@DEBUG_VALUE: basic_string:this <- %R5
	@DEBUG_VALUE: _M_data:this <- %R5
	@DEBUG_VALUE: _M_capacity:this <- %R5
	@DEBUG_VALUE: _M_data:this <- %R5
	@DEBUG_VALUE: _M_set_length:this <- %R5
	@DEBUG_VALUE: _M_length:this <- %R5
	@DEBUG_VALUE: _M_data:this <- %R5
	@DEBUG_VALUE: osc_on_receive:msg <- %R4
.Ltmp383:
	b	.LBB6_159
.Ltmp899:
.LBB6_145:
	@DEBUG_VALUE: _S_copy:__s <- %R0
	@DEBUG_VALUE: _M_data:this <- %R5
	@DEBUG_VALUE: _M_length:this <- %R5
	@DEBUG_VALUE: _M_set_length:this <- %R5
	@DEBUG_VALUE: _M_data:this <- %R5
	@DEBUG_VALUE: _M_construct<const char *>:this <- %R5
	@DEBUG_VALUE: _M_construct_aux<const char *>:this <- %R5
	@DEBUG_VALUE: _M_construct<const char *>:this <- %R5
	@DEBUG_VALUE: _M_local_data:this <- %R5
	@DEBUG_VALUE: basic_string:this <- %R5
	@DEBUG_VALUE: _M_data:this <- %R5
	@DEBUG_VALUE: _M_capacity:this <- %R5
	@DEBUG_VALUE: _M_data:this <- %R5
	@DEBUG_VALUE: _M_set_length:this <- %R5
	@DEBUG_VALUE: _M_length:this <- %R5
	@DEBUG_VALUE: _M_data:this <- %R5
	@DEBUG_VALUE: osc_on_receive:msg <- %R4
.Ltmp380:
	b	.LBB6_159
.Ltmp900:
.LBB6_146:
	@DEBUG_VALUE: _S_copy:__s <- %R2
	@DEBUG_VALUE: _M_data:this <- %R5
	@DEBUG_VALUE: _M_capacity:this <- %R5
	@DEBUG_VALUE: _M_data:this <- %R5
	@DEBUG_VALUE: _M_set_length:this <- %R5
	@DEBUG_VALUE: _M_length:this <- %R5
	@DEBUG_VALUE: _M_data:this <- %R5
	@DEBUG_VALUE: osc_on_receive:msg <- %R4
.Ltmp377:
	b	.LBB6_159
.Ltmp901:
.LBB6_147:
	@DEBUG_VALUE: _M_construct<const char *>:this <- %R5
	@DEBUG_VALUE: _M_construct_aux<const char *>:this <- %R5
	@DEBUG_VALUE: _M_construct<const char *>:this <- %R5
	@DEBUG_VALUE: _M_local_data:this <- %R5
	@DEBUG_VALUE: basic_string:this <- %R5
	@DEBUG_VALUE: _M_data:this <- %R5
	@DEBUG_VALUE: _M_capacity:this <- %R5
	@DEBUG_VALUE: _M_data:this <- %R5
	@DEBUG_VALUE: _M_set_length:this <- %R5
	@DEBUG_VALUE: _M_length:this <- %R5
	@DEBUG_VALUE: _M_data:this <- %R5
	@DEBUG_VALUE: osc_on_receive:msg <- %R4
.Ltmp374:
	b	.LBB6_162
.Ltmp902:
.LBB6_148:
	@DEBUG_VALUE: _S_copy:__s <- %R2
	@DEBUG_VALUE: _M_data:this <- %R5
	@DEBUG_VALUE: _M_capacity:this <- %R5
	@DEBUG_VALUE: _M_data:this <- %R5
	@DEBUG_VALUE: _M_set_length:this <- %R5
	@DEBUG_VALUE: _M_length:this <- %R5
	@DEBUG_VALUE: _M_data:this <- %R5
	@DEBUG_VALUE: osc_on_receive:msg <- %R4
.Ltmp371:
	b	.LBB6_159
.Ltmp903:
.LBB6_149:
	@DEBUG_VALUE: _M_construct<const char *>:this <- %R5
	@DEBUG_VALUE: _M_construct_aux<const char *>:this <- %R5
	@DEBUG_VALUE: _M_construct<const char *>:this <- %R5
	@DEBUG_VALUE: _M_local_data:this <- %R5
	@DEBUG_VALUE: basic_string:this <- %R5
	@DEBUG_VALUE: _M_data:this <- %R5
	@DEBUG_VALUE: _M_capacity:this <- %R5
	@DEBUG_VALUE: _M_data:this <- %R5
	@DEBUG_VALUE: _M_set_length:this <- %R5
	@DEBUG_VALUE: _M_length:this <- %R5
	@DEBUG_VALUE: _M_data:this <- %R5
	@DEBUG_VALUE: osc_on_receive:msg <- %R4
.Ltmp368:
	b	.LBB6_162
.Ltmp904:
.LBB6_150:
	@DEBUG_VALUE: _S_copy:__s <- %R2
	@DEBUG_VALUE: _M_data:this <- %R5
	@DEBUG_VALUE: _M_capacity:this <- %R5
	@DEBUG_VALUE: _M_data:this <- %R5
	@DEBUG_VALUE: _M_set_length:this <- %R5
	@DEBUG_VALUE: _M_length:this <- %R5
	@DEBUG_VALUE: _M_data:this <- %R5
	@DEBUG_VALUE: osc_on_receive:msg <- %R4
.Ltmp365:
	b	.LBB6_159
.Ltmp905:
.LBB6_151:
	@DEBUG_VALUE: _M_construct<const char *>:this <- %R5
	@DEBUG_VALUE: _M_construct_aux<const char *>:this <- %R5
	@DEBUG_VALUE: _M_construct<const char *>:this <- %R5
	@DEBUG_VALUE: _M_local_data:this <- %R5
	@DEBUG_VALUE: basic_string:this <- %R5
	@DEBUG_VALUE: _M_data:this <- %R5
	@DEBUG_VALUE: _M_capacity:this <- %R5
	@DEBUG_VALUE: _M_data:this <- %R5
	@DEBUG_VALUE: _M_set_length:this <- %R5
	@DEBUG_VALUE: _M_length:this <- %R5
	@DEBUG_VALUE: _M_data:this <- %R5
	@DEBUG_VALUE: osc_on_receive:msg <- %R4
.Ltmp362:
	b	.LBB6_162
.Ltmp906:
.LBB6_152:
	@DEBUG_VALUE: _S_copy:__s <- %R2
	@DEBUG_VALUE: _M_data:this <- %R5
	@DEBUG_VALUE: _M_capacity:this <- %R5
	@DEBUG_VALUE: _M_data:this <- %R5
	@DEBUG_VALUE: _M_set_length:this <- %R5
	@DEBUG_VALUE: _M_length:this <- %R5
	@DEBUG_VALUE: _M_data:this <- %R5
	@DEBUG_VALUE: osc_on_receive:msg <- %R4
.Ltmp359:
	b	.LBB6_159
.Ltmp907:
.LBB6_153:
	@DEBUG_VALUE: _M_construct<const char *>:this <- %R5
	@DEBUG_VALUE: _M_construct_aux<const char *>:this <- %R5
	@DEBUG_VALUE: _M_construct<const char *>:this <- %R5
	@DEBUG_VALUE: _M_local_data:this <- %R5
	@DEBUG_VALUE: basic_string:this <- %R5
	@DEBUG_VALUE: _M_data:this <- %R5
	@DEBUG_VALUE: _M_capacity:this <- %R5
	@DEBUG_VALUE: _M_data:this <- %R5
	@DEBUG_VALUE: _M_set_length:this <- %R5
	@DEBUG_VALUE: _M_length:this <- %R5
	@DEBUG_VALUE: _M_data:this <- %R5
	@DEBUG_VALUE: osc_on_receive:msg <- %R4
.Ltmp356:
	b	.LBB6_162
.Ltmp908:
.LBB6_154:
	@DEBUG_VALUE: _S_copy:__s <- %R2
	@DEBUG_VALUE: _M_data:this <- %R5
	@DEBUG_VALUE: _M_capacity:this <- %R5
	@DEBUG_VALUE: _M_data:this <- %R5
	@DEBUG_VALUE: _M_set_length:this <- %R5
	@DEBUG_VALUE: _M_length:this <- %R5
	@DEBUG_VALUE: _M_data:this <- %R5
	@DEBUG_VALUE: osc_on_receive:msg <- %R4
.Ltmp353:
	b	.LBB6_159
.Ltmp909:
.LBB6_155:
	@DEBUG_VALUE: _M_construct<const char *>:this <- %R5
	@DEBUG_VALUE: _M_construct_aux<const char *>:this <- %R5
	@DEBUG_VALUE: _M_construct<const char *>:this <- %R5
	@DEBUG_VALUE: _M_local_data:this <- %R5
	@DEBUG_VALUE: basic_string:this <- %R5
	@DEBUG_VALUE: _M_data:this <- %R5
	@DEBUG_VALUE: _M_capacity:this <- %R5
	@DEBUG_VALUE: _M_data:this <- %R5
	@DEBUG_VALUE: _M_set_length:this <- %R5
	@DEBUG_VALUE: _M_length:this <- %R5
	@DEBUG_VALUE: _M_data:this <- %R5
	@DEBUG_VALUE: osc_on_receive:msg <- %R4
.Ltmp350:
	b	.LBB6_162
.Ltmp910:
.LBB6_156:
	@DEBUG_VALUE: _S_copy:__s <- %R2
	@DEBUG_VALUE: _M_data:this <- %R5
	@DEBUG_VALUE: _M_capacity:this <- %R5
	@DEBUG_VALUE: _M_data:this <- %R5
	@DEBUG_VALUE: _M_set_length:this <- %R5
	@DEBUG_VALUE: _M_length:this <- %R5
	@DEBUG_VALUE: _M_data:this <- %R5
	@DEBUG_VALUE: osc_on_receive:msg <- %R4
.Ltmp347:
	b	.LBB6_159
.Ltmp911:
.LBB6_157:
	@DEBUG_VALUE: _M_construct<const char *>:this <- %R5
	@DEBUG_VALUE: _M_construct_aux<const char *>:this <- %R5
	@DEBUG_VALUE: _M_construct<const char *>:this <- %R5
	@DEBUG_VALUE: _M_local_data:this <- %R5
	@DEBUG_VALUE: basic_string:this <- %R5
	@DEBUG_VALUE: _M_data:this <- %R5
	@DEBUG_VALUE: _M_capacity:this <- %R5
	@DEBUG_VALUE: _M_data:this <- %R5
	@DEBUG_VALUE: _M_set_length:this <- %R5
	@DEBUG_VALUE: _M_length:this <- %R5
	@DEBUG_VALUE: _M_data:this <- %R5
	@DEBUG_VALUE: osc_on_receive:msg <- %R4
.Ltmp344:
	b	.LBB6_162
.Ltmp912:
.LBB6_158:
	@DEBUG_VALUE: _S_copy:__s <- %R2
	@DEBUG_VALUE: _M_data:this <- %R5
	@DEBUG_VALUE: _M_capacity:this <- %R5
	@DEBUG_VALUE: _M_data:this <- %R5
	@DEBUG_VALUE: _M_set_length:this <- %R5
	@DEBUG_VALUE: _M_length:this <- %R5
	@DEBUG_VALUE: _M_data:this <- %R5
	@DEBUG_VALUE: osc_on_receive:msg <- %R4
.Ltmp341:
.Ltmp913:
.LBB6_159:
	@DEBUG_VALUE: osc_on_receive:msg <- %R4
	mov	r4, r0
.Ltmp914:
	.loc	7 136 28                @ /usr/bin/../lib/gcc/arm-linux-gnueabihf/6.3.0/../../../../include/c++/6.3.0/bits/basic_string.h:136:28
	ldr	r0, [r11, #-96]
.Ltmp915:
	@DEBUG_VALUE: deallocate:__p <- %R0
	@DEBUG_VALUE: deallocate:__p <- %R0
	.loc	7 180 6                 @ /usr/bin/../lib/gcc/arm-linux-gnueabihf/6.3.0/../../../../include/c++/6.3.0/bits/basic_string.h:180:6
	cmp	r0, r6
	beq	.LBB6_163
.Ltmp916:
@ BB#160:
	@DEBUG_VALUE: deallocate:__p <- %R0
	@DEBUG_VALUE: deallocate:__p <- %R0
	.loc	47 110 9                @ /usr/bin/../lib/gcc/arm-linux-gnueabihf/6.3.0/../../../../include/c++/6.3.0/ext/new_allocator.h:110:9
	bl	_ZdlPv
.Ltmp917:
	mov	r0, r4
	mov	lr, pc
	b	_Unwind_Resume
.Ltmp918:
.LBB6_161:
	@DEBUG_VALUE: osc_on_receive:msg <- %R4
.Ltmp338:
.Ltmp919:
.LBB6_162:
	@DEBUG_VALUE: osc_on_receive:msg <- %R4
	mov	r4, r0
.Ltmp920:
.LBB6_163:
	mov	r0, r4
	mov	lr, pc
	b	_Unwind_Resume
	.p2align	2
@ BB#164:
.LCPI6_0:
	.long	1135869952              @ float 360
.LCPI6_1:
	.long	1123024896              @ float 120
.Lfunc_end6:
	.size	_Z14osc_on_receivePN6oscpkt7MessageEPKcPv, .Lfunc_end6-_Z14osc_on_receivePN6oscpkt7MessageEPKcPv
	.cfi_endproc
	.file	55 "/usr/bin/../lib/gcc/arm-linux-gnueabihf/6.3.0/../../../../include/c++/6.3.0" "atomic"
	.globl	__gxx_personality_v0
	.personality __gxx_personality_v0
	.handlerdata
	.p2align	2
GCC_except_table6:
.Lexception6:
	.byte	255                     @ @LPStart Encoding = omit
	.byte	0                       @ @TType Encoding = absptr
	.asciz	"\355\201\200\200"      @ @TType base offset
	.byte	3                       @ Call site Encoding = udata4
	.ascii	"\352\001"              @ Call site table length
	.long	.Ltmp336-.Lfunc_begin6  @ >> Call Site 1 <<
	.long	.Ltmp337-.Ltmp336       @   Call between .Ltmp336 and .Ltmp337
	.long	.Ltmp338-.Lfunc_begin6  @     jumps to .Ltmp338
	.byte	0                       @   On action: cleanup
	.long	.Ltmp339-.Lfunc_begin6  @ >> Call Site 2 <<
	.long	.Ltmp340-.Ltmp339       @   Call between .Ltmp339 and .Ltmp340
	.long	.Ltmp341-.Lfunc_begin6  @     jumps to .Ltmp341
	.byte	0                       @   On action: cleanup
	.long	.Ltmp342-.Lfunc_begin6  @ >> Call Site 3 <<
	.long	.Ltmp343-.Ltmp342       @   Call between .Ltmp342 and .Ltmp343
	.long	.Ltmp344-.Lfunc_begin6  @     jumps to .Ltmp344
	.byte	0                       @   On action: cleanup
	.long	.Ltmp345-.Lfunc_begin6  @ >> Call Site 4 <<
	.long	.Ltmp346-.Ltmp345       @   Call between .Ltmp345 and .Ltmp346
	.long	.Ltmp347-.Lfunc_begin6  @     jumps to .Ltmp347
	.byte	0                       @   On action: cleanup
	.long	.Ltmp348-.Lfunc_begin6  @ >> Call Site 5 <<
	.long	.Ltmp349-.Ltmp348       @   Call between .Ltmp348 and .Ltmp349
	.long	.Ltmp350-.Lfunc_begin6  @     jumps to .Ltmp350
	.byte	0                       @   On action: cleanup
	.long	.Ltmp351-.Lfunc_begin6  @ >> Call Site 6 <<
	.long	.Ltmp352-.Ltmp351       @   Call between .Ltmp351 and .Ltmp352
	.long	.Ltmp353-.Lfunc_begin6  @     jumps to .Ltmp353
	.byte	0                       @   On action: cleanup
	.long	.Ltmp354-.Lfunc_begin6  @ >> Call Site 7 <<
	.long	.Ltmp355-.Ltmp354       @   Call between .Ltmp354 and .Ltmp355
	.long	.Ltmp356-.Lfunc_begin6  @     jumps to .Ltmp356
	.byte	0                       @   On action: cleanup
	.long	.Ltmp357-.Lfunc_begin6  @ >> Call Site 8 <<
	.long	.Ltmp358-.Ltmp357       @   Call between .Ltmp357 and .Ltmp358
	.long	.Ltmp359-.Lfunc_begin6  @     jumps to .Ltmp359
	.byte	0                       @   On action: cleanup
	.long	.Ltmp360-.Lfunc_begin6  @ >> Call Site 9 <<
	.long	.Ltmp361-.Ltmp360       @   Call between .Ltmp360 and .Ltmp361
	.long	.Ltmp362-.Lfunc_begin6  @     jumps to .Ltmp362
	.byte	0                       @   On action: cleanup
	.long	.Ltmp363-.Lfunc_begin6  @ >> Call Site 10 <<
	.long	.Ltmp364-.Ltmp363       @   Call between .Ltmp363 and .Ltmp364
	.long	.Ltmp365-.Lfunc_begin6  @     jumps to .Ltmp365
	.byte	0                       @   On action: cleanup
	.long	.Ltmp366-.Lfunc_begin6  @ >> Call Site 11 <<
	.long	.Ltmp367-.Ltmp366       @   Call between .Ltmp366 and .Ltmp367
	.long	.Ltmp368-.Lfunc_begin6  @     jumps to .Ltmp368
	.byte	0                       @   On action: cleanup
	.long	.Ltmp369-.Lfunc_begin6  @ >> Call Site 12 <<
	.long	.Ltmp370-.Ltmp369       @   Call between .Ltmp369 and .Ltmp370
	.long	.Ltmp371-.Lfunc_begin6  @     jumps to .Ltmp371
	.byte	0                       @   On action: cleanup
	.long	.Ltmp372-.Lfunc_begin6  @ >> Call Site 13 <<
	.long	.Ltmp373-.Ltmp372       @   Call between .Ltmp372 and .Ltmp373
	.long	.Ltmp374-.Lfunc_begin6  @     jumps to .Ltmp374
	.byte	0                       @   On action: cleanup
	.long	.Ltmp375-.Lfunc_begin6  @ >> Call Site 14 <<
	.long	.Ltmp376-.Ltmp375       @   Call between .Ltmp375 and .Ltmp376
	.long	.Ltmp377-.Lfunc_begin6  @     jumps to .Ltmp377
	.byte	0                       @   On action: cleanup
	.long	.Ltmp378-.Lfunc_begin6  @ >> Call Site 15 <<
	.long	.Ltmp379-.Ltmp378       @   Call between .Ltmp378 and .Ltmp379
	.long	.Ltmp380-.Lfunc_begin6  @     jumps to .Ltmp380
	.byte	0                       @   On action: cleanup
	.long	.Ltmp381-.Lfunc_begin6  @ >> Call Site 16 <<
	.long	.Ltmp382-.Ltmp381       @   Call between .Ltmp381 and .Ltmp382
	.long	.Ltmp383-.Lfunc_begin6  @     jumps to .Ltmp383
	.byte	0                       @   On action: cleanup
	.long	.Ltmp384-.Lfunc_begin6  @ >> Call Site 17 <<
	.long	.Ltmp385-.Ltmp384       @   Call between .Ltmp384 and .Ltmp385
	.long	.Ltmp386-.Lfunc_begin6  @     jumps to .Ltmp386
	.byte	0                       @   On action: cleanup
	.long	.Ltmp385-.Lfunc_begin6  @ >> Call Site 18 <<
	.long	.Lfunc_end6-.Ltmp385    @   Call between .Ltmp385 and .Lfunc_end6
	.long	0                       @     has no landing pad
	.byte	0                       @   On action: cleanup
	.p2align	2
	.fnend

	.section	.text._ZNK6oscpkt7Message5matchERKNSt7__cxx1112basic_stringIcSt11char_traitsIcESaIcEEE,"axG",%progbits,_ZNK6oscpkt7Message5matchERKNSt7__cxx1112basic_stringIcSt11char_traitsIcESaIcEEE,comdat
	.weak	_ZNK6oscpkt7Message5matchERKNSt7__cxx1112basic_stringIcSt11char_traitsIcESaIcEEE
	.p2align	2
	.type	_ZNK6oscpkt7Message5matchERKNSt7__cxx1112basic_stringIcSt11char_traitsIcESaIcEEE,%function
_ZNK6oscpkt7Message5matchERKNSt7__cxx1112basic_stringIcSt11char_traitsIcESaIcEEE: @ @_ZNK6oscpkt7Message5matchERKNSt7__cxx1112basic_stringIcSt11char_traitsIcESaIcEEE
.Lfunc_begin7:
	.loc	5 397 0                 @ ./include/oscpkt.hh:397:0
	.fnstart
	.cfi_startproc
@ BB#0:
	.save	{r4, r5, r6, r7, r8, r9, r10, r11, lr}
	push	{r4, r5, r6, r7, r8, r9, r10, r11, lr}
.Ltmp931:
	.cfi_def_cfa_offset 36
.Ltmp932:
	.cfi_offset lr, -4
.Ltmp933:
	.cfi_offset r11, -8
.Ltmp934:
	.cfi_offset r10, -12
.Ltmp935:
	.cfi_offset r9, -16
.Ltmp936:
	.cfi_offset r8, -20
.Ltmp937:
	.cfi_offset r7, -24
.Ltmp938:
	.cfi_offset r6, -28
.Ltmp939:
	.cfi_offset r5, -32
.Ltmp940:
	.cfi_offset r4, -36
	.setfp	r11, sp, #28
	add	r11, sp, #28
.Ltmp941:
	.cfi_def_cfa r11, 8
	.pad	#52
	sub	sp, sp, #52
	@DEBUG_VALUE: match:this <- %R1
	@DEBUG_VALUE: match:test <- %R2
	mov	r10, r1
.Ltmp942:
	@DEBUG_VALUE: match:this <- %R10
	mov	r4, r0
	add	r0, sp, #24
.Ltmp943:
	@DEBUG_VALUE: _M_local_data:this <- %R0
	@DEBUG_VALUE: basic_string:this <- %R0
	.loc	7 136 28 prologue_end   @ /usr/bin/../lib/gcc/arm-linux-gnueabihf/6.3.0/../../../../include/c++/6.3.0/bits/basic_string.h:136:28
	ldr	r7, [r10, #8]
.Ltmp944:
	@DEBUG_VALUE: basic_string:__s <- %R7
	@DEBUG_VALUE: length:__s <- %R7
	@DEBUG_VALUE: _M_construct<const char *>:__beg <- %R7
	@DEBUG_VALUE: _M_construct_aux<const char *>:__beg <- %R7
	@DEBUG_VALUE: _M_construct<const char *>:__beg <- %R7
	@DEBUG_VALUE: _S_copy_chars:__k1 <- %R7
	@DEBUG_VALUE: _S_copy:__s <- %R7
	@DEBUG_VALUE: assign:__c2 <- %R7
	.loc	7 142 51                @ /usr/bin/../lib/gcc/arm-linux-gnueabihf/6.3.0/../../../../include/c++/6.3.0/bits/basic_string.h:142:51
	add	r9, r0, #8
	mov	r8, r2
.Ltmp945:
	@DEBUG_VALUE: match:test <- %R8
	.loc	7 110 25                @ /usr/bin/../lib/gcc/arm-linux-gnueabihf/6.3.0/../../../../include/c++/6.3.0/bits/basic_string.h:110:25
	str	r9, [sp, #24]
.Ltmp946:
	.loc	7 456 27                @ /usr/bin/../lib/gcc/arm-linux-gnueabihf/6.3.0/../../../../include/c++/6.3.0/bits/basic_string.h:456:27
	cmp	r7, #0
	beq	.LBB7_27
.Ltmp947:
@ BB#1:                                 @ %.thread.i
	@DEBUG_VALUE: match:test <- %R8
	@DEBUG_VALUE: assign:__c2 <- %R7
	@DEBUG_VALUE: _S_copy:__s <- %R7
	@DEBUG_VALUE: _S_copy_chars:__k1 <- %R7
	@DEBUG_VALUE: _M_construct<const char *>:__beg <- %R7
	@DEBUG_VALUE: _M_construct_aux<const char *>:__beg <- %R7
	@DEBUG_VALUE: _M_construct<const char *>:__beg <- %R7
	@DEBUG_VALUE: length:__s <- %R7
	@DEBUG_VALUE: basic_string:__s <- %R7
	@DEBUG_VALUE: basic_string:this <- %R0
	@DEBUG_VALUE: _M_local_data:this <- %R0
	@DEBUG_VALUE: match:this <- %R10
	.loc	12 267 16               @ /usr/bin/../lib/gcc/arm-linux-gnueabihf/6.3.0/../../../../include/c++/6.3.0/bits/char_traits.h:267:16
	mov	r0, r7
.Ltmp948:
	bl	strlen
	mov	r6, r0
.Ltmp949:
	@DEBUG_VALUE: _M_construct<const char *>:__dnew <- %R6
	@DEBUG_VALUE: _S_copy:__n <- %R6
	.loc	51 217 6                @ /usr/bin/../lib/gcc/arm-linux-gnueabihf/6.3.0/../../../../include/c++/6.3.0/bits/basic_string.tcc:217:6
	cmp	r6, #15
	.loc	51 215 12               @ /usr/bin/../lib/gcc/arm-linux-gnueabihf/6.3.0/../../../../include/c++/6.3.0/bits/basic_string.tcc:215:12
	str	r6, [sp]
	bls	.LBB7_4
.Ltmp950:
@ BB#2:                                 @ %.noexc8.i
	@DEBUG_VALUE: _S_copy:__n <- %R6
	@DEBUG_VALUE: _M_construct<const char *>:__dnew <- %R6
	@DEBUG_VALUE: match:test <- %R8
	@DEBUG_VALUE: assign:__c2 <- %R7
	@DEBUG_VALUE: _S_copy:__s <- %R7
	@DEBUG_VALUE: _S_copy_chars:__k1 <- %R7
	@DEBUG_VALUE: _M_construct<const char *>:__beg <- %R7
	@DEBUG_VALUE: _M_construct_aux<const char *>:__beg <- %R7
	@DEBUG_VALUE: _M_construct<const char *>:__beg <- %R7
	@DEBUG_VALUE: length:__s <- %R7
	@DEBUG_VALUE: basic_string:__s <- %R7
	@DEBUG_VALUE: match:this <- %R10
	.loc	51 219 14               @ /usr/bin/../lib/gcc/arm-linux-gnueabihf/6.3.0/../../../../include/c++/6.3.0/bits/basic_string.tcc:219:14
.Ltmp921:
	add	r0, sp, #24
.Ltmp951:
	@DEBUG_VALUE: _M_construct<const char *>:this <- %R0
	mov	r1, sp
.Ltmp952:
	@DEBUG_VALUE: _M_construct<const char *>:__dnew <- [%R1+0]
	mov	r2, #0
	bl	_ZNSt7__cxx1112basic_stringIcSt11char_traitsIcESaIcEE9_M_createERjj
.Ltmp953:
.Ltmp922:
.Ltmp954:
@ BB#3:                                 @ %.noexc6
	@DEBUG_VALUE: _S_copy:__n <- %R6
	@DEBUG_VALUE: match:test <- %R8
	@DEBUG_VALUE: assign:__c2 <- %R7
	@DEBUG_VALUE: _S_copy:__s <- %R7
	@DEBUG_VALUE: _S_copy_chars:__k1 <- %R7
	@DEBUG_VALUE: _M_construct<const char *>:__beg <- %R7
	@DEBUG_VALUE: _M_construct_aux<const char *>:__beg <- %R7
	@DEBUG_VALUE: _M_construct<const char *>:__beg <- %R7
	@DEBUG_VALUE: length:__s <- %R7
	@DEBUG_VALUE: basic_string:__s <- %R7
	@DEBUG_VALUE: match:this <- %R10
	@DEBUG_VALUE: _M_data:__p <- %R0
	.loc	51 220 18               @ /usr/bin/../lib/gcc/arm-linux-gnueabihf/6.3.0/../../../../include/c++/6.3.0/bits/basic_string.tcc:220:18
	ldr	r1, [sp]
.Ltmp955:
	@DEBUG_VALUE: _M_capacity:__capacity <- %R1
	@DEBUG_VALUE: _M_construct<const char *>:__dnew <- %R1
	.loc	7 128 26                @ /usr/bin/../lib/gcc/arm-linux-gnueabihf/6.3.0/../../../../include/c++/6.3.0/bits/basic_string.h:128:26
	str	r0, [sp, #24]
.Ltmp956:
	.loc	7 160 31                @ /usr/bin/../lib/gcc/arm-linux-gnueabihf/6.3.0/../../../../include/c++/6.3.0/bits/basic_string.h:160:31
	str	r1, [sp, #32]
	b	.LBB7_5
.Ltmp957:
.LBB7_4:                                @ %._crit_edge.i.i.i.i
	@DEBUG_VALUE: _S_copy:__n <- %R6
	@DEBUG_VALUE: _M_construct<const char *>:__dnew <- %R6
	@DEBUG_VALUE: match:test <- %R8
	@DEBUG_VALUE: assign:__c2 <- %R7
	@DEBUG_VALUE: _S_copy:__s <- %R7
	@DEBUG_VALUE: _S_copy_chars:__k1 <- %R7
	@DEBUG_VALUE: _M_construct<const char *>:__beg <- %R7
	@DEBUG_VALUE: _M_construct_aux<const char *>:__beg <- %R7
	@DEBUG_VALUE: _M_construct<const char *>:__beg <- %R7
	@DEBUG_VALUE: length:__s <- %R7
	@DEBUG_VALUE: basic_string:__s <- %R7
	@DEBUG_VALUE: match:this <- %R10
	.loc	7 136 28                @ /usr/bin/../lib/gcc/arm-linux-gnueabihf/6.3.0/../../../../include/c++/6.3.0/bits/basic_string.h:136:28
	mov	r0, r9
.Ltmp958:
.LBB7_5:
	@DEBUG_VALUE: _S_copy:__n <- %R6
	@DEBUG_VALUE: match:test <- %R8
	@DEBUG_VALUE: assign:__c2 <- %R7
	@DEBUG_VALUE: _S_copy:__s <- %R7
	@DEBUG_VALUE: _S_copy_chars:__k1 <- %R7
	@DEBUG_VALUE: _M_construct<const char *>:__beg <- %R7
	@DEBUG_VALUE: _M_construct_aux<const char *>:__beg <- %R7
	@DEBUG_VALUE: _M_construct<const char *>:__beg <- %R7
	@DEBUG_VALUE: length:__s <- %R7
	@DEBUG_VALUE: basic_string:__s <- %R7
	@DEBUG_VALUE: match:this <- %R10
	.loc	7 297 6                 @ /usr/bin/../lib/gcc/arm-linux-gnueabihf/6.3.0/../../../../include/c++/6.3.0/bits/basic_string.h:297:6
	cmp	r6, #0
	beq	.LBB7_9
.Ltmp959:
@ BB#6:
	@DEBUG_VALUE: _S_copy:__n <- %R6
	@DEBUG_VALUE: match:test <- %R8
	@DEBUG_VALUE: assign:__c2 <- %R7
	@DEBUG_VALUE: _S_copy:__s <- %R7
	@DEBUG_VALUE: _S_copy_chars:__k1 <- %R7
	@DEBUG_VALUE: _M_construct<const char *>:__beg <- %R7
	@DEBUG_VALUE: _M_construct_aux<const char *>:__beg <- %R7
	@DEBUG_VALUE: _M_construct<const char *>:__beg <- %R7
	@DEBUG_VALUE: length:__s <- %R7
	@DEBUG_VALUE: basic_string:__s <- %R7
	@DEBUG_VALUE: match:this <- %R10
	cmp	r6, #1
	bne	.LBB7_8
.Ltmp960:
@ BB#7:
	@DEBUG_VALUE: _S_copy:__n <- %R6
	@DEBUG_VALUE: match:test <- %R8
	@DEBUG_VALUE: assign:__c2 <- %R7
	@DEBUG_VALUE: _S_copy:__s <- %R7
	@DEBUG_VALUE: _S_copy_chars:__k1 <- %R7
	@DEBUG_VALUE: _M_construct<const char *>:__beg <- %R7
	@DEBUG_VALUE: _M_construct_aux<const char *>:__beg <- %R7
	@DEBUG_VALUE: _M_construct<const char *>:__beg <- %R7
	@DEBUG_VALUE: length:__s <- %R7
	@DEBUG_VALUE: basic_string:__s <- %R7
	@DEBUG_VALUE: match:this <- %R10
	.loc	12 243 16               @ /usr/bin/../lib/gcc/arm-linux-gnueabihf/6.3.0/../../../../include/c++/6.3.0/bits/char_traits.h:243:16
	ldrb	r1, [r7]
.Ltmp961:
	@DEBUG_VALUE: _S_copy_chars:__p <- %R0
	.loc	12 243 14 is_stmt 0     @ /usr/bin/../lib/gcc/arm-linux-gnueabihf/6.3.0/../../../../include/c++/6.3.0/bits/char_traits.h:243:14
	strb	r1, [r0]
	b	.LBB7_9
.Ltmp962:
.LBB7_8:
	@DEBUG_VALUE: _S_copy:__n <- %R6
	@DEBUG_VALUE: match:test <- %R8
	@DEBUG_VALUE: assign:__c2 <- %R7
	@DEBUG_VALUE: _S_copy:__s <- %R7
	@DEBUG_VALUE: _S_copy_chars:__k1 <- %R7
	@DEBUG_VALUE: _M_construct<const char *>:__beg <- %R7
	@DEBUG_VALUE: _M_construct_aux<const char *>:__beg <- %R7
	@DEBUG_VALUE: _M_construct<const char *>:__beg <- %R7
	@DEBUG_VALUE: length:__s <- %R7
	@DEBUG_VALUE: basic_string:__s <- %R7
	@DEBUG_VALUE: match:this <- %R10
	.loc	12 290 33 is_stmt 1     @ /usr/bin/../lib/gcc/arm-linux-gnueabihf/6.3.0/../../../../include/c++/6.3.0/bits/char_traits.h:290:33
	mov	r1, r7
	mov	r2, r6
	bl	memcpy
.Ltmp963:
.LBB7_9:
	@DEBUG_VALUE: _S_copy:__n <- %R6
	@DEBUG_VALUE: match:test <- %R8
	@DEBUG_VALUE: assign:__c2 <- %R7
	@DEBUG_VALUE: _S_copy:__s <- %R7
	@DEBUG_VALUE: _S_copy_chars:__k1 <- %R7
	@DEBUG_VALUE: _M_construct<const char *>:__beg <- %R7
	@DEBUG_VALUE: _M_construct_aux<const char *>:__beg <- %R7
	@DEBUG_VALUE: _M_construct<const char *>:__beg <- %R7
	@DEBUG_VALUE: length:__s <- %R7
	@DEBUG_VALUE: basic_string:__s <- %R7
	@DEBUG_VALUE: match:this <- %R10
	.loc	51 232 16               @ /usr/bin/../lib/gcc/arm-linux-gnueabihf/6.3.0/../../../../include/c++/6.3.0/bits/basic_string.tcc:232:16
	ldr	r0, [sp]
.Ltmp964:
	@DEBUG_VALUE: _M_set_length:__n <- %R0
	@DEBUG_VALUE: _M_length:__length <- %R0
	@DEBUG_VALUE: _M_construct<const char *>:__dnew <- %R0
	mov	r2, #0
.Ltmp965:
	.loc	7 132 26                @ /usr/bin/../lib/gcc/arm-linux-gnueabihf/6.3.0/../../../../include/c++/6.3.0/bits/basic_string.h:132:26
	str	r0, [sp, #28]
.Ltmp966:
	.loc	7 136 28                @ /usr/bin/../lib/gcc/arm-linux-gnueabihf/6.3.0/../../../../include/c++/6.3.0/bits/basic_string.h:136:28
	ldr	r1, [sp, #24]
.Ltmp967:
	.loc	12 243 14               @ /usr/bin/../lib/gcc/arm-linux-gnueabihf/6.3.0/../../../../include/c++/6.3.0/bits/char_traits.h:243:14
	strb	r2, [r1, r0]
	mov	r0, sp
.Ltmp968:
	@DEBUG_VALUE: _M_local_data:this <- %R0
	@DEBUG_VALUE: _M_data:this <- %R8
	@DEBUG_VALUE: basic_string:this <- %R0
	.loc	7 142 51                @ /usr/bin/../lib/gcc/arm-linux-gnueabihf/6.3.0/../../../../include/c++/6.3.0/bits/basic_string.h:142:51
	add	r5, r0, #8
.Ltmp969:
	.loc	7 136 28                @ /usr/bin/../lib/gcc/arm-linux-gnueabihf/6.3.0/../../../../include/c++/6.3.0/bits/basic_string.h:136:28
	ldr	r6, [r8]
.Ltmp970:
	@DEBUG_VALUE: basic_string:__s <- %R6
	@DEBUG_VALUE: length:__s <- %R6
	@DEBUG_VALUE: _M_construct<const char *>:__beg <- %R6
	@DEBUG_VALUE: _M_construct_aux<const char *>:__beg <- %R6
	@DEBUG_VALUE: _M_construct<const char *>:__beg <- %R6
	@DEBUG_VALUE: _S_copy_chars:__k1 <- %R6
	@DEBUG_VALUE: _S_copy:__s <- %R6
	@DEBUG_VALUE: assign:__c2 <- %R6
	.loc	7 110 25                @ /usr/bin/../lib/gcc/arm-linux-gnueabihf/6.3.0/../../../../include/c++/6.3.0/bits/basic_string.h:110:25
	str	r5, [sp]
.Ltmp971:
	.loc	7 456 27                @ /usr/bin/../lib/gcc/arm-linux-gnueabihf/6.3.0/../../../../include/c++/6.3.0/bits/basic_string.h:456:27
	cmp	r6, #0
	beq	.LBB7_29
.Ltmp972:
@ BB#10:                                @ %.thread.i7
	@DEBUG_VALUE: assign:__c2 <- %R6
	@DEBUG_VALUE: _S_copy:__s <- %R6
	@DEBUG_VALUE: _S_copy_chars:__k1 <- %R6
	@DEBUG_VALUE: _M_construct<const char *>:__beg <- %R6
	@DEBUG_VALUE: _M_construct_aux<const char *>:__beg <- %R6
	@DEBUG_VALUE: _M_construct<const char *>:__beg <- %R6
	@DEBUG_VALUE: length:__s <- %R6
	@DEBUG_VALUE: basic_string:__s <- %R6
	@DEBUG_VALUE: basic_string:this <- %R0
	@DEBUG_VALUE: _M_data:this <- %R8
	@DEBUG_VALUE: _M_local_data:this <- %R0
	@DEBUG_VALUE: match:test <- %R8
	@DEBUG_VALUE: assign:__c2 <- %R7
	@DEBUG_VALUE: _S_copy:__s <- %R7
	@DEBUG_VALUE: _S_copy_chars:__k1 <- %R7
	@DEBUG_VALUE: _M_construct<const char *>:__beg <- %R7
	@DEBUG_VALUE: _M_construct_aux<const char *>:__beg <- %R7
	@DEBUG_VALUE: _M_construct<const char *>:__beg <- %R7
	@DEBUG_VALUE: length:__s <- %R7
	@DEBUG_VALUE: basic_string:__s <- %R7
	@DEBUG_VALUE: match:this <- %R10
	.loc	12 267 16               @ /usr/bin/../lib/gcc/arm-linux-gnueabihf/6.3.0/../../../../include/c++/6.3.0/bits/char_traits.h:267:16
	mov	r0, r6
.Ltmp973:
	bl	strlen
	mov	r7, r0
.Ltmp974:
	@DEBUG_VALUE: _M_construct<const char *>:__dnew <- %R7
	@DEBUG_VALUE: _S_copy:__n <- %R7
	.loc	51 217 6                @ /usr/bin/../lib/gcc/arm-linux-gnueabihf/6.3.0/../../../../include/c++/6.3.0/bits/basic_string.tcc:217:6
	cmp	r7, #15
	.loc	51 215 12               @ /usr/bin/../lib/gcc/arm-linux-gnueabihf/6.3.0/../../../../include/c++/6.3.0/bits/basic_string.tcc:215:12
	str	r7, [r11, #-32]
	bls	.LBB7_13
.Ltmp975:
@ BB#11:                                @ %.noexc8.i11
	@DEBUG_VALUE: _S_copy:__n <- %R7
	@DEBUG_VALUE: _M_construct<const char *>:__dnew <- %R7
	@DEBUG_VALUE: assign:__c2 <- %R6
	@DEBUG_VALUE: _S_copy:__s <- %R6
	@DEBUG_VALUE: _S_copy_chars:__k1 <- %R6
	@DEBUG_VALUE: _M_construct<const char *>:__beg <- %R6
	@DEBUG_VALUE: _M_construct_aux<const char *>:__beg <- %R6
	@DEBUG_VALUE: _M_construct<const char *>:__beg <- %R6
	@DEBUG_VALUE: length:__s <- %R6
	@DEBUG_VALUE: basic_string:__s <- %R6
	@DEBUG_VALUE: _M_data:this <- %R8
	@DEBUG_VALUE: match:test <- %R8
	@DEBUG_VALUE: match:this <- %R10
	.loc	51 219 14               @ /usr/bin/../lib/gcc/arm-linux-gnueabihf/6.3.0/../../../../include/c++/6.3.0/bits/basic_string.tcc:219:14
.Ltmp923:
	sub	r1, r11, #32
.Ltmp976:
	@DEBUG_VALUE: _M_construct<const char *>:__dnew <- [%R1+0]
	mov	r0, sp
.Ltmp977:
	@DEBUG_VALUE: _M_construct<const char *>:this <- %R0
	mov	r2, #0
	bl	_ZNSt7__cxx1112basic_stringIcSt11char_traitsIcESaIcEE9_M_createERjj
.Ltmp978:
.Ltmp924:
.Ltmp979:
@ BB#12:                                @ %.noexc14
	@DEBUG_VALUE: _S_copy:__n <- %R7
	@DEBUG_VALUE: assign:__c2 <- %R6
	@DEBUG_VALUE: _S_copy:__s <- %R6
	@DEBUG_VALUE: _S_copy_chars:__k1 <- %R6
	@DEBUG_VALUE: _M_construct<const char *>:__beg <- %R6
	@DEBUG_VALUE: _M_construct_aux<const char *>:__beg <- %R6
	@DEBUG_VALUE: _M_construct<const char *>:__beg <- %R6
	@DEBUG_VALUE: length:__s <- %R6
	@DEBUG_VALUE: basic_string:__s <- %R6
	@DEBUG_VALUE: _M_data:this <- %R8
	@DEBUG_VALUE: match:test <- %R8
	@DEBUG_VALUE: match:this <- %R10
	@DEBUG_VALUE: _M_data:__p <- %R0
	.loc	51 220 18               @ /usr/bin/../lib/gcc/arm-linux-gnueabihf/6.3.0/../../../../include/c++/6.3.0/bits/basic_string.tcc:220:18
	ldr	r1, [r11, #-32]
.Ltmp980:
	@DEBUG_VALUE: _M_capacity:__capacity <- %R1
	@DEBUG_VALUE: _M_construct<const char *>:__dnew <- %R1
	.loc	7 128 26                @ /usr/bin/../lib/gcc/arm-linux-gnueabihf/6.3.0/../../../../include/c++/6.3.0/bits/basic_string.h:128:26
	str	r0, [sp]
.Ltmp981:
	.loc	7 160 31                @ /usr/bin/../lib/gcc/arm-linux-gnueabihf/6.3.0/../../../../include/c++/6.3.0/bits/basic_string.h:160:31
	str	r1, [sp, #8]
	b	.LBB7_14
.Ltmp982:
.LBB7_13:                               @ %._crit_edge.i.i.i.i10
	@DEBUG_VALUE: _S_copy:__n <- %R7
	@DEBUG_VALUE: _M_construct<const char *>:__dnew <- %R7
	@DEBUG_VALUE: assign:__c2 <- %R6
	@DEBUG_VALUE: _S_copy:__s <- %R6
	@DEBUG_VALUE: _S_copy_chars:__k1 <- %R6
	@DEBUG_VALUE: _M_construct<const char *>:__beg <- %R6
	@DEBUG_VALUE: _M_construct_aux<const char *>:__beg <- %R6
	@DEBUG_VALUE: _M_construct<const char *>:__beg <- %R6
	@DEBUG_VALUE: length:__s <- %R6
	@DEBUG_VALUE: basic_string:__s <- %R6
	@DEBUG_VALUE: _M_data:this <- %R8
	@DEBUG_VALUE: match:test <- %R8
	@DEBUG_VALUE: match:this <- %R10
	.loc	7 136 28                @ /usr/bin/../lib/gcc/arm-linux-gnueabihf/6.3.0/../../../../include/c++/6.3.0/bits/basic_string.h:136:28
	mov	r0, r5
.Ltmp983:
.LBB7_14:
	@DEBUG_VALUE: _S_copy:__n <- %R7
	@DEBUG_VALUE: assign:__c2 <- %R6
	@DEBUG_VALUE: _S_copy:__s <- %R6
	@DEBUG_VALUE: _S_copy_chars:__k1 <- %R6
	@DEBUG_VALUE: _M_construct<const char *>:__beg <- %R6
	@DEBUG_VALUE: _M_construct_aux<const char *>:__beg <- %R6
	@DEBUG_VALUE: _M_construct<const char *>:__beg <- %R6
	@DEBUG_VALUE: length:__s <- %R6
	@DEBUG_VALUE: basic_string:__s <- %R6
	@DEBUG_VALUE: _M_data:this <- %R8
	@DEBUG_VALUE: match:test <- %R8
	@DEBUG_VALUE: match:this <- %R10
	.loc	7 297 6                 @ /usr/bin/../lib/gcc/arm-linux-gnueabihf/6.3.0/../../../../include/c++/6.3.0/bits/basic_string.h:297:6
	cmp	r7, #0
	beq	.LBB7_18
.Ltmp984:
@ BB#15:
	@DEBUG_VALUE: _S_copy:__n <- %R7
	@DEBUG_VALUE: assign:__c2 <- %R6
	@DEBUG_VALUE: _S_copy:__s <- %R6
	@DEBUG_VALUE: _S_copy_chars:__k1 <- %R6
	@DEBUG_VALUE: _M_construct<const char *>:__beg <- %R6
	@DEBUG_VALUE: _M_construct_aux<const char *>:__beg <- %R6
	@DEBUG_VALUE: _M_construct<const char *>:__beg <- %R6
	@DEBUG_VALUE: length:__s <- %R6
	@DEBUG_VALUE: basic_string:__s <- %R6
	@DEBUG_VALUE: _M_data:this <- %R8
	@DEBUG_VALUE: match:test <- %R8
	@DEBUG_VALUE: match:this <- %R10
	cmp	r7, #1
	bne	.LBB7_17
.Ltmp985:
@ BB#16:
	@DEBUG_VALUE: _S_copy:__n <- %R7
	@DEBUG_VALUE: assign:__c2 <- %R6
	@DEBUG_VALUE: _S_copy:__s <- %R6
	@DEBUG_VALUE: _S_copy_chars:__k1 <- %R6
	@DEBUG_VALUE: _M_construct<const char *>:__beg <- %R6
	@DEBUG_VALUE: _M_construct_aux<const char *>:__beg <- %R6
	@DEBUG_VALUE: _M_construct<const char *>:__beg <- %R6
	@DEBUG_VALUE: length:__s <- %R6
	@DEBUG_VALUE: basic_string:__s <- %R6
	@DEBUG_VALUE: _M_data:this <- %R8
	@DEBUG_VALUE: match:test <- %R8
	@DEBUG_VALUE: match:this <- %R10
	.loc	12 243 16               @ /usr/bin/../lib/gcc/arm-linux-gnueabihf/6.3.0/../../../../include/c++/6.3.0/bits/char_traits.h:243:16
	ldrb	r1, [r6]
.Ltmp986:
	@DEBUG_VALUE: _S_copy_chars:__p <- %R0
	.loc	12 243 14 is_stmt 0     @ /usr/bin/../lib/gcc/arm-linux-gnueabihf/6.3.0/../../../../include/c++/6.3.0/bits/char_traits.h:243:14
	strb	r1, [r0]
	b	.LBB7_18
.Ltmp987:
.LBB7_17:
	@DEBUG_VALUE: _S_copy:__n <- %R7
	@DEBUG_VALUE: assign:__c2 <- %R6
	@DEBUG_VALUE: _S_copy:__s <- %R6
	@DEBUG_VALUE: _S_copy_chars:__k1 <- %R6
	@DEBUG_VALUE: _M_construct<const char *>:__beg <- %R6
	@DEBUG_VALUE: _M_construct_aux<const char *>:__beg <- %R6
	@DEBUG_VALUE: _M_construct<const char *>:__beg <- %R6
	@DEBUG_VALUE: length:__s <- %R6
	@DEBUG_VALUE: basic_string:__s <- %R6
	@DEBUG_VALUE: _M_data:this <- %R8
	@DEBUG_VALUE: match:test <- %R8
	@DEBUG_VALUE: match:this <- %R10
	.loc	12 290 33 is_stmt 1     @ /usr/bin/../lib/gcc/arm-linux-gnueabihf/6.3.0/../../../../include/c++/6.3.0/bits/char_traits.h:290:33
	mov	r1, r6
	mov	r2, r7
	bl	memcpy
.Ltmp988:
.LBB7_18:
	@DEBUG_VALUE: _S_copy:__n <- %R7
	@DEBUG_VALUE: assign:__c2 <- %R6
	@DEBUG_VALUE: _S_copy:__s <- %R6
	@DEBUG_VALUE: _S_copy_chars:__k1 <- %R6
	@DEBUG_VALUE: _M_construct<const char *>:__beg <- %R6
	@DEBUG_VALUE: _M_construct_aux<const char *>:__beg <- %R6
	@DEBUG_VALUE: _M_construct<const char *>:__beg <- %R6
	@DEBUG_VALUE: length:__s <- %R6
	@DEBUG_VALUE: basic_string:__s <- %R6
	@DEBUG_VALUE: _M_data:this <- %R8
	@DEBUG_VALUE: match:test <- %R8
	@DEBUG_VALUE: match:this <- %R10
	.loc	51 232 16               @ /usr/bin/../lib/gcc/arm-linux-gnueabihf/6.3.0/../../../../include/c++/6.3.0/bits/basic_string.tcc:232:16
	ldr	r0, [r11, #-32]
.Ltmp989:
	@DEBUG_VALUE: _M_set_length:__n <- %R0
	@DEBUG_VALUE: _M_length:__length <- %R0
	@DEBUG_VALUE: _M_construct<const char *>:__dnew <- %R0
	mov	r6, #0
.Ltmp990:
	.loc	7 132 26                @ /usr/bin/../lib/gcc/arm-linux-gnueabihf/6.3.0/../../../../include/c++/6.3.0/bits/basic_string.h:132:26
	str	r0, [sp, #4]
.Ltmp991:
	.loc	7 136 28                @ /usr/bin/../lib/gcc/arm-linux-gnueabihf/6.3.0/../../../../include/c++/6.3.0/bits/basic_string.h:136:28
	ldr	r1, [sp]
.Ltmp992:
	.loc	12 243 14               @ /usr/bin/../lib/gcc/arm-linux-gnueabihf/6.3.0/../../../../include/c++/6.3.0/bits/char_traits.h:243:14
	strb	r6, [r1, r0]
.Ltmp993:
	.loc	7 136 28                @ /usr/bin/../lib/gcc/arm-linux-gnueabihf/6.3.0/../../../../include/c++/6.3.0/bits/basic_string.h:136:28
	ldr	r1, [sp]
.Ltmp994:
	.loc	7 136 28 is_stmt 0      @ /usr/bin/../lib/gcc/arm-linux-gnueabihf/6.3.0/../../../../include/c++/6.3.0/bits/basic_string.h:136:28
	ldr	r0, [sp, #24]
.Ltmp995:
	.loc	5 739 19 is_stmt 1 discriminator 3 @ ./include/oscpkt.hh:739:19
	bl	_ZN6oscpkt20internalPatternMatchEPKcS1_
.Ltmp996:
	@DEBUG_VALUE: fullPatternMatch:q <- %R0
	mov	r1, #7
	.loc	5 740 12                @ ./include/oscpkt.hh:740:12
	cmp	r0, #0
	beq	.LBB7_20
.Ltmp997:
@ BB#19:                                @ %_ZN6oscpkt16fullPatternMatchERKNSt7__cxx1112basic_stringIcSt11char_traitsIcESaIcEEES7_.exit
	@DEBUG_VALUE: fullPatternMatch:q <- %R0
	@DEBUG_VALUE: _S_copy:__n <- %R7
	@DEBUG_VALUE: _M_data:this <- %R8
	@DEBUG_VALUE: match:test <- %R8
	@DEBUG_VALUE: match:this <- %R10
	.loc	5 740 15 is_stmt 0 discriminator 1 @ ./include/oscpkt.hh:740:15
	ldrb	r1, [r0]
.Ltmp998:
	.loc	5 398 29 is_stmt 1 discriminator 3 @ ./include/oscpkt.hh:398:29
	cmp	r1, #0
	movwne	r1, #7
.Ltmp999:
.LBB7_20:                               @ %_ZN6oscpkt16fullPatternMatchERKNSt7__cxx1112basic_stringIcSt11char_traitsIcESaIcEEES7_.exit.thread
	@DEBUG_VALUE: fullPatternMatch:q <- %R0
	@DEBUG_VALUE: _S_copy:__n <- %R7
	@DEBUG_VALUE: _M_data:this <- %R8
	@DEBUG_VALUE: match:test <- %R8
	@DEBUG_VALUE: match:this <- %R10
	@DEBUG_VALUE: ArgReader:this <- %R4
	@DEBUG_VALUE: ArgReader:m <- %R10
	@DEBUG_VALUE: getErr:this <- %R10
	@DEBUG_VALUE: ArgReader:e <- %R1
	.loc	5 234 62                @ ./include/oscpkt.hh:234:62
	str	r10, [r4]
.Ltmp1000:
	.loc	5 235 28                @ ./include/oscpkt.hh:235:28
	cmp	r1, #0
	.loc	5 235 31 is_stmt 0 discriminator 1 @ ./include/oscpkt.hh:235:31
	ldr	r0, [r10, #80]
.Ltmp1001:
	.loc	5 234 71 is_stmt 1      @ ./include/oscpkt.hh:234:71
	stmib	r4, {r0, r6}
	beq	.LBB7_22
.Ltmp1002:
@ BB#21:                                @ %_ZN6oscpkt16fullPatternMatchERKNSt7__cxx1112basic_stringIcSt11char_traitsIcESaIcEEES7_.exit.thread
	@DEBUG_VALUE: ArgReader:e <- %R1
	@DEBUG_VALUE: getErr:this <- %R10
	@DEBUG_VALUE: ArgReader:m <- %R10
	@DEBUG_VALUE: ArgReader:this <- %R4
	@DEBUG_VALUE: _S_copy:__n <- %R7
	@DEBUG_VALUE: _M_data:this <- %R8
	@DEBUG_VALUE: match:test <- %R8
	@DEBUG_VALUE: match:this <- %R10
	cmp	r0, #0
.Ltmp1003:
	.loc	5 235 54 discriminator 2 @ ./include/oscpkt.hh:235:54
	streq	r1, [r4, #4]
.Ltmp1004:
.LBB7_22:                               @ %_ZN6oscpkt7Message9ArgReaderC2ERKS0_NS_9ErrorCodeE.exit
	@DEBUG_VALUE: ArgReader:e <- %R1
	@DEBUG_VALUE: getErr:this <- %R10
	@DEBUG_VALUE: ArgReader:m <- %R10
	@DEBUG_VALUE: ArgReader:this <- %R4
	@DEBUG_VALUE: _S_copy:__n <- %R7
	@DEBUG_VALUE: _M_data:this <- %R8
	@DEBUG_VALUE: match:test <- %R8
	@DEBUG_VALUE: match:this <- %R10
	.loc	7 136 28                @ /usr/bin/../lib/gcc/arm-linux-gnueabihf/6.3.0/../../../../include/c++/6.3.0/bits/basic_string.h:136:28
	ldr	r0, [sp]
.Ltmp1005:
	@DEBUG_VALUE: deallocate:__p <- %R0
	@DEBUG_VALUE: deallocate:__p <- %R0
	.loc	7 180 6                 @ /usr/bin/../lib/gcc/arm-linux-gnueabihf/6.3.0/../../../../include/c++/6.3.0/bits/basic_string.h:180:6
	cmp	r0, r5
	beq	.LBB7_24
.Ltmp1006:
@ BB#23:
	@DEBUG_VALUE: deallocate:__p <- %R0
	@DEBUG_VALUE: deallocate:__p <- %R0
	@DEBUG_VALUE: ArgReader:e <- %R1
	@DEBUG_VALUE: getErr:this <- %R10
	@DEBUG_VALUE: ArgReader:m <- %R10
	@DEBUG_VALUE: ArgReader:this <- %R4
	@DEBUG_VALUE: _S_copy:__n <- %R7
	@DEBUG_VALUE: _M_data:this <- %R8
	@DEBUG_VALUE: match:test <- %R8
	@DEBUG_VALUE: match:this <- %R10
	.loc	47 110 9                @ /usr/bin/../lib/gcc/arm-linux-gnueabihf/6.3.0/../../../../include/c++/6.3.0/ext/new_allocator.h:110:9
	bl	_ZdlPv
.Ltmp1007:
.LBB7_24:                               @ %_ZNSt7__cxx1112basic_stringIcSt11char_traitsIcESaIcEED2Ev.exit16
	@DEBUG_VALUE: getErr:this <- %R10
	@DEBUG_VALUE: ArgReader:m <- %R10
	@DEBUG_VALUE: ArgReader:this <- %R4
	@DEBUG_VALUE: _S_copy:__n <- %R7
	@DEBUG_VALUE: _M_data:this <- %R8
	@DEBUG_VALUE: match:test <- %R8
	@DEBUG_VALUE: match:this <- %R10
