	.text
	.syntax unified
	.eabi_attribute	67, "2.09"	@ Tag_conformance
	.cpu	cortex-a8
	.eabi_attribute	6, 10	@ Tag_CPU_arch
	.eabi_attribute	7, 65	@ Tag_CPU_arch_profile
	.eabi_attribute	8, 1	@ Tag_ARM_ISA_use
	.eabi_attribute	9, 2	@ Tag_THUMB_ISA_use
	.fpu	neon
	.eabi_attribute	17, 1	@ Tag_ABI_PCS_GOT_use
	.eabi_attribute	20, 2	@ Tag_ABI_FP_denormal
	.eabi_attribute	23, 1	@ Tag_ABI_FP_number_model
	.eabi_attribute	34, 1	@ Tag_CPU_unaligned_access
	.eabi_attribute	24, 1	@ Tag_ABI_align_needed
	.eabi_attribute	25, 1	@ Tag_ABI_align_preserved
	.eabi_attribute	28, 1	@ Tag_ABI_VFP_args
	.eabi_attribute	38, 1	@ Tag_ABI_FP_16bit_format
	.eabi_attribute	18, 4	@ Tag_ABI_PCS_wchar_t
	.eabi_attribute	26, 2	@ Tag_ABI_enum_size
	.eabi_attribute	14, 0	@ Tag_ABI_PCS_R9_use
	.eabi_attribute	68, 1	@ Tag_Virtualization_use
	.file	"/root/Bela/projects/SOFAlizer-for-Bela/build/render.bc"
	.file	1 "/usr/bin/../lib/gcc/arm-linux-gnueabihf/6.3.0/../../../../include/arm-linux-gnueabihf/c++/6.3.0/bits" "c++config.h"
	.file	2 "/usr/bin/../lib/gcc/arm-linux-gnueabihf/6.3.0/../../../../include/c++/6.3.0/bits" "alloc_traits.h"
	.file	3 "/root/Bela/projects/SOFAlizer-for-Bela" "bela_sofa.h"
	.file	4 "/usr/include/ne10" "NE10_types.h"
	.file	5 "/root/Bela/projects/SOFAlizer-for-Bela" "fft.h"
	.file	6 "/usr/bin/../lib/gcc/arm-linux-gnueabihf/6.3.0/../../../../include/c++/6.3.0/ext" "new_allocator.h"
	.file	7 "/usr/bin/../lib/gcc/arm-linux-gnueabihf/6.3.0/../../../../include/arm-linux-gnueabihf/c++/6.3.0/bits" "c++allocator.h"
	.file	8 "/usr/bin/../lib/gcc/arm-linux-gnueabihf/6.3.0/../../../../include/c++/6.3.0/bits" "allocator.h"
	.file	9 "/usr/bin/../lib/gcc/arm-linux-gnueabihf/6.3.0/../../../../include/c++/6.3.0/ext" "alloc_traits.h"
	.file	10 "/usr/bin/../lib/gcc/arm-linux-gnueabihf/6.3.0/../../../../include/c++/6.3.0/bits" "stl_vector.h"
	.file	11 "/usr/bin/../lib/gcc/arm-linux-gnueabihf/6.3.0/../../../../include/c++/6.3.0" "type_traits"
	.file	12 "/usr/lib/llvm-3.9/bin/../lib/clang/3.9.1/include" "arm_neon.h"
	.file	13 "/root/Bela/projects/SOFAlizer-for-Bela" "render.cpp"
	.file	14 "/root/Bela/projects/SOFAlizer-for-Bela" "position.h"
	.file	15 "/root/Bela/projects/SOFAlizer-for-Bela" "circular_buffer.h"
	.file	16 "/usr/include" "stdint.h"
	.file	17 "./libraries/OscReceiver" "OscReceiver.h"
	.file	18 "/usr/bin/../lib/gcc/arm-linux-gnueabihf/6.3.0/../../../../include/c++/6.3.0/bits" "unique_ptr.h"
	.file	19 "/usr/bin/../lib/gcc/arm-linux-gnueabihf/6.3.0/../../../../include/c++/6.3.0" "tuple"
	.file	20 "/usr/bin/../lib/gcc/arm-linux-gnueabihf/6.3.0/../../../../include/c++/6.3.0/bits" "uses_allocator.h"
	.file	21 "./libraries/OscSender" "OscSender.h"
	.file	22 "/usr/bin/../lib/gcc/arm-linux-gnueabihf/6.3.0/../../../../include/c++/6.3.0/bits" "stl_iterator.h"
	.file	23 "/usr/bin/../lib/gcc/arm-linux-gnueabihf/6.3.0/../../../../include/c++/6.3.0/bits" "stl_iterator_base_types.h"
	.file	24 "./include" "oscpkt.hh"
	.file	25 "/usr/bin/../lib/gcc/arm-linux-gnueabihf/6.3.0/../../../../include/c++/6.3.0/bits" "stringfwd.h"
	.file	26 "/usr/bin/../lib/gcc/arm-linux-gnueabihf/6.3.0/../../../../include/c++/6.3.0/bits" "stl_pair.h"
	.file	27 "/usr/lib/llvm-3.9/bin/../lib/clang/3.9.1/include" "stddef.h"
	.file	28 "/usr/bin/../lib/gcc/arm-linux-gnueabihf/6.3.0/../../../../include/c++/6.3.0" "functional"
	.file	29 "/root/Bela/projects/SOFAlizer-for-Bela" "osc.h"
	.file	30 "./include" "Bela.h"
	.file	31 "/usr/bin/../lib/gcc/arm-linux-gnueabihf/6.3.0/../../../../include/c++/6.3.0/ext" "concurrence.h"
	.file	32 "/root/Bela/projects/SOFAlizer-for-Bela" "mysofa.h"
	.file	33 "/usr/bin/../lib/gcc/arm-linux-gnueabihf/6.3.0/../../../../include/c++/6.3.0/bits" "basic_string.h"
	.file	34 "/usr/bin/../lib/gcc/arm-linux-gnueabihf/6.3.0/../../../../include/c++/6.3.0/bits" "cpp_type_traits.h"
	.file	35 "/usr/bin/../lib/gcc/arm-linux-gnueabihf/6.3.0/../../../../include/c++/6.3.0/bits" "char_traits.h"
	.file	36 "/usr/bin/../lib/gcc/arm-linux-gnueabihf/6.3.0/../../../../include/c++/6.3.0/debug" "debug.h"
	.file	37 "/usr/bin/../lib/gcc/arm-linux-gnueabihf/6.3.0/../../../../include/c++/6.3.0/bits" "exception_ptr.h"
	.file	38 "/usr/include/arm-linux-gnueabihf/bits" "math-finite.h"
	.file	39 "/usr/include/arm-linux-gnueabihf/bits" "mathcalls.h"
	.file	40 "/usr/include/arm-linux-gnueabihf/bits" "mathdef.h"
	.file	41 "/usr/include" "stdlib.h"
	.file	42 "/usr/include/arm-linux-gnueabihf/bits" "stdlib-float.h"
	.file	43 "/usr/include/arm-linux-gnueabihf/bits" "stdlib-bsearch.h"
	.file	44 "/usr/bin/../lib/gcc/arm-linux-gnueabihf/6.3.0/../../../../include/c++/6.3.0" "cstdlib"
	.file	45 "/root/Bela/projects/SOFAlizer-for-Bela/build" "render.cpp"
	.file	46 "/usr/include" "wchar.h"
	.file	47 "/usr/include" "libio.h"
	.file	48 "/usr/include/arm-linux-gnueabihf/bits" "types.h"
	.file	49 "/usr/include" "stdio.h"
	.file	50 "/usr/lib/llvm-3.9/bin/../lib/clang/3.9.1/include" "stdarg.h"
	.file	51 "/usr/include" "locale.h"
	.file	52 "/usr/include" "ctype.h"
	.file	53 "/usr/include" "_G_config.h"
	.file	54 "/usr/include/arm-linux-gnueabihf/bits" "stdio.h"
	.file	55 "/usr/include" "string.h"
	.section	.text._ZNSt6vectorI8HRTFDataSaIS0_EED2Ev,"axG",%progbits,_ZNSt6vectorI8HRTFDataSaIS0_EED2Ev,comdat
	.weak	_ZNSt6vectorI8HRTFDataSaIS0_EED2Ev
	.p2align	2
	.type	_ZNSt6vectorI8HRTFDataSaIS0_EED2Ev,%function
_ZNSt6vectorI8HRTFDataSaIS0_EED2Ev:     @ @_ZNSt6vectorI8HRTFDataSaIS0_EED2Ev
.Lfunc_begin0:
	.loc	10 426 0                @ /usr/bin/../lib/gcc/arm-linux-gnueabihf/6.3.0/../../../../include/c++/6.3.0/bits/stl_vector.h:426:0
	.fnstart
	.cfi_startproc
@ BB#0:
	.save	{r4, r5, r6, r10, r11, lr}
	push	{r4, r5, r6, r10, r11, lr}
.Ltmp0:
	.cfi_def_cfa_offset 24
.Ltmp1:
	.cfi_offset lr, -4
.Ltmp2:
	.cfi_offset r11, -8
.Ltmp3:
	.cfi_offset r10, -12
.Ltmp4:
	.cfi_offset r6, -16
.Ltmp5:
	.cfi_offset r5, -20
.Ltmp6:
	.cfi_offset r4, -24
	.setfp	r11, sp, #16
	add	r11, sp, #16
.Ltmp7:
	.cfi_def_cfa r11, 8
	@DEBUG_VALUE: ~vector:this <- %R0
	mov	r4, r0
.Ltmp8:
	@DEBUG_VALUE: __destroy<HRTFData *>:__last <- %R6
	@DEBUG_VALUE: _Destroy<HRTFData *>:__last <- %R6
	@DEBUG_VALUE: _Destroy<HRTFData *, HRTFData>:__last <- %R6
	@DEBUG_VALUE: _Destroy<HRTFData *, HRTFData>:__first <- %R5
	@DEBUG_VALUE: _Destroy<HRTFData *>:__first <- %R5
	@DEBUG_VALUE: __destroy<HRTFData *>:__first <- %R5
	@DEBUG_VALUE: ~vector:this <- %R4
	.loc	10 426 37 prologue_end  @ /usr/bin/../lib/gcc/arm-linux-gnueabihf/6.3.0/../../../../include/c++/6.3.0/bits/stl_vector.h:426:37
	ldm	r4, {r5, r6}
.Ltmp9:
	.file	56 "/usr/bin/../lib/gcc/arm-linux-gnueabihf/6.3.0/../../../../include/c++/6.3.0/bits" "stl_construct.h"
	.loc	56 102 4 discriminator 1 @ /usr/bin/../lib/gcc/arm-linux-gnueabihf/6.3.0/../../../../include/c++/6.3.0/bits/stl_construct.h:102:4
	cmp	r5, r6
	beq	.LBB0_3
.Ltmp10:
.LBB0_1:                                @ %.lr.ph.i.i.i
                                        @ =>This Inner Loop Header: Depth=1
	@DEBUG_VALUE: _Destroy<HRTFData>:__pointer <- %R5
	.loc	56 93 19                @ /usr/bin/../lib/gcc/arm-linux-gnueabihf/6.3.0/../../../../include/c++/6.3.0/bits/stl_construct.h:93:19
	mov	r0, r5
	bl	_ZN8HRTFDataD1Ev
.Ltmp11:
	.loc	56 102 30 discriminator 2 @ /usr/bin/../lib/gcc/arm-linux-gnueabihf/6.3.0/../../../../include/c++/6.3.0/bits/stl_construct.h:102:30
	add	r5, r5, #164
.Ltmp12:
	@DEBUG_VALUE: __destroy<HRTFData *>:__first <- %R5
	.loc	56 102 4 is_stmt 0 discriminator 1 @ /usr/bin/../lib/gcc/arm-linux-gnueabihf/6.3.0/../../../../include/c++/6.3.0/bits/stl_construct.h:102:4
	cmp	r6, r5
	bne	.LBB0_1
.Ltmp13:
@ BB#2:                                 @ %_ZSt8_DestroyIP8HRTFDataS0_EvT_S2_RSaIT0_E.exit.loopexit
	@DEBUG_VALUE: __destroy<HRTFData *>:__first <- %R5
	.loc	10 160 37 is_stmt 1     @ /usr/bin/../lib/gcc/arm-linux-gnueabihf/6.3.0/../../../../include/c++/6.3.0/bits/stl_vector.h:160:37
	ldr	r5, [r4]
.Ltmp14:
.LBB0_3:                                @ %_ZSt8_DestroyIP8HRTFDataS0_EvT_S2_RSaIT0_E.exit
	@DEBUG_VALUE: _M_deallocate:__p <- %R5
	.loc	10 177 6                @ /usr/bin/../lib/gcc/arm-linux-gnueabihf/6.3.0/../../../../include/c++/6.3.0/bits/stl_vector.h:177:6
	cmp	r5, #0
	beq	.LBB0_5
.Ltmp15:
@ BB#4:
	@DEBUG_VALUE: _M_deallocate:__p <- %R5
	.loc	6 110 9                 @ /usr/bin/../lib/gcc/arm-linux-gnueabihf/6.3.0/../../../../include/c++/6.3.0/ext/new_allocator.h:110:9
	mov	r0, r5
	bl	_ZdlPv
.Ltmp16:
.LBB0_5:                                @ %_ZNSt12_Vector_baseI8HRTFDataSaIS0_EED2Ev.exit
	@DEBUG_VALUE: _M_deallocate:__p <- %R5
	.loc	10 427 33 discriminator 1 @ /usr/bin/../lib/gcc/arm-linux-gnueabihf/6.3.0/../../../../include/c++/6.3.0/bits/stl_vector.h:427:33
	mov	r0, r4
	pop	{r4, r5, r6, r10, r11, pc}
.Ltmp17:
.Lfunc_end0:
	.size	_ZNSt6vectorI8HRTFDataSaIS0_EED2Ev, .Lfunc_end0-_ZNSt6vectorI8HRTFDataSaIS0_EED2Ev
	.cfi_endproc
	.fnend

	.section	.text._ZN8CircBuffD2Ev,"axG",%progbits,_ZN8CircBuffD2Ev,comdat
	.weak	_ZN8CircBuffD2Ev
	.p2align	2
	.type	_ZN8CircBuffD2Ev,%function
_ZN8CircBuffD2Ev:                       @ @_ZN8CircBuffD2Ev
.Lfunc_begin1:
	.loc	15 7 0                  @ /root/Bela/projects/SOFAlizer-for-Bela/circular_buffer.h:7:0
	.fnstart
	.cfi_startproc
@ BB#0:
	.save	{r4, r10, r11, lr}
	push	{r4, r10, r11, lr}
.Ltmp18:
	.cfi_def_cfa_offset 16
.Ltmp19:
	.cfi_offset lr, -4
.Ltmp20:
	.cfi_offset r11, -8
.Ltmp21:
	.cfi_offset r10, -12
.Ltmp22:
	.cfi_offset r4, -16
	.setfp	r11, sp, #8
	add	r11, sp, #8
.Ltmp23:
	.cfi_def_cfa r11, 8
	@DEBUG_VALUE: ~CircBuff:this <- %R0
	mov	r4, r0
.Ltmp24:
	@DEBUG_VALUE: ~CircBuff:this <- %R4
	.loc	10 160 37 prologue_end  @ /usr/bin/../lib/gcc/arm-linux-gnueabihf/6.3.0/../../../../include/c++/6.3.0/bits/stl_vector.h:160:37
	ldr	r0, [r4, #12]
.Ltmp25:
	@DEBUG_VALUE: _M_deallocate:__p <- %R0
	@DEBUG_VALUE: deallocate:__p <- %R0
	@DEBUG_VALUE: deallocate:__p <- %R0
	.loc	10 177 6                @ /usr/bin/../lib/gcc/arm-linux-gnueabihf/6.3.0/../../../../include/c++/6.3.0/bits/stl_vector.h:177:6
	cmp	r0, #0
	beq	.LBB1_2
.Ltmp26:
@ BB#1:
	@DEBUG_VALUE: deallocate:__p <- %R0
	@DEBUG_VALUE: deallocate:__p <- %R0
	@DEBUG_VALUE: _M_deallocate:__p <- %R0
	@DEBUG_VALUE: ~CircBuff:this <- %R4
	.loc	6 110 9                 @ /usr/bin/../lib/gcc/arm-linux-gnueabihf/6.3.0/../../../../include/c++/6.3.0/ext/new_allocator.h:110:9
	bl	_ZdlPv
.Ltmp27:
.LBB1_2:                                @ %_ZNSt6vectorIfSaIfEED2Ev.exit
	@DEBUG_VALUE: ~CircBuff:this <- %R4
	.loc	10 160 37               @ /usr/bin/../lib/gcc/arm-linux-gnueabihf/6.3.0/../../../../include/c++/6.3.0/bits/stl_vector.h:160:37
	ldr	r0, [r4]
.Ltmp28:
	@DEBUG_VALUE: _M_deallocate:__p <- %R0
	@DEBUG_VALUE: deallocate:__p <- %R0
	@DEBUG_VALUE: deallocate:__p <- %R0
	.loc	10 177 6                @ /usr/bin/../lib/gcc/arm-linux-gnueabihf/6.3.0/../../../../include/c++/6.3.0/bits/stl_vector.h:177:6
	cmp	r0, #0
	beq	.LBB1_4
.Ltmp29:
@ BB#3:
	@DEBUG_VALUE: deallocate:__p <- %R0
	@DEBUG_VALUE: deallocate:__p <- %R0
	@DEBUG_VALUE: _M_deallocate:__p <- %R0
	@DEBUG_VALUE: ~CircBuff:this <- %R4
	.loc	6 110 9                 @ /usr/bin/../lib/gcc/arm-linux-gnueabihf/6.3.0/../../../../include/c++/6.3.0/ext/new_allocator.h:110:9
	bl	_ZdlPv
.Ltmp30:
.LBB1_4:                                @ %_ZNSt6vectorIfSaIfEED2Ev.exit1
	@DEBUG_VALUE: ~CircBuff:this <- %R4
	.loc	15 7 7                  @ /root/Bela/projects/SOFAlizer-for-Bela/circular_buffer.h:7:7
	mov	r0, r4
	pop	{r4, r10, r11, pc}
.Ltmp31:
.Lfunc_end1:
	.size	_ZN8CircBuffD2Ev, .Lfunc_end1-_ZN8CircBuffD2Ev
	.cfi_endproc
	.fnend

	.section	.text._ZN3FftD2Ev,"axG",%progbits,_ZN3FftD2Ev,comdat
	.weak	_ZN3FftD2Ev
	.p2align	2
	.type	_ZN3FftD2Ev,%function
_ZN3FftD2Ev:                            @ @_ZN3FftD2Ev
.Lfunc_begin2:
	.loc	5 23 0                  @ /root/Bela/projects/SOFAlizer-for-Bela/fft.h:23:0
	.fnstart
	.cfi_startproc
@ BB#0:
	.save	{r4, r10, r11, lr}
	push	{r4, r10, r11, lr}
.Ltmp35:
	.cfi_def_cfa_offset 16
.Ltmp36:
	.cfi_offset lr, -4
.Ltmp37:
	.cfi_offset r11, -8
.Ltmp38:
	.cfi_offset r10, -12
.Ltmp39:
	.cfi_offset r4, -16
	.setfp	r11, sp, #8
	add	r11, sp, #8
.Ltmp40:
	.cfi_def_cfa r11, 8
	@DEBUG_VALUE: ~Fft:this <- %R0
	mov	r4, r0
.Ltmp41:
	@DEBUG_VALUE: ~Fft:this <- %R4
	.loc	5 23 10 prologue_end    @ /root/Bela/projects/SOFAlizer-for-Bela/fft.h:23:10
.Ltmp32:
	bl	_ZN3Fft7cleanupEv
.Ltmp33:
.Ltmp42:
@ BB#1:
	@DEBUG_VALUE: ~Fft:this <- %R4
	.loc	5 23 21 is_stmt 0 discriminator 1 @ /root/Bela/projects/SOFAlizer-for-Bela/fft.h:23:21
	mov	r0, r4
	pop	{r4, r10, r11, pc}
.Ltmp43:
.LBB2_2:
	@DEBUG_VALUE: ~Fft:this <- %R4
.Ltmp34:
.Ltmp44:
	.loc	5 23 10 discriminator 2 @ /root/Bela/projects/SOFAlizer-for-Bela/fft.h:23:10
	mov	lr, pc
	b	__clang_call_terminate
.Ltmp45:
.Lfunc_end2:
	.size	_ZN3FftD2Ev, .Lfunc_end2-_ZN3FftD2Ev
	.cfi_endproc
	.globl	__gxx_personality_v0
	.personality __gxx_personality_v0
	.handlerdata
	.p2align	2
GCC_except_table2:
.Lexception0:
	.byte	255                     @ @LPStart Encoding = omit
	.byte	0                       @ @TType Encoding = absptr
	.byte	21                      @ @TType base offset
	.byte	3                       @ Call site Encoding = udata4
	.byte	13                      @ Call site table length
	.long	.Ltmp32-.Lfunc_begin2   @ >> Call Site 1 <<
	.long	.Ltmp33-.Ltmp32         @   Call between .Ltmp32 and .Ltmp33
	.long	.Ltmp34-.Lfunc_begin2   @     jumps to .Ltmp34
	.byte	1                       @   On action: 1
	.byte	1                       @ >> Action Record 1 <<
                                        @   Catch TypeInfo 1
	.byte	0                       @   No further actions
                                        @ >> Catch TypeInfos <<
	.long	0                       @ TypeInfo 1
	.p2align	2
	.fnend

	.section	.text._ZN12OSCinterfaceD2Ev,"axG",%progbits,_ZN12OSCinterfaceD2Ev,comdat
	.weak	_ZN12OSCinterfaceD2Ev
	.p2align	2
	.type	_ZN12OSCinterfaceD2Ev,%function
_ZN12OSCinterfaceD2Ev:                  @ @_ZN12OSCinterfaceD2Ev
.Lfunc_begin3:
	.loc	29 7 0 is_stmt 1        @ /root/Bela/projects/SOFAlizer-for-Bela/osc.h:7:0
	.fnstart
	.cfi_startproc
@ BB#0:
	.save	{r4, r10, r11, lr}
	push	{r4, r10, r11, lr}
.Ltmp46:
	.cfi_def_cfa_offset 16
.Ltmp47:
	.cfi_offset lr, -4
.Ltmp48:
	.cfi_offset r11, -8
.Ltmp49:
	.cfi_offset r10, -12
.Ltmp50:
	.cfi_offset r4, -16
	.setfp	r11, sp, #8
	add	r11, sp, #8
.Ltmp51:
	.cfi_def_cfa r11, 8
	@DEBUG_VALUE: ~OSCinterface:this <- %R0
	mov	r4, r0
.Ltmp52:
	@DEBUG_VALUE: ~OSCinterface:this <- %R4
	.loc	29 7 7 prologue_end     @ /root/Bela/projects/SOFAlizer-for-Bela/osc.h:7:7
	add	r0, r4, #48
	bl	_ZN9OscSenderD1Ev
	.loc	29 7 7 is_stmt 0 discriminator 1 @ /root/Bela/projects/SOFAlizer-for-Bela/osc.h:7:7
	mov	r0, r4
	pop	{r4, r10, r11, lr}
.Ltmp53:
	b	_ZN11OscReceiverD1Ev
.Ltmp54:
.Lfunc_end3:
	.size	_ZN12OSCinterfaceD2Ev, .Lfunc_end3-_ZN12OSCinterfaceD2Ev
	.cfi_endproc
	.fnend

	.text
	.globl	setup
	.p2align	2
	.type	setup,%function
setup:                                  @ @setup
.Lfunc_begin4:
	.loc	13 102 0 is_stmt 1      @ /root/Bela/projects/SOFAlizer-for-Bela/render.cpp:102:0
	.fnstart
	.cfi_startproc
@ BB#0:
	.save	{r4, r5, r6, r7, r8, r9, r10, r11, lr}
	push	{r4, r5, r6, r7, r8, r9, r10, r11, lr}
.Ltmp93:
	.cfi_def_cfa_offset 36
.Ltmp94:
	.cfi_offset lr, -4
.Ltmp95:
	.cfi_offset r11, -8
.Ltmp96:
	.cfi_offset r10, -12
.Ltmp97:
	.cfi_offset r9, -16
.Ltmp98:
	.cfi_offset r8, -20
.Ltmp99:
	.cfi_offset r7, -24
.Ltmp100:
	.cfi_offset r6, -28
.Ltmp101:
	.cfi_offset r5, -32
.Ltmp102:
	.cfi_offset r4, -36
	.setfp	r11, sp, #28
	add	r11, sp, #28
.Ltmp103:
	.cfi_def_cfa r11, 8
	.pad	#4
	sub	sp, sp, #4
	.vsave	{d8}
	vpush	{d8}
.Ltmp104:
	.cfi_offset d8, -48
	.pad	#152
	sub	sp, sp, #152
	@DEBUG_VALUE: setup:context <- %R0
	@DEBUG_VALUE: setup:userData <- %R1
.Ltmp105:
	.loc	13 114 45 prologue_end  @ /root/Bela/projects/SOFAlizer-for-Bela/render.cpp:114:45
	movw	r5, :lower16:.L_MergedGlobals.4
	mov	r8, r0
.Ltmp106:
	@DEBUG_VALUE: setup:normalization_status <- 2
	@DEBUG_VALUE: setup:context <- %R8
	movt	r5, :upper16:.L_MergedGlobals.4
	sub	r0, r11, #76
.Ltmp107:
	@DEBUG_VALUE: basic_string:__s <- %R6
	@DEBUG_VALUE: length:__s <- %R6
	@DEBUG_VALUE: _M_construct<const char *>:__beg <- %R6
	@DEBUG_VALUE: _M_construct_aux<const char *>:__beg <- %R6
	@DEBUG_VALUE: _M_construct<const char *>:__beg <- %R6
	@DEBUG_VALUE: _S_copy_chars:__k1 <- %R6
	@DEBUG_VALUE: _S_copy:__s <- %R6
	@DEBUG_VALUE: assign:__c2 <- %R6
	@DEBUG_VALUE: _M_local_data:this <- %R0
	.loc	13 114 70 is_stmt 0     @ /root/Bela/projects/SOFAlizer-for-Bela/render.cpp:114:70
	ldr	r6, [r5, #72]
.Ltmp108:
	.loc	33 142 51 is_stmt 1     @ /usr/bin/../lib/gcc/arm-linux-gnueabihf/6.3.0/../../../../include/c++/6.3.0/bits/basic_string.h:142:51
	add	r4, r0, #8
.Ltmp109:
	.loc	13 114 45               @ /root/Bela/projects/SOFAlizer-for-Bela/render.cpp:114:45
	ldr	r9, [r5, #68]
.Ltmp110:
	.loc	33 110 25               @ /usr/bin/../lib/gcc/arm-linux-gnueabihf/6.3.0/../../../../include/c++/6.3.0/bits/basic_string.h:110:25
	str	r4, [r11, #-76]
.Ltmp111:
	.loc	33 456 27               @ /usr/bin/../lib/gcc/arm-linux-gnueabihf/6.3.0/../../../../include/c++/6.3.0/bits/basic_string.h:456:27
	cmp	r6, #0
	beq	.LBB4_23
.Ltmp112:
@ BB#1:                                 @ %.thread.i
	@DEBUG_VALUE: _M_local_data:this <- %R0
	@DEBUG_VALUE: setup:context <- %R8
	@DEBUG_VALUE: setup:userData <- %R1
	.loc	35 267 16               @ /usr/bin/../lib/gcc/arm-linux-gnueabihf/6.3.0/../../../../include/c++/6.3.0/bits/char_traits.h:267:16
	mov	r0, r6
.Ltmp113:
	bl	strlen
.Ltmp114:
	mov	r7, r0
.Ltmp115:
	@DEBUG_VALUE: _M_construct<const char *>:__dnew <- %R7
	@DEBUG_VALUE: _S_copy:__n <- %R7
	.file	57 "/usr/bin/../lib/gcc/arm-linux-gnueabihf/6.3.0/../../../../include/c++/6.3.0/bits" "basic_string.tcc"
	.loc	57 217 6                @ /usr/bin/../lib/gcc/arm-linux-gnueabihf/6.3.0/../../../../include/c++/6.3.0/bits/basic_string.tcc:217:6
	cmp	r7, #15
	.loc	57 215 12               @ /usr/bin/../lib/gcc/arm-linux-gnueabihf/6.3.0/../../../../include/c++/6.3.0/bits/basic_string.tcc:215:12
	str	r7, [r11, #-52]
	bls	.LBB4_4
.Ltmp116:
@ BB#2:                                 @ %.noexc8.i
	@DEBUG_VALUE: _S_copy:__n <- %R7
	@DEBUG_VALUE: _M_construct<const char *>:__dnew <- %R7
	@DEBUG_VALUE: setup:context <- %R8
	.loc	57 219 14               @ /usr/bin/../lib/gcc/arm-linux-gnueabihf/6.3.0/../../../../include/c++/6.3.0/bits/basic_string.tcc:219:14
.Ltmp55:
	sub	r0, r11, #76
.Ltmp117:
	@DEBUG_VALUE: _M_construct<const char *>:this <- %R0
	sub	r1, r11, #52
.Ltmp118:
	@DEBUG_VALUE: _M_construct<const char *>:__dnew <- [%R1+0]
	mov	r2, #0
	bl	_ZNSt7__cxx1112basic_stringIcSt11char_traitsIcESaIcEE9_M_createERjj
.Ltmp119:
.Ltmp56:
.Ltmp120:
@ BB#3:                                 @ %.noexc30
	@DEBUG_VALUE: _S_copy:__n <- %R7
	@DEBUG_VALUE: setup:context <- %R8
	@DEBUG_VALUE: _M_data:__p <- %R0
	.loc	57 220 18               @ /usr/bin/../lib/gcc/arm-linux-gnueabihf/6.3.0/../../../../include/c++/6.3.0/bits/basic_string.tcc:220:18
	ldr	r1, [r11, #-52]
.Ltmp121:
	@DEBUG_VALUE: _M_capacity:__capacity <- %R1
	@DEBUG_VALUE: _M_construct<const char *>:__dnew <- %R1
	.loc	33 128 26               @ /usr/bin/../lib/gcc/arm-linux-gnueabihf/6.3.0/../../../../include/c++/6.3.0/bits/basic_string.h:128:26
	str	r0, [r11, #-76]
.Ltmp122:
	.loc	33 160 31               @ /usr/bin/../lib/gcc/arm-linux-gnueabihf/6.3.0/../../../../include/c++/6.3.0/bits/basic_string.h:160:31
	str	r1, [r11, #-68]
	b	.LBB4_5
.Ltmp123:
.LBB4_4:                                @ %._crit_edge.i.i.i.i
	@DEBUG_VALUE: _S_copy:__n <- %R7
	@DEBUG_VALUE: _M_construct<const char *>:__dnew <- %R7
	@DEBUG_VALUE: setup:context <- %R8
	.loc	33 136 28               @ /usr/bin/../lib/gcc/arm-linux-gnueabihf/6.3.0/../../../../include/c++/6.3.0/bits/basic_string.h:136:28
	mov	r0, r4
.Ltmp124:
.LBB4_5:
	@DEBUG_VALUE: _S_copy:__n <- %R7
	@DEBUG_VALUE: setup:context <- %R8
	.loc	33 297 6                @ /usr/bin/../lib/gcc/arm-linux-gnueabihf/6.3.0/../../../../include/c++/6.3.0/bits/basic_string.h:297:6
	cmp	r7, #0
	beq	.LBB4_9
.Ltmp125:
@ BB#6:
	@DEBUG_VALUE: _S_copy:__n <- %R7
	@DEBUG_VALUE: setup:context <- %R8
	cmp	r7, #1
	bne	.LBB4_8
.Ltmp126:
@ BB#7:
	@DEBUG_VALUE: _S_copy:__n <- %R7
	@DEBUG_VALUE: setup:context <- %R8
	.loc	35 243 16               @ /usr/bin/../lib/gcc/arm-linux-gnueabihf/6.3.0/../../../../include/c++/6.3.0/bits/char_traits.h:243:16
	ldrb	r1, [r6]
.Ltmp127:
	@DEBUG_VALUE: _S_copy_chars:__p <- %R0
	.loc	35 243 14 is_stmt 0     @ /usr/bin/../lib/gcc/arm-linux-gnueabihf/6.3.0/../../../../include/c++/6.3.0/bits/char_traits.h:243:14
	strb	r1, [r0]
	b	.LBB4_9
.Ltmp128:
.LBB4_8:
	@DEBUG_VALUE: _S_copy:__n <- %R7
	@DEBUG_VALUE: setup:context <- %R8
	.loc	35 290 33 is_stmt 1     @ /usr/bin/../lib/gcc/arm-linux-gnueabihf/6.3.0/../../../../include/c++/6.3.0/bits/char_traits.h:290:33
	mov	r1, r6
	mov	r2, r7
	bl	memcpy
.Ltmp129:
.LBB4_9:
	@DEBUG_VALUE: _S_copy:__n <- %R7
	@DEBUG_VALUE: setup:context <- %R8
	.loc	57 232 16               @ /usr/bin/../lib/gcc/arm-linux-gnueabihf/6.3.0/../../../../include/c++/6.3.0/bits/basic_string.tcc:232:16
	ldr	r0, [r11, #-52]
.Ltmp130:
	@DEBUG_VALUE: _M_set_length:__n <- %R0
	@DEBUG_VALUE: _M_length:__length <- %R0
	@DEBUG_VALUE: _M_construct<const char *>:__dnew <- %R0
	.loc	35 243 14               @ /usr/bin/../lib/gcc/arm-linux-gnueabihf/6.3.0/../../../../include/c++/6.3.0/bits/char_traits.h:243:14
	mov	r2, #0
.Ltmp131:
	.loc	33 132 26               @ /usr/bin/../lib/gcc/arm-linux-gnueabihf/6.3.0/../../../../include/c++/6.3.0/bits/basic_string.h:132:26
	str	r0, [r11, #-72]
.Ltmp132:
	.loc	33 136 28               @ /usr/bin/../lib/gcc/arm-linux-gnueabihf/6.3.0/../../../../include/c++/6.3.0/bits/basic_string.h:136:28
	ldr	r1, [r11, #-76]
.Ltmp133:
	.loc	35 243 14               @ /usr/bin/../lib/gcc/arm-linux-gnueabihf/6.3.0/../../../../include/c++/6.3.0/bits/char_traits.h:243:14
	strb	r2, [r1, r0]
.Ltmp134:
	.loc	13 114 26 discriminator 1 @ /root/Bela/projects/SOFAlizer-for-Bela/render.cpp:114:26
.Ltmp57:
	add	r0, r5, #48
.Ltmp135:
	sub	r2, r11, #76
.Ltmp136:
	@DEBUG_VALUE: _M_data:this <- %R2
	@DEBUG_VALUE: _M_length:this <- %R2
	mov	r1, r9
	bl	_ZN9OscSender5setupEiNSt7__cxx1112basic_stringIcSt11char_traitsIcESaIcEEE
.Ltmp137:
.Ltmp58:
.Ltmp138:
@ BB#10:
	@DEBUG_VALUE: _S_copy:__n <- %R7
	@DEBUG_VALUE: setup:context <- %R8
	.loc	33 136 28               @ /usr/bin/../lib/gcc/arm-linux-gnueabihf/6.3.0/../../../../include/c++/6.3.0/bits/basic_string.h:136:28
	ldr	r0, [r11, #-76]
.Ltmp139:
	@DEBUG_VALUE: deallocate:__p <- %R0
	@DEBUG_VALUE: deallocate:__p <- %R0
	.loc	33 180 6                @ /usr/bin/../lib/gcc/arm-linux-gnueabihf/6.3.0/../../../../include/c++/6.3.0/bits/basic_string.h:180:6
	cmp	r0, r4
	beq	.LBB4_12
.Ltmp140:
@ BB#11:
	@DEBUG_VALUE: deallocate:__p <- %R0
	@DEBUG_VALUE: deallocate:__p <- %R0
	@DEBUG_VALUE: _S_copy:__n <- %R7
	@DEBUG_VALUE: setup:context <- %R8
	.loc	6 110 9                 @ /usr/bin/../lib/gcc/arm-linux-gnueabihf/6.3.0/../../../../include/c++/6.3.0/ext/new_allocator.h:110:9
	bl	_ZdlPv
.Ltmp141:
.LBB4_12:                               @ %_ZNSt7__cxx1112basic_stringIcSt11char_traitsIcESaIcEED2Ev.exit31
	@DEBUG_VALUE: _S_copy:__n <- %R7
	@DEBUG_VALUE: setup:context <- %R8
	.loc	35 290 33               @ /usr/bin/../lib/gcc/arm-linux-gnueabihf/6.3.0/../../../../include/c++/6.3.0/bits/char_traits.h:290:33
	movw	r0, :lower16:.L.str
	add	r1, sp, #88
.Ltmp142:
	@DEBUG_VALUE: _M_data:this <- %R1
	@DEBUG_VALUE: _M_length:this <- %R1
	@DEBUG_VALUE: _M_set_length:__n <- 9
	@DEBUG_VALUE: _M_set_length:this <- %R1
	@DEBUG_VALUE: _M_data:this <- %R1
	@DEBUG_VALUE: _M_construct<const char *>:__dnew <- 9
	@DEBUG_VALUE: _M_construct<const char *>:this <- %R1
	@DEBUG_VALUE: _M_construct_aux<const char *>:this <- %R1
	@DEBUG_VALUE: _M_construct<const char *>:this <- %R1
	@DEBUG_VALUE: _S_copy_chars:__p <- %R4
	@DEBUG_VALUE: _S_copy:__d <- %R4
	@DEBUG_VALUE: _M_local_data:this <- %R1
	movt	r0, :upper16:.L.str
.Ltmp143:
	.loc	33 142 51               @ /usr/bin/../lib/gcc/arm-linux-gnueabihf/6.3.0/../../../../include/c++/6.3.0/bits/basic_string.h:142:51
	add	r4, r1, #8
.Ltmp144:
	.loc	35 290 33               @ /usr/bin/../lib/gcc/arm-linux-gnueabihf/6.3.0/../../../../include/c++/6.3.0/bits/char_traits.h:290:33
	vldr	d16, [r0]
	mov	r0, #46
.Ltmp145:
	.loc	33 110 25               @ /usr/bin/../lib/gcc/arm-linux-gnueabihf/6.3.0/../../../../include/c++/6.3.0/bits/basic_string.h:110:25
	str	r4, [sp, #88]
.Ltmp146:
	@DEBUG_VALUE: _S_copy:__n <- 9
	.loc	35 290 33               @ /usr/bin/../lib/gcc/arm-linux-gnueabihf/6.3.0/../../../../include/c++/6.3.0/bits/char_traits.h:290:33
	strb	r0, [sp, #104]
	mov	r0, #9
.Ltmp147:
	@DEBUG_VALUE: _M_length:__length <- 9
	vstr	d16, [sp, #96]
.Ltmp148:
	.loc	33 132 26               @ /usr/bin/../lib/gcc/arm-linux-gnueabihf/6.3.0/../../../../include/c++/6.3.0/bits/basic_string.h:132:26
	str	r0, [sp, #92]
.Ltmp149:
	.loc	35 243 14               @ /usr/bin/../lib/gcc/arm-linux-gnueabihf/6.3.0/../../../../include/c++/6.3.0/bits/char_traits.h:243:14
	mov	r0, #0
	strb	r0, [sp, #105]
.Ltmp150:
	.loc	13 115 16 discriminator 1 @ /root/Bela/projects/SOFAlizer-for-Bela/render.cpp:115:16
.Ltmp60:
	movw	r0, :lower16:.L_MergedGlobals.4
	movt	r0, :upper16:.L_MergedGlobals.4
	bl	_ZN12OSCinterface11send_statusENSt7__cxx1112basic_stringIcSt11char_traitsIcESaIcEEE
.Ltmp151:
.Ltmp61:
.Ltmp152:
	@DEBUG_VALUE: _S_copy:__s <- %R0
@ BB#13:
	@DEBUG_VALUE: _S_copy:__s <- %R0
	@DEBUG_VALUE: _S_copy:__n <- %R7
	@DEBUG_VALUE: setup:context <- %R8
	.loc	33 136 28               @ /usr/bin/../lib/gcc/arm-linux-gnueabihf/6.3.0/../../../../include/c++/6.3.0/bits/basic_string.h:136:28
	ldr	r0, [sp, #88]
.Ltmp153:
	@DEBUG_VALUE: deallocate:__p <- %R0
	@DEBUG_VALUE: deallocate:__p <- %R0
	.loc	33 180 6                @ /usr/bin/../lib/gcc/arm-linux-gnueabihf/6.3.0/../../../../include/c++/6.3.0/bits/basic_string.h:180:6
	cmp	r0, r4
	beq	.LBB4_15
.Ltmp154:
@ BB#14:
	@DEBUG_VALUE: deallocate:__p <- %R0
	@DEBUG_VALUE: deallocate:__p <- %R0
	@DEBUG_VALUE: _S_copy:__n <- %R7
	@DEBUG_VALUE: setup:context <- %R8
	.loc	6 110 9                 @ /usr/bin/../lib/gcc/arm-linux-gnueabihf/6.3.0/../../../../include/c++/6.3.0/ext/new_allocator.h:110:9
	bl	_ZdlPv
.Ltmp155:
.LBB4_15:                               @ %_ZNSt7__cxx1112basic_stringIcSt11char_traitsIcESaIcEED2Ev.exit39
	@DEBUG_VALUE: _S_copy:__n <- %R7
	@DEBUG_VALUE: setup:context <- %R8
	.loc	13 116 14               @ /root/Bela/projects/SOFAlizer-for-Bela/render.cpp:116:14
	movw	r6, :lower16:.L_MergedGlobals
	mov	r0, #256
	movt	r6, :upper16:.L_MergedGlobals
	mov	r5, r6
	strh	r0, [r5], #40
	.loc	13 120 2                @ /root/Bela/projects/SOFAlizer-for-Bela/render.cpp:120:2
	movw	r0, :lower16:.L.str.10
	.loc	13 120 51 is_stmt 0     @ /root/Bela/projects/SOFAlizer-for-Bela/render.cpp:120:51
	vldr	s0, [r8, #32]
	.loc	13 120 2                @ /root/Bela/projects/SOFAlizer-for-Bela/render.cpp:120:2
	movt	r0, :upper16:.L.str.10
	.loc	13 120 42               @ /root/Bela/projects/SOFAlizer-for-Bela/render.cpp:120:42
	vcvt.f64.f32	d16, s0
	.loc	13 120 2                @ /root/Bela/projects/SOFAlizer-for-Bela/render.cpp:120:2
	vmov	r2, r3, d16
	bl	rt_printf
.Ltmp156:
	.loc	13 123 7 is_stmt 1      @ /root/Bela/projects/SOFAlizer-for-Bela/render.cpp:123:7
	movw	r1, :lower16:.L.str.11
	.loc	13 123 60 is_stmt 0     @ /root/Bela/projects/SOFAlizer-for-Bela/render.cpp:123:60
	vldr	s0, [r8, #32]
	.loc	13 123 7                @ /root/Bela/projects/SOFAlizer-for-Bela/render.cpp:123:7
	movt	r1, :upper16:.L.str.11
	mov	r0, r5
	mov	r2, #4
	bl	_Z19read_hrtfs_from_dirRSt6vectorI8HRTFDataSaIS0_EEPKcfj
.Ltmp157:
	.loc	13 123 6                @ /root/Bela/projects/SOFAlizer-for-Bela/render.cpp:123:6
	cmp	r0, #0
	bne	.LBB4_17
.Ltmp158:
@ BB#16:
	@DEBUG_VALUE: _S_copy:__n <- %R7
	@DEBUG_VALUE: setup:context <- %R8
	.loc	13 124 3 is_stmt 1      @ /root/Bela/projects/SOFAlizer-for-Bela/render.cpp:124:3
	movw	r0, :lower16:.L.str.12
	movw	r1, :lower16:.L.str.11
	movt	r0, :upper16:.L.str.12
	movt	r1, :upper16:.L.str.11
	bl	rt_printf
.Ltmp159:
.LBB4_17:                               @ %.noexc8.i46
	@DEBUG_VALUE: _S_copy:__n <- %R7
	@DEBUG_VALUE: setup:context <- %R8
	add	r0, sp, #64
.Ltmp160:
	@DEBUG_VALUE: _M_construct<const char *>:this <- %R0
	@DEBUG_VALUE: _M_construct_aux<const char *>:this <- %R0
	@DEBUG_VALUE: _M_construct<const char *>:this <- %R0
	@DEBUG_VALUE: _M_local_data:this <- %R0
	.loc	57 215 12               @ /usr/bin/../lib/gcc/arm-linux-gnueabihf/6.3.0/../../../../include/c++/6.3.0/bits/basic_string.tcc:215:12
	mov	r1, #16
.Ltmp161:
	@DEBUG_VALUE: _M_construct<const char *>:__dnew <- 16
	.loc	33 142 51               @ /usr/bin/../lib/gcc/arm-linux-gnueabihf/6.3.0/../../../../include/c++/6.3.0/bits/basic_string.h:142:51
	add	r4, r0, #8
.Ltmp162:
	.loc	33 110 25               @ /usr/bin/../lib/gcc/arm-linux-gnueabihf/6.3.0/../../../../include/c++/6.3.0/bits/basic_string.h:110:25
	str	r4, [sp, #64]
.Ltmp163:
	.loc	57 215 12               @ /usr/bin/../lib/gcc/arm-linux-gnueabihf/6.3.0/../../../../include/c++/6.3.0/bits/basic_string.tcc:215:12
	str	r1, [r11, #-48]
.Ltmp164:
	.loc	57 219 14               @ /usr/bin/../lib/gcc/arm-linux-gnueabihf/6.3.0/../../../../include/c++/6.3.0/bits/basic_string.tcc:219:14
.Ltmp63:
	sub	r1, r11, #48
.Ltmp165:
	@DEBUG_VALUE: _M_construct<const char *>:__dnew <- [%R1+0]
	mov	r2, #0
	mov	r5, #0
	bl	_ZNSt7__cxx1112basic_stringIcSt11char_traitsIcESaIcEE9_M_createERjj
.Ltmp166:
.Ltmp64:
.Ltmp167:
@ BB#18:                                @ %.noexc48
	@DEBUG_VALUE: _S_copy:__n <- %R7
	@DEBUG_VALUE: setup:context <- %R8
	.loc	35 290 33               @ /usr/bin/../lib/gcc/arm-linux-gnueabihf/6.3.0/../../../../include/c++/6.3.0/bits/char_traits.h:290:33
	movw	r2, :lower16:.L.str.13
.Ltmp168:
	.loc	57 220 18               @ /usr/bin/../lib/gcc/arm-linux-gnueabihf/6.3.0/../../../../include/c++/6.3.0/bits/basic_string.tcc:220:18
	ldr	r1, [r11, #-48]
.Ltmp169:
	@DEBUG_VALUE: _M_capacity:__capacity <- %R1
	@DEBUG_VALUE: _M_set_length:__n <- %R1
	@DEBUG_VALUE: _M_length:__length <- %R1
	@DEBUG_VALUE: _M_construct<const char *>:__dnew <- %R1
	.loc	35 290 33               @ /usr/bin/../lib/gcc/arm-linux-gnueabihf/6.3.0/../../../../include/c++/6.3.0/bits/char_traits.h:290:33
	movt	r2, :upper16:.L.str.13
	vld1.64	{d16, d17}, [r2]
.Ltmp170:
	.loc	33 128 26               @ /usr/bin/../lib/gcc/arm-linux-gnueabihf/6.3.0/../../../../include/c++/6.3.0/bits/basic_string.h:128:26
	str	r0, [sp, #64]
.Ltmp171:
	@DEBUG_VALUE: _M_data:__p <- %R0
	.loc	33 160 31               @ /usr/bin/../lib/gcc/arm-linux-gnueabihf/6.3.0/../../../../include/c++/6.3.0/bits/basic_string.h:160:31
	str	r1, [sp, #72]
.Ltmp172:
	@DEBUG_VALUE: _S_copy:__d <- %R0
	@DEBUG_VALUE: _S_copy:__n <- 16
	.loc	35 290 33               @ /usr/bin/../lib/gcc/arm-linux-gnueabihf/6.3.0/../../../../include/c++/6.3.0/bits/char_traits.h:290:33
	vst1.8	{d16, d17}, [r0]
.Ltmp173:
	.loc	33 132 26               @ /usr/bin/../lib/gcc/arm-linux-gnueabihf/6.3.0/../../../../include/c++/6.3.0/bits/basic_string.h:132:26
	str	r1, [sp, #68]
.Ltmp174:
	.loc	33 136 28               @ /usr/bin/../lib/gcc/arm-linux-gnueabihf/6.3.0/../../../../include/c++/6.3.0/bits/basic_string.h:136:28
	ldr	r0, [sp, #64]
.Ltmp175:
	.loc	35 243 14               @ /usr/bin/../lib/gcc/arm-linux-gnueabihf/6.3.0/../../../../include/c++/6.3.0/bits/char_traits.h:243:14
	strb	r5, [r0, r1]
.Ltmp176:
	.loc	13 129 16 discriminator 1 @ /root/Bela/projects/SOFAlizer-for-Bela/render.cpp:129:16
.Ltmp66:
	movw	r0, :lower16:.L_MergedGlobals.4
	add	r1, sp, #64
.Ltmp177:
	@DEBUG_VALUE: _M_data:this <- %R1
	@DEBUG_VALUE: _M_length:this <- %R1
	@DEBUG_VALUE: _M_set_length:this <- %R1
	@DEBUG_VALUE: _M_data:this <- %R1
	@DEBUG_VALUE: _M_capacity:this <- %R1
	@DEBUG_VALUE: _M_data:this <- %R1
	movt	r0, :upper16:.L_MergedGlobals.4
	bl	_ZN12OSCinterface11send_statusENSt7__cxx1112basic_stringIcSt11char_traitsIcESaIcEEE
.Ltmp178:
.Ltmp67:
.Ltmp179:
	@DEBUG_VALUE: _S_copy:__s <- %R2
@ BB#19:
	@DEBUG_VALUE: _S_copy:__s <- %R2
	@DEBUG_VALUE: _S_copy:__n <- %R7
	@DEBUG_VALUE: setup:context <- %R8
	.loc	33 136 28               @ /usr/bin/../lib/gcc/arm-linux-gnueabihf/6.3.0/../../../../include/c++/6.3.0/bits/basic_string.h:136:28
	ldr	r0, [sp, #64]
.Ltmp180:
	@DEBUG_VALUE: deallocate:__p <- %R0
	@DEBUG_VALUE: deallocate:__p <- %R0
	.loc	33 180 6                @ /usr/bin/../lib/gcc/arm-linux-gnueabihf/6.3.0/../../../../include/c++/6.3.0/bits/basic_string.h:180:6
	cmp	r0, r4
	beq	.LBB4_21
.Ltmp181:
@ BB#20:
	@DEBUG_VALUE: deallocate:__p <- %R0
	@DEBUG_VALUE: deallocate:__p <- %R0
	@DEBUG_VALUE: _S_copy:__s <- %R2
	@DEBUG_VALUE: _S_copy:__n <- %R7
	@DEBUG_VALUE: setup:context <- %R8
	.loc	6 110 9                 @ /usr/bin/../lib/gcc/arm-linux-gnueabihf/6.3.0/../../../../include/c++/6.3.0/ext/new_allocator.h:110:9
	bl	_ZdlPv
.Ltmp182:
.LBB4_21:                               @ %_ZNSt7__cxx1112basic_stringIcSt11char_traitsIcESaIcEED2Ev.exit50.preheader
	@DEBUG_VALUE: _S_copy:__n <- %R7
	@DEBUG_VALUE: setup:context <- %R8
	.loc	10 656 66               @ /usr/bin/../lib/gcc/arm-linux-gnueabihf/6.3.0/../../../../include/c++/6.3.0/bits/stl_vector.h:656:66
	ldrd	r0, r1, [r6, #40]
.Ltmp183:
	.loc	13 133 2 discriminator 1 @ /root/Bela/projects/SOFAlizer-for-Bela/render.cpp:133:2
	cmp	r1, r0
	beq	.LBB4_43
.Ltmp184:
@ BB#22:                                @ %.lr.ph.preheader
	@DEBUG_VALUE: _S_copy:__n <- %R7
	@DEBUG_VALUE: setup:context <- %R8
	.loc	13 142 5 discriminator 1 @ /root/Bela/projects/SOFAlizer-for-Bela/render.cpp:142:5
	movw	r9, :lower16:.L.str.15
.Ltmp185:
	.loc	13 139 5                @ /root/Bela/projects/SOFAlizer-for-Bela/render.cpp:139:5
	movw	r10, :lower16:.L.str.14
.Ltmp186:
	.loc	10 656 50               @ /usr/bin/../lib/gcc/arm-linux-gnueabihf/6.3.0/../../../../include/c++/6.3.0/bits/stl_vector.h:656:50
	movw	r4, #39961
.Ltmp187:
	.loc	13 160 4 discriminator 2 @ /root/Bela/projects/SOFAlizer-for-Bela/render.cpp:160:4
	movw	r7, :lower16:.L.str.17
.Ltmp188:
	.loc	13 137 39 discriminator 1 @ /root/Bela/projects/SOFAlizer-for-Bela/render.cpp:137:39
	vldr	s16, .LCPI4_1
	mov	r5, #0
.Ltmp189:
	.loc	13 142 5 discriminator 1 @ /root/Bela/projects/SOFAlizer-for-Bela/render.cpp:142:5
	movt	r9, :upper16:.L.str.15
.Ltmp190:
	.loc	13 139 5                @ /root/Bela/projects/SOFAlizer-for-Bela/render.cpp:139:5
	movt	r10, :upper16:.L.str.14
.Ltmp191:
	.loc	10 656 50               @ /usr/bin/../lib/gcc/arm-linux-gnueabihf/6.3.0/../../../../include/c++/6.3.0/bits/stl_vector.h:656:50
	movt	r4, #49551
.Ltmp192:
	.loc	13 160 4 discriminator 2 @ /root/Bela/projects/SOFAlizer-for-Bela/render.cpp:160:4
	movt	r7, :upper16:.L.str.17
	mov	r8, #0
.Ltmp193:
	b	.LBB4_32
.Ltmp194:
.LBB4_23:                               @ %.noexc.i
	@DEBUG_VALUE: _M_local_data:this <- %R0
	@DEBUG_VALUE: setup:context <- %R8
	@DEBUG_VALUE: setup:userData <- %R1
	.loc	57 212 4                @ /usr/bin/../lib/gcc/arm-linux-gnueabihf/6.3.0/../../../../include/c++/6.3.0/bits/basic_string.tcc:212:4
.Ltmp90:
	movw	r0, :lower16:.L.str.21
.Ltmp195:
	movt	r0, :upper16:.L.str.21
	mov	lr, pc
	b	_ZSt19__throw_logic_errorPKc
.Ltmp196:
.Ltmp91:
.Ltmp197:
@ BB#24:                                @ %.noexc
	@DEBUG_VALUE: setup:context <- %R8
.LBB4_25:
	@DEBUG_VALUE: setup:context <- %R8
.Ltmp92:
	mov	lr, pc
	b	_Unwind_Resume
.Ltmp198:
.LBB4_26:
	@DEBUG_VALUE: _S_copy:__s <- %R2
	@DEBUG_VALUE: _S_copy:__n <- %R7
	@DEBUG_VALUE: setup:context <- %R8
.Ltmp68:
	mov	r5, r0
.Ltmp199:
	.loc	33 136 28               @ /usr/bin/../lib/gcc/arm-linux-gnueabihf/6.3.0/../../../../include/c++/6.3.0/bits/basic_string.h:136:28
	ldr	r0, [sp, #64]
	b	.LBB4_30
.Ltmp200:
.LBB4_27:
	@DEBUG_VALUE: _S_copy:__n <- %R7
	@DEBUG_VALUE: setup:context <- %R8
.Ltmp65:
	mov	lr, pc
	b	_Unwind_Resume
.Ltmp201:
.LBB4_28:
	@DEBUG_VALUE: _S_copy:__s <- %R0
	@DEBUG_VALUE: _S_copy:__n <- %R7
	@DEBUG_VALUE: setup:context <- %R8
.Ltmp62:
	mov	r5, r0
.Ltmp202:
	.loc	33 136 28 is_stmt 0     @ /usr/bin/../lib/gcc/arm-linux-gnueabihf/6.3.0/../../../../include/c++/6.3.0/bits/basic_string.h:136:28
	ldr	r0, [sp, #88]
.Ltmp203:
	b	.LBB4_30
.Ltmp204:
.LBB4_29:
	@DEBUG_VALUE: _S_copy:__n <- %R7
	@DEBUG_VALUE: setup:context <- %R8
.Ltmp59:
	mov	r5, r0
.Ltmp205:
	.loc	33 136 28               @ /usr/bin/../lib/gcc/arm-linux-gnueabihf/6.3.0/../../../../include/c++/6.3.0/bits/basic_string.h:136:28
	ldr	r0, [r11, #-76]
.Ltmp206:
.LBB4_30:
	@DEBUG_VALUE: _S_copy:__n <- %R7
	@DEBUG_VALUE: setup:context <- %R8
	@DEBUG_VALUE: deallocate:__p <- %R0
	@DEBUG_VALUE: deallocate:__p <- %R0
	.loc	33 180 6 is_stmt 1      @ /usr/bin/../lib/gcc/arm-linux-gnueabihf/6.3.0/../../../../include/c++/6.3.0/bits/basic_string.h:180:6
	cmp	r0, r4
	bne	.LBB4_73
	b	.LBB4_74
.Ltmp207:
.LBB4_31:                               @   in Loop: Header=BB4_32 Depth=1
.Ltmp71:
.Ltmp208:
	.loc	13 163 4 discriminator 1 @ /root/Bela/projects/SOFAlizer-for-Bela/render.cpp:163:4
	bl	__cxa_begin_catch
.Ltmp209:
	.loc	13 164 16               @ /root/Bela/projects/SOFAlizer-for-Bela/render.cpp:164:16
	bl	__cxa_end_catch
	b	.LBB4_42
.Ltmp210:
.LBB4_32:                               @ %.lr.ph
                                        @ =>This Inner Loop Header: Depth=1
	.loc	13 134 19               @ /root/Bela/projects/SOFAlizer-for-Bela/render.cpp:134:19
	add	r2, r0, r5
	ldr	r1, [r2, #116]
.Ltmp211:
	.loc	13 134 7 is_stmt 0      @ /root/Bela/projects/SOFAlizer-for-Bela/render.cpp:134:7
	cmp	r1, #0
	beq	.LBB4_34
@ BB#33:                                @   in Loop: Header=BB4_32 Depth=1
.Ltmp212:
	.loc	13 160 4 is_stmt 1 discriminator 2 @ /root/Bela/projects/SOFAlizer-for-Bela/render.cpp:160:4
	mov	r0, r7
	bl	rt_printf
.Ltmp213:
	.loc	10 781 32               @ /usr/bin/../lib/gcc/arm-linux-gnueabihf/6.3.0/../../../../include/c++/6.3.0/bits/stl_vector.h:781:32
	ldr	r0, [r6, #40]
.Ltmp214:
	.loc	13 162 17               @ /root/Bela/projects/SOFAlizer-for-Bela/render.cpp:162:17
	add	r0, r0, r5
.Ltmp69:
	bl	_ZN8HRTFData11unload_sofaEv
.Ltmp70:
	b	.LBB4_42
.Ltmp215:
.LBB4_34:                               @   in Loop: Header=BB4_32 Depth=1
	.loc	13 137 39 discriminator 1 @ /root/Bela/projects/SOFAlizer-for-Bela/render.cpp:137:39
	vmov.f32	s0, s16
	mov	r0, r2
	bl	_ZN8HRTFData15normalizeTDdataEf
.Ltmp216:
	@DEBUG_VALUE: setup:normalization_status <- %R0
	.loc	13 138 8                @ /root/Bela/projects/SOFAlizer-for-Bela/render.cpp:138:8
	cmp	r0, #1
	beq	.LBB4_39
.Ltmp217:
@ BB#35:                                @   in Loop: Header=BB4_32 Depth=1
	@DEBUG_VALUE: setup:normalization_status <- %R0
	cmp	r0, #0
	beq	.LBB4_38
.Ltmp218:
@ BB#36:                                @   in Loop: Header=BB4_32 Depth=1
	@DEBUG_VALUE: setup:normalization_status <- %R0
	cmn	r0, #1
	bne	.LBB4_41
.Ltmp219:
@ BB#37:                                @   in Loop: Header=BB4_32 Depth=1
	@DEBUG_VALUE: setup:normalization_status <- %R0
	.loc	13 139 5                @ /root/Bela/projects/SOFAlizer-for-Bela/render.cpp:139:5
	mov	r0, r10
.Ltmp220:
	bl	rt_printf
	b	.LBB4_41
.Ltmp221:
.LBB4_38:                               @   in Loop: Header=BB4_32 Depth=1
	@DEBUG_VALUE: setup:normalization_status <- %R0
	.loc	10 781 32               @ /usr/bin/../lib/gcc/arm-linux-gnueabihf/6.3.0/../../../../include/c++/6.3.0/bits/stl_vector.h:781:32
	ldr	r0, [r6, #40]
.Ltmp222:
	.loc	13 142 5 discriminator 1 @ /root/Bela/projects/SOFAlizer-for-Bela/render.cpp:142:5
	add	r1, r0, r5
	mov	r0, r9
	b	.LBB4_40
.Ltmp223:
.LBB4_39:                               @   in Loop: Header=BB4_32 Depth=1
	@DEBUG_VALUE: setup:normalization_status <- %R0
	.loc	10 781 32               @ /usr/bin/../lib/gcc/arm-linux-gnueabihf/6.3.0/../../../../include/c++/6.3.0/bits/stl_vector.h:781:32
	ldr	r0, [r6, #40]
.Ltmp224:
	.loc	13 145 5 discriminator 1 @ /root/Bela/projects/SOFAlizer-for-Bela/render.cpp:145:5
	add	r1, r0, r5
	movw	r0, :lower16:.L.str.16
	movt	r0, :upper16:.L.str.16
.LBB4_40:                               @   in Loop: Header=BB4_32 Depth=1
	bl	rt_printf
.Ltmp225:
.LBB4_41:                               @   in Loop: Header=BB4_32 Depth=1
	.loc	10 781 32               @ /usr/bin/../lib/gcc/arm-linux-gnueabihf/6.3.0/../../../../include/c++/6.3.0/bits/stl_vector.h:781:32
	ldr	r0, [r6, #40]
.Ltmp226:
	.loc	13 149 16 discriminator 1 @ /root/Bela/projects/SOFAlizer-for-Bela/render.cpp:149:16
	add	r0, r0, r5
	bl	_ZN8HRTFData7sofaFFTEv
.Ltmp227:
	.loc	10 781 32               @ /usr/bin/../lib/gcc/arm-linux-gnueabihf/6.3.0/../../../../include/c++/6.3.0/bits/stl_vector.h:781:32
	ldr	r0, [r6, #40]
.Ltmp228:
	.loc	13 154 17 discriminator 1 @ /root/Bela/projects/SOFAlizer-for-Bela/render.cpp:154:17
	add	r0, r0, r5
	bl	_ZN8HRTFData14allocateFDdataEv
.Ltmp229:
	.loc	10 781 32               @ /usr/bin/../lib/gcc/arm-linux-gnueabihf/6.3.0/../../../../include/c++/6.3.0/bits/stl_vector.h:781:32
	ldr	r0, [r6, #40]
.Ltmp230:
	.loc	13 155 17 discriminator 1 @ /root/Bela/projects/SOFAlizer-for-Bela/render.cpp:155:17
	add	r0, r0, r5
	bl	_ZN8HRTFData17prepareNeonFDdataEv
.Ltmp231:
	.loc	10 781 32               @ /usr/bin/../lib/gcc/arm-linux-gnueabihf/6.3.0/../../../../include/c++/6.3.0/bits/stl_vector.h:781:32
	ldr	r0, [r6, #40]
.Ltmp232:
	.loc	13 156 17 discriminator 1 @ /root/Bela/projects/SOFAlizer-for-Bela/render.cpp:156:17
	add	r0, r0, r5
	bl	_ZN8HRTFData11freeFFTdataEv
.Ltmp233:
.LBB4_42:                               @ %_ZNSt7__cxx1112basic_stringIcSt11char_traitsIcESaIcEED2Ev.exit50
                                        @   in Loop: Header=BB4_32 Depth=1
	.loc	10 656 66               @ /usr/bin/../lib/gcc/arm-linux-gnueabihf/6.3.0/../../../../include/c++/6.3.0/bits/stl_vector.h:656:66
	ldrd	r0, r1, [r6, #40]
.Ltmp234:
	.loc	13 133 20 discriminator 1 @ /root/Bela/projects/SOFAlizer-for-Bela/render.cpp:133:20
	add	r5, r5, #164
	.loc	13 133 40 is_stmt 0 discriminator 3 @ /root/Bela/projects/SOFAlizer-for-Bela/render.cpp:133:40
	add	r8, r8, #1
.Ltmp235:
	@DEBUG_VALUE: i <- %R8
	.loc	10 656 50 is_stmt 1     @ /usr/bin/../lib/gcc/arm-linux-gnueabihf/6.3.0/../../../../include/c++/6.3.0/bits/stl_vector.h:656:50
	sub	r1, r1, r0
	asr	r1, r1, #2
	mul	r1, r1, r4
.Ltmp236:
	.loc	13 133 2 discriminator 1 @ /root/Bela/projects/SOFAlizer-for-Bela/render.cpp:133:2
	cmp	r8, r1
.Ltmp237:
	@DEBUG_VALUE: operator[]:__n <- %R8
	blo	.LBB4_32
.Ltmp238:
.LBB4_43:                               @ %.noexc8.i62
	add	r0, sp, #40
.Ltmp239:
	@DEBUG_VALUE: _M_construct<const char *>:this <- %R0
	@DEBUG_VALUE: _M_construct_aux<const char *>:this <- %R0
	@DEBUG_VALUE: _M_construct<const char *>:this <- %R0
	@DEBUG_VALUE: _M_local_data:this <- %R0
	.loc	57 215 12               @ /usr/bin/../lib/gcc/arm-linux-gnueabihf/6.3.0/../../../../include/c++/6.3.0/bits/basic_string.tcc:215:12
	mov	r1, #26
.Ltmp240:
	@DEBUG_VALUE: _M_construct<const char *>:__dnew <- 26
	.loc	33 142 51               @ /usr/bin/../lib/gcc/arm-linux-gnueabihf/6.3.0/../../../../include/c++/6.3.0/bits/basic_string.h:142:51
	add	r7, r0, #8
.Ltmp241:
	.loc	33 110 25               @ /usr/bin/../lib/gcc/arm-linux-gnueabihf/6.3.0/../../../../include/c++/6.3.0/bits/basic_string.h:110:25
	str	r7, [sp, #40]
.Ltmp242:
	.loc	57 215 12               @ /usr/bin/../lib/gcc/arm-linux-gnueabihf/6.3.0/../../../../include/c++/6.3.0/bits/basic_string.tcc:215:12
	str	r1, [r11, #-44]
.Ltmp243:
	.loc	57 219 14               @ /usr/bin/../lib/gcc/arm-linux-gnueabihf/6.3.0/../../../../include/c++/6.3.0/bits/basic_string.tcc:219:14
.Ltmp72:
	sub	r1, r11, #44
.Ltmp244:
	@DEBUG_VALUE: _M_construct<const char *>:__dnew <- [%R1+0]
	mov	r2, #0
	mov	r4, #0
	bl	_ZNSt7__cxx1112basic_stringIcSt11char_traitsIcESaIcEE9_M_createERjj
.Ltmp245:
.Ltmp73:
.Ltmp246:
@ BB#44:                                @ %.noexc64
	.loc	35 290 33               @ /usr/bin/../lib/gcc/arm-linux-gnueabihf/6.3.0/../../../../include/c++/6.3.0/bits/char_traits.h:290:33
	movw	r2, :lower16:.L.str.18
.Ltmp247:
	.loc	57 220 18               @ /usr/bin/../lib/gcc/arm-linux-gnueabihf/6.3.0/../../../../include/c++/6.3.0/bits/basic_string.tcc:220:18
	ldr	r1, [r11, #-44]
.Ltmp248:
	@DEBUG_VALUE: _M_capacity:__capacity <- %R1
	@DEBUG_VALUE: _M_set_length:__n <- %R1
	@DEBUG_VALUE: _M_length:__length <- %R1
	@DEBUG_VALUE: _M_construct<const char *>:__dnew <- %R1
	.loc	35 290 33               @ /usr/bin/../lib/gcc/arm-linux-gnueabihf/6.3.0/../../../../include/c++/6.3.0/bits/char_traits.h:290:33
	movt	r2, :upper16:.L.str.18
	vld1.64	{d16, d17}, [r2]
	add	r2, r2, #10
	vld1.16	{d18, d19}, [r2]
	add	r2, r0, #10
.Ltmp249:
	.loc	33 128 26               @ /usr/bin/../lib/gcc/arm-linux-gnueabihf/6.3.0/../../../../include/c++/6.3.0/bits/basic_string.h:128:26
	str	r0, [sp, #40]
.Ltmp250:
	@DEBUG_VALUE: _M_data:__p <- %R0
	.loc	33 160 31               @ /usr/bin/../lib/gcc/arm-linux-gnueabihf/6.3.0/../../../../include/c++/6.3.0/bits/basic_string.h:160:31
	str	r1, [sp, #48]
.Ltmp251:
	@DEBUG_VALUE: _S_copy:__d <- %R0
	@DEBUG_VALUE: _S_copy:__n <- 26
	.loc	35 290 33               @ /usr/bin/../lib/gcc/arm-linux-gnueabihf/6.3.0/../../../../include/c++/6.3.0/bits/char_traits.h:290:33
	vst1.8	{d18, d19}, [r2]
	vst1.8	{d16, d17}, [r0], r1
.Ltmp252:
	@DEBUG_VALUE: assign:__c1 <- %R0
	.loc	33 132 26               @ /usr/bin/../lib/gcc/arm-linux-gnueabihf/6.3.0/../../../../include/c++/6.3.0/bits/basic_string.h:132:26
	str	r1, [sp, #44]
.Ltmp253:
	.loc	35 243 14               @ /usr/bin/../lib/gcc/arm-linux-gnueabihf/6.3.0/../../../../include/c++/6.3.0/bits/char_traits.h:243:14
	strb	r4, [r0]
.Ltmp254:
	.loc	13 169 16 discriminator 1 @ /root/Bela/projects/SOFAlizer-for-Bela/render.cpp:169:16
.Ltmp75:
	movw	r4, :lower16:.L_MergedGlobals.4
	add	r1, sp, #40
.Ltmp255:
	@DEBUG_VALUE: _M_data:this <- %R1
	@DEBUG_VALUE: _M_length:this <- %R1
	@DEBUG_VALUE: _M_set_length:this <- %R1
	@DEBUG_VALUE: _M_data:this <- %R1
	@DEBUG_VALUE: _M_capacity:this <- %R1
	@DEBUG_VALUE: _M_data:this <- %R1
	movt	r4, :upper16:.L_MergedGlobals.4
	mov	r0, r4
.Ltmp256:
	bl	_ZN12OSCinterface11send_statusENSt7__cxx1112basic_stringIcSt11char_traitsIcESaIcEEE
.Ltmp257:
.Ltmp76:
.Ltmp258:
	@DEBUG_VALUE: _S_copy:__s <- %R2
@ BB#45:
	@DEBUG_VALUE: _S_copy:__s <- %R2
	.loc	33 136 28               @ /usr/bin/../lib/gcc/arm-linux-gnueabihf/6.3.0/../../../../include/c++/6.3.0/bits/basic_string.h:136:28
	ldr	r0, [sp, #40]
.Ltmp259:
	@DEBUG_VALUE: deallocate:__p <- %R0
	@DEBUG_VALUE: deallocate:__p <- %R0
	.loc	33 180 6                @ /usr/bin/../lib/gcc/arm-linux-gnueabihf/6.3.0/../../../../include/c++/6.3.0/bits/basic_string.h:180:6
	cmp	r0, r7
	beq	.LBB4_47
.Ltmp260:
@ BB#46:
	@DEBUG_VALUE: deallocate:__p <- %R0
	@DEBUG_VALUE: deallocate:__p <- %R0
	@DEBUG_VALUE: _S_copy:__s <- %R2
	.loc	6 110 9                 @ /usr/bin/../lib/gcc/arm-linux-gnueabihf/6.3.0/../../../../include/c++/6.3.0/ext/new_allocator.h:110:9
	bl	_ZdlPv
.Ltmp261:
.LBB4_47:                               @ %_ZNSt7__cxx1112basic_stringIcSt11char_traitsIcESaIcEED2Ev.exit71
	@DEBUG_VALUE: resize:__new_size <- 1024
	.loc	10 656 40               @ /usr/bin/../lib/gcc/arm-linux-gnueabihf/6.3.0/../../../../include/c++/6.3.0/bits/stl_vector.h:656:40
	movw	r5, :lower16:.L_MergedGlobals.3
	mov	r2, #0
	movt	r5, :upper16:.L_MergedGlobals.3
	.loc	10 656 66 is_stmt 0     @ /usr/bin/../lib/gcc/arm-linux-gnueabihf/6.3.0/../../../../include/c++/6.3.0/bits/stl_vector.h:656:66
	ldrd	r0, r1, [r5]
	.loc	10 656 50               @ /usr/bin/../lib/gcc/arm-linux-gnueabihf/6.3.0/../../../../include/c++/6.3.0/bits/stl_vector.h:656:50
	sub	r1, r1, r0
	asr	r1, r1, #2
.Ltmp262:
	.loc	10 676 6 is_stmt 1      @ /usr/bin/../lib/gcc/arm-linux-gnueabihf/6.3.0/../../../../include/c++/6.3.0/bits/stl_vector.h:676:6
	cmp	r2, r1, lsr #10
	bne	.LBB4_49
@ BB#48:
.Ltmp263:
	.loc	10 677 4 discriminator 1 @ /usr/bin/../lib/gcc/arm-linux-gnueabihf/6.3.0/../../../../include/c++/6.3.0/bits/stl_vector.h:677:4
	movw	r0, :lower16:.L_MergedGlobals.3
	.loc	10 677 33 is_stmt 0     @ /usr/bin/../lib/gcc/arm-linux-gnueabihf/6.3.0/../../../../include/c++/6.3.0/bits/stl_vector.h:677:33
	rsb	r1, r1, #1024
	.loc	10 677 4 discriminator 1 @ /usr/bin/../lib/gcc/arm-linux-gnueabihf/6.3.0/../../../../include/c++/6.3.0/bits/stl_vector.h:677:4
	movt	r0, :upper16:.L_MergedGlobals.3
.Ltmp264:
	@DEBUG_VALUE: _M_erase_at_end:this <- %R0
	bl	_ZNSt6vectorIfSaIfEE17_M_default_appendEj
.Ltmp265:
	b	.LBB4_50
.LBB4_49:
	.loc	10 678 11 is_stmt 1     @ /usr/bin/../lib/gcc/arm-linux-gnueabihf/6.3.0/../../../../include/c++/6.3.0/bits/stl_vector.h:678:11
	cmp	r1, #1024
.Ltmp266:
	.loc	10 679 43               @ /usr/bin/../lib/gcc/arm-linux-gnueabihf/6.3.0/../../../../include/c++/6.3.0/bits/stl_vector.h:679:43
	addne	r0, r0, #4096
.Ltmp267:
	@DEBUG_VALUE: _M_erase_at_end:__pos <- %R0
	.loc	10 1437 26              @ /usr/bin/../lib/gcc/arm-linux-gnueabihf/6.3.0/../../../../include/c++/6.3.0/bits/stl_vector.h:1437:26
	strne	r0, [r5, #4]
.Ltmp268:
.LBB4_50:                               @ %_ZNSt6vectorIfSaIfEE6resizeEj.exit70
	@DEBUG_VALUE: resize:__new_size <- 1024
	.loc	10 656 66               @ /usr/bin/../lib/gcc/arm-linux-gnueabihf/6.3.0/../../../../include/c++/6.3.0/bits/stl_vector.h:656:66
	ldr	r0, [r5, #12]
	mov	r2, #0
	.loc	10 656 40 is_stmt 0     @ /usr/bin/../lib/gcc/arm-linux-gnueabihf/6.3.0/../../../../include/c++/6.3.0/bits/stl_vector.h:656:40
	ldr	r1, [r5, #16]
	.loc	10 656 50               @ /usr/bin/../lib/gcc/arm-linux-gnueabihf/6.3.0/../../../../include/c++/6.3.0/bits/stl_vector.h:656:50
	sub	r1, r1, r0
	asr	r1, r1, #2
.Ltmp269:
	.loc	10 676 6 is_stmt 1      @ /usr/bin/../lib/gcc/arm-linux-gnueabihf/6.3.0/../../../../include/c++/6.3.0/bits/stl_vector.h:676:6
	cmp	r2, r1, lsr #10
	bne	.LBB4_52
@ BB#51:
.Ltmp270:
	.loc	10 677 4 discriminator 1 @ /usr/bin/../lib/gcc/arm-linux-gnueabihf/6.3.0/../../../../include/c++/6.3.0/bits/stl_vector.h:677:4
	add	r0, r5, #12
.Ltmp271:
	@DEBUG_VALUE: _M_erase_at_end:this <- %R0
	.loc	10 677 33 is_stmt 0     @ /usr/bin/../lib/gcc/arm-linux-gnueabihf/6.3.0/../../../../include/c++/6.3.0/bits/stl_vector.h:677:33
	rsb	r1, r1, #1024
	.loc	10 677 4 discriminator 1 @ /usr/bin/../lib/gcc/arm-linux-gnueabihf/6.3.0/../../../../include/c++/6.3.0/bits/stl_vector.h:677:4
	bl	_ZNSt6vectorIfSaIfEE17_M_default_appendEj
.Ltmp272:
	b	.LBB4_53
.LBB4_52:
	.loc	10 678 11 is_stmt 1     @ /usr/bin/../lib/gcc/arm-linux-gnueabihf/6.3.0/../../../../include/c++/6.3.0/bits/stl_vector.h:678:11
	cmp	r1, #1024
.Ltmp273:
	.loc	10 679 43               @ /usr/bin/../lib/gcc/arm-linux-gnueabihf/6.3.0/../../../../include/c++/6.3.0/bits/stl_vector.h:679:43
	addne	r0, r0, #4096
.Ltmp274:
	@DEBUG_VALUE: _M_erase_at_end:__pos <- %R0
	.loc	10 1437 26              @ /usr/bin/../lib/gcc/arm-linux-gnueabihf/6.3.0/../../../../include/c++/6.3.0/bits/stl_vector.h:1437:26
	strne	r0, [r5, #16]
.Ltmp275:
.LBB4_53:                               @ %_ZNSt6vectorIfSaIfEE6resizeEj.exit69
	@DEBUG_VALUE: resize:__new_size <- 1024
	.loc	10 656 66               @ /usr/bin/../lib/gcc/arm-linux-gnueabihf/6.3.0/../../../../include/c++/6.3.0/bits/stl_vector.h:656:66
	ldrd	r0, r1, [r5, #24]
	mov	r2, #0
	.loc	10 656 50 is_stmt 0     @ /usr/bin/../lib/gcc/arm-linux-gnueabihf/6.3.0/../../../../include/c++/6.3.0/bits/stl_vector.h:656:50
	sub	r1, r1, r0
	asr	r1, r1, #2
.Ltmp276:
	.loc	10 676 6 is_stmt 1      @ /usr/bin/../lib/gcc/arm-linux-gnueabihf/6.3.0/../../../../include/c++/6.3.0/bits/stl_vector.h:676:6
	cmp	r2, r1, lsr #10
	bne	.LBB4_55
@ BB#54:
.Ltmp277:
	.loc	10 677 4 discriminator 1 @ /usr/bin/../lib/gcc/arm-linux-gnueabihf/6.3.0/../../../../include/c++/6.3.0/bits/stl_vector.h:677:4
	add	r0, r5, #24
.Ltmp278:
	@DEBUG_VALUE: _M_erase_at_end:this <- %R0
	.loc	10 677 33 is_stmt 0     @ /usr/bin/../lib/gcc/arm-linux-gnueabihf/6.3.0/../../../../include/c++/6.3.0/bits/stl_vector.h:677:33
	rsb	r1, r1, #1024
	.loc	10 677 4 discriminator 1 @ /usr/bin/../lib/gcc/arm-linux-gnueabihf/6.3.0/../../../../include/c++/6.3.0/bits/stl_vector.h:677:4
	bl	_ZNSt6vectorIfSaIfEE17_M_default_appendEj
.Ltmp279:
	b	.LBB4_56
.LBB4_55:
	.loc	10 678 11 is_stmt 1     @ /usr/bin/../lib/gcc/arm-linux-gnueabihf/6.3.0/../../../../include/c++/6.3.0/bits/stl_vector.h:678:11
	cmp	r1, #1024
.Ltmp280:
	.loc	10 679 43               @ /usr/bin/../lib/gcc/arm-linux-gnueabihf/6.3.0/../../../../include/c++/6.3.0/bits/stl_vector.h:679:43
	addne	r0, r0, #4096
.Ltmp281:
	@DEBUG_VALUE: _M_erase_at_end:__pos <- %R0
	.loc	10 1437 26              @ /usr/bin/../lib/gcc/arm-linux-gnueabihf/6.3.0/../../../../include/c++/6.3.0/bits/stl_vector.h:1437:26
	strne	r0, [r5, #28]
.Ltmp282:
.LBB4_56:                               @ %_ZNSt6vectorIfSaIfEE6resizeEj.exit68
	@DEBUG_VALUE: resize:__new_size <- 1024
	.loc	10 656 66               @ /usr/bin/../lib/gcc/arm-linux-gnueabihf/6.3.0/../../../../include/c++/6.3.0/bits/stl_vector.h:656:66
	ldr	r0, [r5, #36]
	mov	r2, #0
	.loc	10 656 40 is_stmt 0     @ /usr/bin/../lib/gcc/arm-linux-gnueabihf/6.3.0/../../../../include/c++/6.3.0/bits/stl_vector.h:656:40
	ldr	r1, [r5, #40]
	.loc	10 656 50               @ /usr/bin/../lib/gcc/arm-linux-gnueabihf/6.3.0/../../../../include/c++/6.3.0/bits/stl_vector.h:656:50
	sub	r1, r1, r0
	asr	r1, r1, #2
.Ltmp283:
	.loc	10 676 6 is_stmt 1      @ /usr/bin/../lib/gcc/arm-linux-gnueabihf/6.3.0/../../../../include/c++/6.3.0/bits/stl_vector.h:676:6
	cmp	r2, r1, lsr #10
	bne	.LBB4_58
@ BB#57:
.Ltmp284:
	.loc	10 677 4 discriminator 1 @ /usr/bin/../lib/gcc/arm-linux-gnueabihf/6.3.0/../../../../include/c++/6.3.0/bits/stl_vector.h:677:4
	add	r0, r5, #36
.Ltmp285:
	@DEBUG_VALUE: _M_erase_at_end:this <- %R0
	.loc	10 677 33 is_stmt 0     @ /usr/bin/../lib/gcc/arm-linux-gnueabihf/6.3.0/../../../../include/c++/6.3.0/bits/stl_vector.h:677:33
	rsb	r1, r1, #1024
	.loc	10 677 4 discriminator 1 @ /usr/bin/../lib/gcc/arm-linux-gnueabihf/6.3.0/../../../../include/c++/6.3.0/bits/stl_vector.h:677:4
	bl	_ZNSt6vectorIfSaIfEE17_M_default_appendEj
.Ltmp286:
	b	.LBB4_59
.LBB4_58:
	.loc	10 678 11 is_stmt 1     @ /usr/bin/../lib/gcc/arm-linux-gnueabihf/6.3.0/../../../../include/c++/6.3.0/bits/stl_vector.h:678:11
	cmp	r1, #1024
.Ltmp287:
	.loc	10 679 43               @ /usr/bin/../lib/gcc/arm-linux-gnueabihf/6.3.0/../../../../include/c++/6.3.0/bits/stl_vector.h:679:43
	addne	r0, r0, #4096
.Ltmp288:
	@DEBUG_VALUE: _M_erase_at_end:__pos <- %R0
	.loc	10 1437 26              @ /usr/bin/../lib/gcc/arm-linux-gnueabihf/6.3.0/../../../../include/c++/6.3.0/bits/stl_vector.h:1437:26
	strne	r0, [r5, #40]
.Ltmp289:
.LBB4_59:                               @ %_ZNSt6vectorIfSaIfEE6resizeEj.exit
	.loc	13 181 12               @ /root/Bela/projects/SOFAlizer-for-Bela/render.cpp:181:12
	add	r0, r6, #52
	mov	r1, #512
	bl	_ZN3Fft5setupEj
	.loc	13 182 12               @ /root/Bela/projects/SOFAlizer-for-Bela/render.cpp:182:12
	add	r0, r6, #68
	mov	r1, #512
	bl	_ZN3Fft5setupEj
	.loc	13 184 13               @ /root/Bela/projects/SOFAlizer-for-Bela/render.cpp:184:13
	add	r0, r6, #84
	mov	r1, #512
	bl	_ZN3Fft5setupEj
	.loc	13 185 14               @ /root/Bela/projects/SOFAlizer-for-Bela/render.cpp:185:14
	add	r0, r6, #100
	mov	r1, #512
	bl	_ZN3Fft5setupEj
	.loc	13 189 19               @ /root/Bela/projects/SOFAlizer-for-Bela/render.cpp:189:19
	movw	r0, :lower16:_Z16filtering_threadPv
	movw	r2, :lower16:.L.str.19
	movt	r0, :upper16:_Z16filtering_threadPv
	movt	r2, :upper16:.L.str.19
	mov	r1, #50
	mov	r3, #0
	bl	Bela_createAuxiliaryTask
	.loc	13 189 17 is_stmt 0     @ /root/Bela/projects/SOFAlizer-for-Bela/render.cpp:189:17
	str	r0, [r6, #36]
.Ltmp290:
	@DEBUG_VALUE: function<void (*)(oscpkt::Message *, const char *, void *), void, void>:__f <- %R0
	.loc	28 1643 4 is_stmt 1     @ /usr/bin/../lib/gcc/arm-linux-gnueabihf/6.3.0/../../../../include/c++/6.3.0/functional:1643:4
	movw	r0, :lower16:_Z14osc_on_receivePN6oscpkt7MessageEPKcPv
.Ltmp291:
	movt	r0, :upper16:_Z14osc_on_receivePN6oscpkt7MessageEPKcPv
.Ltmp292:
	.loc	13 194 47               @ /root/Bela/projects/SOFAlizer-for-Bela/render.cpp:194:47
	ldr	r1, [r4, #64]
.Ltmp293:
	.loc	28 1643 4               @ /usr/bin/../lib/gcc/arm-linux-gnueabihf/6.3.0/../../../../include/c++/6.3.0/functional:1643:4
	str	r0, [sp, #24]
.Ltmp294:
	.loc	28 2115 17              @ /usr/bin/../lib/gcc/arm-linux-gnueabihf/6.3.0/../../../../include/c++/6.3.0/functional:2115:17
	movw	r0, :lower16:_ZNSt17_Function_handlerIFvPN6oscpkt7MessageEPKcPvEPS6_E9_M_invokeERKSt9_Any_dataOS2_OS4_OS5_
	movt	r0, :upper16:_ZNSt17_Function_handlerIFvPN6oscpkt7MessageEPKcPvEPS6_E9_M_invokeERKSt9_Any_dataOS2_OS4_OS5_
	str	r0, [sp, #36]
	.loc	28 2116 17              @ /usr/bin/../lib/gcc/arm-linux-gnueabihf/6.3.0/../../../../include/c++/6.3.0/functional:2116:17
	movw	r0, :lower16:_ZNSt14_Function_base13_Base_managerIPFvPN6oscpkt7MessageEPKcPvEE10_M_managerERSt9_Any_dataRKSA_St18_Manager_operation
	movt	r0, :upper16:_ZNSt14_Function_base13_Base_managerIPFvPN6oscpkt7MessageEPKcPvEE10_M_managerERSt9_Any_dataRKSA_St18_Manager_operation
	str	r0, [sp, #32]
.Ltmp295:
	.loc	13 194 28               @ /root/Bela/projects/SOFAlizer-for-Bela/render.cpp:194:28
.Ltmp78:
	add	r2, sp, #24
.Ltmp296:
	@DEBUG_VALUE: function<void (*)(oscpkt::Message *, const char *, void *), void, void>:this <- %R2
	mov	r0, r4
	mov	r3, #0
	bl	_ZN11OscReceiver5setupEiSt8functionIFvPN6oscpkt7MessageEPKcPvEES6_
.Ltmp297:
.Ltmp79:
@ BB#60:
.Ltmp298:
	.loc	28 1689 11              @ /usr/bin/../lib/gcc/arm-linux-gnueabihf/6.3.0/../../../../include/c++/6.3.0/functional:1689:11
	ldr	r3, [sp, #32]
.Ltmp299:
	.loc	28 1689 11 is_stmt 0    @ /usr/bin/../lib/gcc/arm-linux-gnueabihf/6.3.0/../../../../include/c++/6.3.0/functional:1689:11
	cmp	r3, #0
	beq	.LBB4_62
@ BB#61:
.Ltmp300:
	.loc	28 1690 2 is_stmt 1     @ /usr/bin/../lib/gcc/arm-linux-gnueabihf/6.3.0/../../../../include/c++/6.3.0/functional:1690:2
.Ltmp84:
	add	r0, sp, #24
	mov	r2, #3
	mov	r1, r0
	blx	r3
.Ltmp85:
.Ltmp301:
.LBB4_62:                               @ %_ZNSt14_Function_baseD2Ev.exit67
	.loc	10 656 66               @ /usr/bin/../lib/gcc/arm-linux-gnueabihf/6.3.0/../../../../include/c++/6.3.0/bits/stl_vector.h:656:66
	ldrd	r0, r1, [r6, #40]
	.loc	10 656 50 is_stmt 0     @ /usr/bin/../lib/gcc/arm-linux-gnueabihf/6.3.0/../../../../include/c++/6.3.0/bits/stl_vector.h:656:50
	movw	r2, #39961
	movt	r2, #49551
.Ltmp302:
	.loc	13 208 16 is_stmt 1 discriminator 1 @ /root/Bela/projects/SOFAlizer-for-Bela/render.cpp:208:16
	movw	r4, :lower16:.L_MergedGlobals.4
.Ltmp303:
	.loc	10 656 50               @ /usr/bin/../lib/gcc/arm-linux-gnueabihf/6.3.0/../../../../include/c++/6.3.0/bits/stl_vector.h:656:50
	sub	r1, r1, r0
.Ltmp304:
	.loc	13 208 16 discriminator 1 @ /root/Bela/projects/SOFAlizer-for-Bela/render.cpp:208:16
	movt	r4, :upper16:.L_MergedGlobals.4
.Ltmp305:
	.loc	10 656 50               @ /usr/bin/../lib/gcc/arm-linux-gnueabihf/6.3.0/../../../../include/c++/6.3.0/bits/stl_vector.h:656:50
	asr	r1, r1, #2
	mul	r2, r1, r2
	mov	r1, #164
.Ltmp306:
	.loc	13 202 22               @ /root/Bela/projects/SOFAlizer-for-Bela/render.cpp:202:22
	sub	r3, r2, #1
.Ltmp307:
	@DEBUG_VALUE: operator[]:__n <- %R3
	.loc	13 208 30               @ /root/Bela/projects/SOFAlizer-for-Bela/render.cpp:208:30
	mla	r1, r3, r1, r0
	.loc	13 208 16 is_stmt 0 discriminator 1 @ /root/Bela/projects/SOFAlizer-for-Bela/render.cpp:208:16
	mov	r0, r4
	.loc	13 198 11 is_stmt 1     @ /root/Bela/projects/SOFAlizer-for-Bela/render.cpp:198:11
	strd	r2, r3, [r6, #24]
	.loc	13 208 16 discriminator 1 @ /root/Bela/projects/SOFAlizer-for-Bela/render.cpp:208:16
	bl	_ZN12OSCinterface13send_filenameEPc
.Ltmp308:
	.loc	35 290 33               @ /usr/bin/../lib/gcc/arm-linux-gnueabihf/6.3.0/../../../../include/c++/6.3.0/bits/char_traits.h:290:33
	movw	r0, :lower16:.L.str.20
	mov	r1, sp
.Ltmp309:
	@DEBUG_VALUE: _M_data:this <- %R1
	@DEBUG_VALUE: _M_length:this <- %R1
	@DEBUG_VALUE: _M_set_length:__n <- 9
	@DEBUG_VALUE: _M_set_length:this <- %R1
	@DEBUG_VALUE: _M_data:this <- %R1
	@DEBUG_VALUE: _M_construct<const char *>:__dnew <- 9
	@DEBUG_VALUE: _M_construct<const char *>:this <- %R1
	@DEBUG_VALUE: _M_construct_aux<const char *>:this <- %R1
	@DEBUG_VALUE: _M_construct<const char *>:this <- %R1
	@DEBUG_VALUE: _S_copy_chars:__p <- %R6
	@DEBUG_VALUE: _S_copy:__d <- %R6
	@DEBUG_VALUE: _M_local_data:this <- %R1
	movt	r0, :upper16:.L.str.20
.Ltmp310:
	.loc	33 142 51               @ /usr/bin/../lib/gcc/arm-linux-gnueabihf/6.3.0/../../../../include/c++/6.3.0/bits/basic_string.h:142:51
	add	r6, r1, #8
.Ltmp311:
	.loc	35 290 33               @ /usr/bin/../lib/gcc/arm-linux-gnueabihf/6.3.0/../../../../include/c++/6.3.0/bits/char_traits.h:290:33
	vldr	d16, [r0]
	mov	r0, #46
.Ltmp312:
	.loc	33 110 25               @ /usr/bin/../lib/gcc/arm-linux-gnueabihf/6.3.0/../../../../include/c++/6.3.0/bits/basic_string.h:110:25
	str	r6, [sp]
.Ltmp313:
	@DEBUG_VALUE: _S_copy:__n <- 9
	.loc	35 290 33               @ /usr/bin/../lib/gcc/arm-linux-gnueabihf/6.3.0/../../../../include/c++/6.3.0/bits/char_traits.h:290:33
	strb	r0, [sp, #16]
	mov	r0, #9
.Ltmp314:
	@DEBUG_VALUE: _M_length:__length <- 9
	vstr	d16, [sp, #8]
.Ltmp315:
	.loc	33 132 26               @ /usr/bin/../lib/gcc/arm-linux-gnueabihf/6.3.0/../../../../include/c++/6.3.0/bits/basic_string.h:132:26
	str	r0, [sp, #4]
.Ltmp316:
	.loc	35 243 14               @ /usr/bin/../lib/gcc/arm-linux-gnueabihf/6.3.0/../../../../include/c++/6.3.0/bits/char_traits.h:243:14
	mov	r0, #0
	strb	r0, [sp, #17]
.Ltmp317:
	.loc	13 209 16 discriminator 1 @ /root/Bela/projects/SOFAlizer-for-Bela/render.cpp:209:16
.Ltmp87:
	mov	r0, r4
	bl	_ZN12OSCinterface11send_statusENSt7__cxx1112basic_stringIcSt11char_traitsIcESaIcEEE
.Ltmp318:
.Ltmp88:
.Ltmp319:
	@DEBUG_VALUE: _S_copy:__s <- %R0
@ BB#63:
	@DEBUG_VALUE: _S_copy:__s <- %R0
	.loc	33 136 28               @ /usr/bin/../lib/gcc/arm-linux-gnueabihf/6.3.0/../../../../include/c++/6.3.0/bits/basic_string.h:136:28
	ldr	r0, [sp]
.Ltmp320:
	@DEBUG_VALUE: deallocate:__p <- %R0
	@DEBUG_VALUE: deallocate:__p <- %R0
	.loc	33 180 6                @ /usr/bin/../lib/gcc/arm-linux-gnueabihf/6.3.0/../../../../include/c++/6.3.0/bits/basic_string.h:180:6
	cmp	r0, r6
	beq	.LBB4_65
.Ltmp321:
@ BB#64:
	@DEBUG_VALUE: deallocate:__p <- %R0
	@DEBUG_VALUE: deallocate:__p <- %R0
	.loc	6 110 9                 @ /usr/bin/../lib/gcc/arm-linux-gnueabihf/6.3.0/../../../../include/c++/6.3.0/ext/new_allocator.h:110:9
	bl	_ZdlPv
.Ltmp322:
.LBB4_65:                               @ %_ZNSt7__cxx1112basic_stringIcSt11char_traitsIcESaIcEED2Ev.exit51
	.loc	13 212 2                @ /root/Bela/projects/SOFAlizer-for-Bela/render.cpp:212:2
	mov	r0, #1
	sub	sp, r11, #40
	vpop	{d8}
	add	sp, sp, #4
	pop	{r4, r5, r6, r7, r8, r9, r10, r11, pc}
.LBB4_66:
.Ltmp86:
.Ltmp323:
	.loc	28 1690 2 discriminator 2 @ /usr/bin/../lib/gcc/arm-linux-gnueabihf/6.3.0/../../../../include/c++/6.3.0/functional:1690:2
	mov	lr, pc
	b	__clang_call_terminate
.Ltmp324:
.LBB4_67:
	@DEBUG_VALUE: _S_copy:__s <- %R0
.Ltmp89:
	mov	r5, r0
.Ltmp325:
	.loc	33 136 28               @ /usr/bin/../lib/gcc/arm-linux-gnueabihf/6.3.0/../../../../include/c++/6.3.0/bits/basic_string.h:136:28
	ldr	r0, [sp]
.Ltmp326:
	@DEBUG_VALUE: deallocate:__p <- %R0
	@DEBUG_VALUE: deallocate:__p <- %R0
	.loc	33 180 6                @ /usr/bin/../lib/gcc/arm-linux-gnueabihf/6.3.0/../../../../include/c++/6.3.0/bits/basic_string.h:180:6
	cmp	r0, r6
	bne	.LBB4_73
	b	.LBB4_74
.Ltmp327:
	.p2align	2
@ BB#68:
.LCPI4_1:
	.long	1063675494              @ float 0.899999976
.LBB4_69:
.Ltmp80:
.Ltmp328:
	.loc	28 1689 11              @ /usr/bin/../lib/gcc/arm-linux-gnueabihf/6.3.0/../../../../include/c++/6.3.0/functional:1689:11
	ldr	r3, [sp, #32]
	mov	r5, r0
.Ltmp329:
	.loc	28 1689 11 is_stmt 0    @ /usr/bin/../lib/gcc/arm-linux-gnueabihf/6.3.0/../../../../include/c++/6.3.0/functional:1689:11
	cmp	r3, #0
	beq	.LBB4_74
@ BB#70:
.Ltmp330:
	.loc	28 1690 2 is_stmt 1     @ /usr/bin/../lib/gcc/arm-linux-gnueabihf/6.3.0/../../../../include/c++/6.3.0/functional:1690:2
.Ltmp81:
	add	r0, sp, #24
	mov	r2, #3
	mov	r1, r0
	blx	r3
.Ltmp82:
	b	.LBB4_74
.LBB4_71:
.Ltmp83:
	.loc	28 1690 2 is_stmt 0 discriminator 2 @ /usr/bin/../lib/gcc/arm-linux-gnueabihf/6.3.0/../../../../include/c++/6.3.0/functional:1690:2
	mov	lr, pc
	b	__clang_call_terminate
.Ltmp331:
.LBB4_72:
	@DEBUG_VALUE: _S_copy:__s <- %R2
.Ltmp77:
	mov	r5, r0
.Ltmp332:
	.loc	33 136 28 is_stmt 1     @ /usr/bin/../lib/gcc/arm-linux-gnueabihf/6.3.0/../../../../include/c++/6.3.0/bits/basic_string.h:136:28
	ldr	r0, [sp, #40]
.Ltmp333:
	@DEBUG_VALUE: deallocate:__p <- %R0
	@DEBUG_VALUE: deallocate:__p <- %R0
	.loc	33 180 6                @ /usr/bin/../lib/gcc/arm-linux-gnueabihf/6.3.0/../../../../include/c++/6.3.0/bits/basic_string.h:180:6
	cmp	r0, r7
	beq	.LBB4_74
.Ltmp334:
.LBB4_73:
	.loc	6 110 9                 @ /usr/bin/../lib/gcc/arm-linux-gnueabihf/6.3.0/../../../../include/c++/6.3.0/ext/new_allocator.h:110:9
	bl	_ZdlPv
.Ltmp335:
.LBB4_74:                               @ %_ZNSt7__cxx1112basic_stringIcSt11char_traitsIcESaIcEED2Ev.exit40
	mov	r0, r5
	mov	lr, pc
	b	_Unwind_Resume
.LBB4_75:
.Ltmp74:
	mov	lr, pc
	b	_Unwind_Resume
@ BB#76:
.Lfunc_end4:
	.size	setup, .Lfunc_end4-setup
	.cfi_endproc
	.globl	__gxx_personality_v0
	.personality __gxx_personality_v0
	.handlerdata
	.p2align	2
GCC_except_table4:
.Lexception1:
	.byte	255                     @ @LPStart Encoding = omit
	.byte	0                       @ @TType Encoding = absptr
	.asciz	"\215\202\200\200"      @ @TType base offset
	.byte	3                       @ Call site Encoding = udata4
	.ascii	"\204\002"              @ Call site table length
	.long	.Ltmp55-.Lfunc_begin4   @ >> Call Site 1 <<
	.long	.Ltmp56-.Ltmp55         @   Call between .Ltmp55 and .Ltmp56
	.long	.Ltmp92-.Lfunc_begin4   @     jumps to .Ltmp92
	.byte	0                       @   On action: cleanup
	.long	.Ltmp56-.Lfunc_begin4   @ >> Call Site 2 <<
	.long	.Ltmp57-.Ltmp56         @   Call between .Ltmp56 and .Ltmp57
	.long	0                       @     has no landing pad
	.byte	0                       @   On action: cleanup
	.long	.Ltmp57-.Lfunc_begin4   @ >> Call Site 3 <<
	.long	.Ltmp58-.Ltmp57         @   Call between .Ltmp57 and .Ltmp58
	.long	.Ltmp59-.Lfunc_begin4   @     jumps to .Ltmp59
	.byte	0                       @   On action: cleanup
	.long	.Ltmp60-.Lfunc_begin4   @ >> Call Site 4 <<
	.long	.Ltmp61-.Ltmp60         @   Call between .Ltmp60 and .Ltmp61
	.long	.Ltmp62-.Lfunc_begin4   @     jumps to .Ltmp62
	.byte	0                       @   On action: cleanup
	.long	.Ltmp61-.Lfunc_begin4   @ >> Call Site 5 <<
	.long	.Ltmp63-.Ltmp61         @   Call between .Ltmp61 and .Ltmp63
	.long	0                       @     has no landing pad
	.byte	0                       @   On action: cleanup
	.long	.Ltmp63-.Lfunc_begin4   @ >> Call Site 6 <<
	.long	.Ltmp64-.Ltmp63         @   Call between .Ltmp63 and .Ltmp64
	.long	.Ltmp65-.Lfunc_begin4   @     jumps to .Ltmp65
	.byte	0                       @   On action: cleanup
	.long	.Ltmp66-.Lfunc_begin4   @ >> Call Site 7 <<
	.long	.Ltmp67-.Ltmp66         @   Call between .Ltmp66 and .Ltmp67
	.long	.Ltmp68-.Lfunc_begin4   @     jumps to .Ltmp68
	.byte	0                       @   On action: cleanup
	.long	.Ltmp90-.Lfunc_begin4   @ >> Call Site 8 <<
	.long	.Ltmp91-.Ltmp90         @   Call between .Ltmp90 and .Ltmp91
	.long	.Ltmp92-.Lfunc_begin4   @     jumps to .Ltmp92
	.byte	0                       @   On action: cleanup
	.long	.Ltmp91-.Lfunc_begin4   @ >> Call Site 9 <<
	.long	.Ltmp69-.Ltmp91         @   Call between .Ltmp91 and .Ltmp69
	.long	0                       @     has no landing pad
	.byte	0                       @   On action: cleanup
	.long	.Ltmp69-.Lfunc_begin4   @ >> Call Site 10 <<
	.long	.Ltmp70-.Ltmp69         @   Call between .Ltmp69 and .Ltmp70
	.long	.Ltmp71-.Lfunc_begin4   @     jumps to .Ltmp71
	.byte	1                       @   On action: 1
	.long	.Ltmp70-.Lfunc_begin4   @ >> Call Site 11 <<
	.long	.Ltmp72-.Ltmp70         @   Call between .Ltmp70 and .Ltmp72
	.long	0                       @     has no landing pad
	.byte	0                       @   On action: cleanup
	.long	.Ltmp72-.Lfunc_begin4   @ >> Call Site 12 <<
	.long	.Ltmp73-.Ltmp72         @   Call between .Ltmp72 and .Ltmp73
	.long	.Ltmp74-.Lfunc_begin4   @     jumps to .Ltmp74
	.byte	0                       @   On action: cleanup
	.long	.Ltmp75-.Lfunc_begin4   @ >> Call Site 13 <<
	.long	.Ltmp76-.Ltmp75         @   Call between .Ltmp75 and .Ltmp76
	.long	.Ltmp77-.Lfunc_begin4   @     jumps to .Ltmp77
	.byte	0                       @   On action: cleanup
	.long	.Ltmp76-.Lfunc_begin4   @ >> Call Site 14 <<
	.long	.Ltmp78-.Ltmp76         @   Call between .Ltmp76 and .Ltmp78
	.long	0                       @     has no landing pad
	.byte	0                       @   On action: cleanup
	.long	.Ltmp78-.Lfunc_begin4   @ >> Call Site 15 <<
	.long	.Ltmp79-.Ltmp78         @   Call between .Ltmp78 and .Ltmp79
	.long	.Ltmp80-.Lfunc_begin4   @     jumps to .Ltmp80
	.byte	0                       @   On action: cleanup
	.long	.Ltmp84-.Lfunc_begin4   @ >> Call Site 16 <<
	.long	.Ltmp85-.Ltmp84         @   Call between .Ltmp84 and .Ltmp85
	.long	.Ltmp86-.Lfunc_begin4   @     jumps to .Ltmp86
	.byte	1                       @   On action: 1
	.long	.Ltmp85-.Lfunc_begin4   @ >> Call Site 17 <<
	.long	.Ltmp87-.Ltmp85         @   Call between .Ltmp85 and .Ltmp87
	.long	0                       @     has no landing pad
	.byte	0                       @   On action: cleanup
	.long	.Ltmp87-.Lfunc_begin4   @ >> Call Site 18 <<
	.long	.Ltmp88-.Ltmp87         @   Call between .Ltmp87 and .Ltmp88
	.long	.Ltmp89-.Lfunc_begin4   @     jumps to .Ltmp89
	.byte	0                       @   On action: cleanup
	.long	.Ltmp81-.Lfunc_begin4   @ >> Call Site 19 <<
	.long	.Ltmp82-.Ltmp81         @   Call between .Ltmp81 and .Ltmp82
	.long	.Ltmp83-.Lfunc_begin4   @     jumps to .Ltmp83
	.byte	1                       @   On action: 1
	.long	.Ltmp82-.Lfunc_begin4   @ >> Call Site 20 <<
	.long	.Lfunc_end4-.Ltmp82     @   Call between .Ltmp82 and .Lfunc_end4
	.long	0                       @     has no landing pad
	.byte	0                       @   On action: cleanup
	.byte	1                       @ >> Action Record 1 <<
                                        @   Catch TypeInfo 1
	.byte	0                       @   No further actions
                                        @ >> Catch TypeInfos <<
	.long	0                       @ TypeInfo 1
	.p2align	2
	.fnend

	.globl	_Z16filtering_threadPv
	.p2align	2
	.type	_Z16filtering_threadPv,%function
_Z16filtering_threadPv:                 @ @_Z16filtering_threadPv
.Lfunc_begin5:
	.loc	13 219 0                @ /root/Bela/projects/SOFAlizer-for-Bela/render.cpp:219:0
	.fnstart
	.cfi_startproc
@ BB#0:
	.save	{r4, r10, r11, lr}
	push	{r4, r10, r11, lr}
.Ltmp336:
	.cfi_def_cfa_offset 16
.Ltmp337:
	.cfi_offset lr, -4
.Ltmp338:
	.cfi_offset r11, -8
.Ltmp339:
	.cfi_offset r10, -12
.Ltmp340:
	.cfi_offset r4, -16
	.setfp	r11, sp, #8
	add	r11, sp, #8
.Ltmp341:
	.cfi_def_cfa r11, 8
	.pad	#8
	sub	sp, sp, #8
	@DEBUG_VALUE: filtering_thread: <- %R0
.Ltmp342:
	.loc	13 223 58 prologue_end  @ /root/Bela/projects/SOFAlizer-for-Bela/render.cpp:223:58
	movw	r4, :lower16:.L_MergedGlobals
	.loc	13 223 4 is_stmt 0      @ /root/Bela/projects/SOFAlizer-for-Bela/render.cpp:223:4
	movw	r1, :lower16:.L_MergedGlobals.3
	.loc	13 223 58               @ /root/Bela/projects/SOFAlizer-for-Bela/render.cpp:223:58
	movt	r4, :upper16:.L_MergedGlobals
	.loc	13 223 4                @ /root/Bela/projects/SOFAlizer-for-Bela/render.cpp:223:4
	movt	r1, :upper16:.L_MergedGlobals.3
	.loc	13 223 89               @ /root/Bela/projects/SOFAlizer-for-Bela/render.cpp:223:89
	ldr	r0, [r4, #8]
.Ltmp343:
	.loc	13 223 4                @ /root/Bela/projects/SOFAlizer-for-Bela/render.cpp:223:4
	add	r3, r1, #24
	.loc	13 223 58               @ /root/Bela/projects/SOFAlizer-for-Bela/render.cpp:223:58
	ldr	r2, [r4, #16]
	.loc	13 223 4                @ /root/Bela/projects/SOFAlizer-for-Bela/render.cpp:223:4
	str	r0, [sp]
	add	r0, r4, #40
	bl	_Z33filtering_multiple_positions_neonRSt6vectorI8HRTFDataSaIS0_EEPK8CircBuffjPS4_j
	.loc	13 228 20 is_stmt 1     @ /root/Bela/projects/SOFAlizer-for-Bela/render.cpp:228:20
	ldr	r0, [r4, #8]
	.loc	13 228 34 is_stmt 0     @ /root/Bela/projects/SOFAlizer-for-Bela/render.cpp:228:34
	add	r0, r0, #256
	.loc	13 228 41               @ /root/Bela/projects/SOFAlizer-for-Bela/render.cpp:228:41
	bfc	r0, #10, #22
	.loc	13 228 17               @ /root/Bela/projects/SOFAlizer-for-Bela/render.cpp:228:17
	str	r0, [r4, #8]
	.loc	13 229 2 is_stmt 1      @ /root/Bela/projects/SOFAlizer-for-Bela/render.cpp:229:2
	sub	sp, r11, #8
	pop	{r4, r10, r11, pc}
.Ltmp344:
.Lfunc_end5:
	.size	_Z16filtering_threadPv, .Lfunc_end5-_Z16filtering_threadPv
	.cfi_endproc
	.fnend

	.globl	render
	.p2align	2
	.type	render,%function
render:                                 @ @render
.Lfunc_begin6:
	.loc	13 234 0                @ /root/Bela/projects/SOFAlizer-for-Bela/render.cpp:234:0
	.fnstart
	.cfi_startproc
@ BB#0:
	.save	{r4, r5, r6, r7, r8, r9, r10, r11, lr}
	push	{r4, r5, r6, r7, r8, r9, r10, r11, lr}
.Ltmp345:
	.cfi_def_cfa_offset 36
.Ltmp346:
	.cfi_offset lr, -4
.Ltmp347:
	.cfi_offset r11, -8
.Ltmp348:
	.cfi_offset r10, -12
.Ltmp349:
	.cfi_offset r9, -16
.Ltmp350:
	.cfi_offset r8, -20
.Ltmp351:
	.cfi_offset r7, -24
.Ltmp352:
	.cfi_offset r6, -28
.Ltmp353:
	.cfi_offset r5, -32
.Ltmp354:
	.cfi_offset r4, -36
	.setfp	r11, sp, #28
	add	r11, sp, #28
.Ltmp355:
	.cfi_def_cfa r11, 8
	.pad	#4
	sub	sp, sp, #4
	.vsave	{d8, d9, d10}
	vpush	{d8, d9, d10}
.Ltmp356:
	.cfi_offset d10, -48
.Ltmp357:
	.cfi_offset d9, -56
.Ltmp358:
	.cfi_offset d8, -64
	@DEBUG_VALUE: render:context <- %R0
	@DEBUG_VALUE: render:userData <- %R1
	mov	r4, r0
.Ltmp359:
	@DEBUG_VALUE: i <- 0
	@DEBUG_VALUE: render:context <- %R4
	.loc	13 235 40 prologue_end discriminator 1 @ /root/Bela/projects/SOFAlizer-for-Bela/render.cpp:235:40
	ldr	r0, [r4, #20]
	.loc	13 235 2 is_stmt 0 discriminator 1 @ /root/Bela/projects/SOFAlizer-for-Bela/render.cpp:235:2
	cmp	r0, #0
	beq	.LBB6_11
.Ltmp360:
@ BB#1:                                 @ %.lr.ph
	@DEBUG_VALUE: render:context <- %R4
	@DEBUG_VALUE: render:userData <- %R1
	.loc	13 257 11 is_stmt 1     @ /root/Bela/projects/SOFAlizer-for-Bela/render.cpp:257:11
	vmov.f32	d8, #5.000000e-01
.Ltmp361:
	.loc	10 781 32               @ /usr/bin/../lib/gcc/arm-linux-gnueabihf/6.3.0/../../../../include/c++/6.3.0/bits/stl_vector.h:781:32
	movw	r10, :lower16:.L_MergedGlobals.3
.Ltmp362:
	.loc	13 238 16               @ /root/Bela/projects/SOFAlizer-for-Bela/render.cpp:238:16
	movw	r5, :lower16:.L_MergedGlobals
.Ltmp363:
	.loc	13 359 18               @ /root/Bela/projects/SOFAlizer-for-Bela/render.cpp:359:18
	movw	r8, :lower16:.L_MergedGlobals.4
	mov	r9, #0
.Ltmp364:
	.loc	10 781 32               @ /usr/bin/../lib/gcc/arm-linux-gnueabihf/6.3.0/../../../../include/c++/6.3.0/bits/stl_vector.h:781:32
	movt	r10, :upper16:.L_MergedGlobals.3
.Ltmp365:
	.loc	13 238 16               @ /root/Bela/projects/SOFAlizer-for-Bela/render.cpp:238:16
	movt	r5, :upper16:.L_MergedGlobals
.Ltmp366:
	.loc	13 359 18               @ /root/Bela/projects/SOFAlizer-for-Bela/render.cpp:359:18
	movt	r8, :upper16:.L_MergedGlobals.4
	mov	r6, #0
.Ltmp367:
.LBB6_2:                                @ =>This Inner Loop Header: Depth=1
	ldr	r1, [r4, #24]
	ldr	r0, [r4]
.Ltmp368:
	.loc	10 781 32               @ /usr/bin/../lib/gcc/arm-linux-gnueabihf/6.3.0/../../../../include/c++/6.3.0/bits/stl_vector.h:781:32
	ldr	r2, [r10]
.Ltmp369:
	.loc	30 1444 32              @ ./include/Bela.h:1444:32
	mul	r1, r1, r6
.Ltmp370:
	.loc	13 238 16               @ /root/Bela/projects/SOFAlizer-for-Bela/render.cpp:238:16
	ldr	r3, [r5, #4]
.Ltmp371:
	@DEBUG_VALUE: operator[]:__n <- %R3
	@DEBUG_VALUE: operator[]:__n <- %R3
	.loc	30 1444 9               @ ./include/Bela.h:1444:9
	ldr	r1, [r0, r1, lsl #2]!
.Ltmp372:
	.loc	13 238 29               @ /root/Bela/projects/SOFAlizer-for-Bela/render.cpp:238:29
	str	r1, [r2, r3, lsl #2]
.Ltmp373:
	.loc	10 781 32               @ /usr/bin/../lib/gcc/arm-linux-gnueabihf/6.3.0/../../../../include/c++/6.3.0/bits/stl_vector.h:781:32
	ldr	r1, [r10, #12]
.Ltmp374:
	.loc	30 1444 9               @ ./include/Bela.h:1444:9
	ldr	r0, [r0, #4]
.Ltmp375:
	.loc	13 239 30               @ /root/Bela/projects/SOFAlizer-for-Bela/render.cpp:239:30
	str	r0, [r1, r3, lsl #2]
	.loc	13 242 14               @ /root/Bela/projects/SOFAlizer-for-Bela/render.cpp:242:14
	add	r0, r3, #1
.Ltmp376:
	.loc	13 284 25               @ /root/Bela/projects/SOFAlizer-for-Bela/render.cpp:284:25
	cmp	r9, r0, lsr #10
.Ltmp377:
	.loc	10 781 32               @ /usr/bin/../lib/gcc/arm-linux-gnueabihf/6.3.0/../../../../include/c++/6.3.0/bits/stl_vector.h:781:32
	ldr	r2, [r10, #24]
.Ltmp378:
	.loc	13 284 25               @ /root/Bela/projects/SOFAlizer-for-Bela/render.cpp:284:25
	movwne	r0, #0
.Ltmp379:
	.loc	10 781 32               @ /usr/bin/../lib/gcc/arm-linux-gnueabihf/6.3.0/../../../../include/c++/6.3.0/bits/stl_vector.h:781:32
	ldr	r3, [r10, #36]
.Ltmp380:
	.loc	13 244 16               @ /root/Bela/projects/SOFAlizer-for-Bela/render.cpp:244:16
	str	r0, [r5, #4]
.Ltmp381:
	.loc	13 248 33               @ /root/Bela/projects/SOFAlizer-for-Bela/render.cpp:248:33
	ldr	r1, [r5, #12]
.Ltmp382:
	@DEBUG_VALUE: operator[]:__n <- %R1
	@DEBUG_VALUE: operator[]:__n <- %R1
	@DEBUG_VALUE: operator[]:__n <- %R1
	@DEBUG_VALUE: operator[]:__n <- %R1
	.loc	10 781 41               @ /usr/bin/../lib/gcc/arm-linux-gnueabihf/6.3.0/../../../../include/c++/6.3.0/bits/stl_vector.h:781:41
	add	r7, r2, r1, lsl #2
.Ltmp383:
	.loc	13 248 19               @ /root/Bela/projects/SOFAlizer-for-Bela/render.cpp:248:19
	vldr	s0, [r7]
.Ltmp384:
	@DEBUG_VALUE: leftOut <- %S0
	.loc	10 781 41               @ /usr/bin/../lib/gcc/arm-linux-gnueabihf/6.3.0/../../../../include/c++/6.3.0/bits/stl_vector.h:781:41
	add	r7, r3, r1, lsl #2
.Ltmp385:
	.loc	13 249 20               @ /root/Bela/projects/SOFAlizer-for-Bela/render.cpp:249:20
	vldr	s2, [r7]
.Ltmp386:
	@DEBUG_VALUE: rightOut <- %S2
	@DEBUG_VALUE: factor <- 5.000000e-01
	.loc	13 257 11               @ /root/Bela/projects/SOFAlizer-for-Bela/render.cpp:257:11
	vmul.f32	d10, d0, d8
	.loc	13 252 30               @ /root/Bela/projects/SOFAlizer-for-Bela/render.cpp:252:30
	str	r9, [r2, r1, lsl #2]
	.loc	13 261 14               @ /root/Bela/projects/SOFAlizer-for-Bela/render.cpp:261:14
	add	r2, r1, #1
	.loc	13 258 12               @ /root/Bela/projects/SOFAlizer-for-Bela/render.cpp:258:12
	vmul.f32	d9, d1, d8
	.loc	13 262 7                @ /root/Bela/projects/SOFAlizer-for-Bela/render.cpp:262:7
	cmp	r9, r2, lsr #10
	.loc	13 253 31               @ /root/Bela/projects/SOFAlizer-for-Bela/render.cpp:253:31
	str	r9, [r3, r1, lsl #2]
	.loc	13 262 7                @ /root/Bela/projects/SOFAlizer-for-Bela/render.cpp:262:7
	movwne	r2, #0
.Ltmp387:
	.loc	13 263 16               @ /root/Bela/projects/SOFAlizer-for-Bela/render.cpp:263:16
	str	r2, [r5, #12]
.Ltmp388:
	.loc	13 281 9                @ /root/Bela/projects/SOFAlizer-for-Bela/render.cpp:281:9
	ldr	r1, [r5, #20]
.Ltmp389:
	add	r1, r1, #1
	str	r1, [r5, #20]
.Ltmp390:
	@DEBUG_VALUE: rightOut <- %S18
	@DEBUG_VALUE: leftOut <- %S20
	.loc	13 282 7                @ /root/Bela/projects/SOFAlizer-for-Bela/render.cpp:282:7
	cmp	r1, #256
	blo	.LBB6_4
.Ltmp391:
@ BB#3:                                 @   in Loop: Header=BB6_2 Depth=1
	@DEBUG_VALUE: leftOut <- %S20
	@DEBUG_VALUE: rightOut <- %S18
	.loc	13 284 23               @ /root/Bela/projects/SOFAlizer-for-Bela/render.cpp:284:23
	str	r0, [r5, #16]
	str	r9, [r5, #20]
	.loc	13 286 32               @ /root/Bela/projects/SOFAlizer-for-Bela/render.cpp:286:32
	ldr	r0, [r5, #36]
	.loc	13 286 5 is_stmt 0      @ /root/Bela/projects/SOFAlizer-for-Bela/render.cpp:286:5
	bl	Bela_scheduleAuxiliaryTask
.Ltmp392:
.LBB6_4:                                @   in Loop: Header=BB6_2 Depth=1
	@DEBUG_VALUE: leftOut <- %S20
	@DEBUG_VALUE: rightOut <- %S18
	ldr	r1, [r4, #28]
	ldr	r0, [r4, #4]
.Ltmp393:
	.loc	30 1455 26 is_stmt 1    @ ./include/Bela.h:1455:26
	mul	r1, r1, r6
	add	r0, r0, r1, lsl #2
	.loc	30 1455 65 is_stmt 0    @ ./include/Bela.h:1455:65
	vstr	s20, [r0]
.Ltmp394:
	.loc	30 1455 65              @ ./include/Bela.h:1455:65
	vstr	s18, [r0, #4]
.Ltmp395:
	.loc	13 341 7 is_stmt 1      @ /root/Bela/projects/SOFAlizer-for-Bela/render.cpp:341:7
	ldr	r1, [r5, #28]
	.loc	13 341 19 is_stmt 0     @ /root/Bela/projects/SOFAlizer-for-Bela/render.cpp:341:19
	ldr	r0, [r5, #32]
.Ltmp396:
	.loc	13 341 7                @ /root/Bela/projects/SOFAlizer-for-Bela/render.cpp:341:7
	cmp	r1, r0
	beq	.LBB6_6
.Ltmp397:
@ BB#5:                                 @   in Loop: Header=BB6_2 Depth=1
	@DEBUG_VALUE: leftOut <- %S20
	@DEBUG_VALUE: rightOut <- %S18
	.loc	13 345 18 is_stmt 1     @ /root/Bela/projects/SOFAlizer-for-Bela/render.cpp:345:18
	mov	r0, r8
	bl	_ZN12OSCinterface13send_hrtf_numEj
	.loc	13 346 41               @ /root/Bela/projects/SOFAlizer-for-Bela/render.cpp:346:41
	ldr	r0, [r5, #28]
.Ltmp398:
	@DEBUG_VALUE: operator[]:__n <- %R0
	.loc	13 346 32 is_stmt 0     @ /root/Bela/projects/SOFAlizer-for-Bela/render.cpp:346:32
	mov	r2, #164
.Ltmp399:
	.loc	10 781 32 is_stmt 1     @ /usr/bin/../lib/gcc/arm-linux-gnueabihf/6.3.0/../../../../include/c++/6.3.0/bits/stl_vector.h:781:32
	ldr	r1, [r5, #40]
.Ltmp400:
	.loc	13 346 32               @ /root/Bela/projects/SOFAlizer-for-Bela/render.cpp:346:32
	mla	r1, r0, r2, r1
	.loc	13 346 18 is_stmt 0 discriminator 1 @ /root/Bela/projects/SOFAlizer-for-Bela/render.cpp:346:18
	mov	r0, r8
.Ltmp401:
	bl	_ZN12OSCinterface13send_filenameEPc
	.loc	13 349 20 is_stmt 1     @ /root/Bela/projects/SOFAlizer-for-Bela/render.cpp:349:20
	ldr	r0, [r5, #28]
	.loc	13 349 18 is_stmt 0     @ /root/Bela/projects/SOFAlizer-for-Bela/render.cpp:349:18
	str	r0, [r5, #32]
.Ltmp402:
.LBB6_6:                                @   in Loop: Header=BB6_2 Depth=1
	@DEBUG_VALUE: leftOut <- %S20
	@DEBUG_VALUE: rightOut <- %S18
	.loc	13 354 8 is_stmt 1      @ /root/Bela/projects/SOFAlizer-for-Bela/render.cpp:354:8
	ldrb	r0, [r5]
.Ltmp403:
	.loc	13 354 8 is_stmt 0      @ /root/Bela/projects/SOFAlizer-for-Bela/render.cpp:354:8
	cmp	r0, #0
	beq	.LBB6_8
.Ltmp404:
@ BB#7:                                 @   in Loop: Header=BB6_2 Depth=1
	@DEBUG_VALUE: leftOut <- %S20
	@DEBUG_VALUE: rightOut <- %S18
	.loc	13 355 18 is_stmt 1     @ /root/Bela/projects/SOFAlizer-for-Bela/render.cpp:355:18
	mov	r0, r8
	bl	_ZN12OSCinterface14get_angle_pos0Ev
	.loc	13 356 16               @ /root/Bela/projects/SOFAlizer-for-Bela/render.cpp:356:16
	strb	r9, [r5]
.Ltmp405:
.LBB6_8:                                @   in Loop: Header=BB6_2 Depth=1
	@DEBUG_VALUE: leftOut <- %S20
	@DEBUG_VALUE: rightOut <- %S18
	.loc	13 358 8                @ /root/Bela/projects/SOFAlizer-for-Bela/render.cpp:358:8
	ldrb	r0, [r5, #1]
.Ltmp406:
	.loc	13 358 8 is_stmt 0      @ /root/Bela/projects/SOFAlizer-for-Bela/render.cpp:358:8
	cmp	r0, #0
	beq	.LBB6_10
.Ltmp407:
@ BB#9:                                 @   in Loop: Header=BB6_2 Depth=1
	@DEBUG_VALUE: leftOut <- %S20
	@DEBUG_VALUE: rightOut <- %S18
	.loc	13 359 18 is_stmt 1     @ /root/Bela/projects/SOFAlizer-for-Bela/render.cpp:359:18
	mov	r0, r8
	bl	_ZN12OSCinterface14get_angle_pos1Ev
	.loc	13 360 16               @ /root/Bela/projects/SOFAlizer-for-Bela/render.cpp:360:16
	strb	r9, [r5, #1]
.Ltmp408:
.LBB6_10:                               @   in Loop: Header=BB6_2 Depth=1
	@DEBUG_VALUE: leftOut <- %S20
	@DEBUG_VALUE: rightOut <- %S18
	.loc	13 235 54 discriminator 3 @ /root/Bela/projects/SOFAlizer-for-Bela/render.cpp:235:54
	add	r6, r6, #1
.Ltmp409:
	@DEBUG_VALUE: i <- %R6
	.loc	13 235 40 is_stmt 0 discriminator 1 @ /root/Bela/projects/SOFAlizer-for-Bela/render.cpp:235:40
	ldr	r0, [r4, #20]
	.loc	13 235 2 discriminator 1 @ /root/Bela/projects/SOFAlizer-for-Bela/render.cpp:235:2
	cmp	r6, r0
	blo	.LBB6_2
.Ltmp410:
.LBB6_11:                               @ %._crit_edge
	.loc	13 364 1 is_stmt 1      @ /root/Bela/projects/SOFAlizer-for-Bela/render.cpp:364:1
	vpop	{d8, d9, d10}
	add	sp, sp, #4
	pop	{r4, r5, r6, r7, r8, r9, r10, r11, pc}
.Ltmp411:
.Lfunc_end6:
	.size	render, .Lfunc_end6-render
	.cfi_endproc
	.fnend

	.globl	cleanup
	.p2align	2
	.type	cleanup,%function
cleanup:                                @ @cleanup
.Lfunc_begin7:
	.loc	13 371 0                @ /root/Bela/projects/SOFAlizer-for-Bela/render.cpp:371:0
	.fnstart
	.cfi_startproc
@ BB#0:
	.save	{r4, r5, r6, r7, r11, lr}
	push	{r4, r5, r6, r7, r11, lr}
.Ltmp412:
	.cfi_def_cfa_offset 24
.Ltmp413:
	.cfi_offset lr, -4
.Ltmp414:
	.cfi_offset r11, -8
.Ltmp415:
	.cfi_offset r7, -12
.Ltmp416:
	.cfi_offset r6, -16
.Ltmp417:
	.cfi_offset r5, -20
.Ltmp418:
	.cfi_offset r4, -24
	.setfp	r11, sp, #16
	add	r11, sp, #16
.Ltmp419:
	.cfi_def_cfa r11, 8
	@DEBUG_VALUE: cleanup:context <- %R0
	@DEBUG_VALUE: cleanup:userData <- %R1
.Ltmp420:
	@DEBUG_VALUE: i <- 0
	.loc	10 656 40 prologue_end  @ /usr/bin/../lib/gcc/arm-linux-gnueabihf/6.3.0/../../../../include/c++/6.3.0/bits/stl_vector.h:656:40
	movw	r4, :lower16:.L_MergedGlobals
	movt	r4, :upper16:.L_MergedGlobals
	.loc	10 656 66 is_stmt 0     @ /usr/bin/../lib/gcc/arm-linux-gnueabihf/6.3.0/../../../../include/c++/6.3.0/bits/stl_vector.h:656:66
	ldrd	r0, r1, [r4, #40]
.Ltmp421:
	.loc	13 373 2 is_stmt 1 discriminator 1 @ /root/Bela/projects/SOFAlizer-for-Bela/render.cpp:373:2
	cmp	r1, r0
.Ltmp422:
	.loc	13 382 1                @ /root/Bela/projects/SOFAlizer-for-Bela/render.cpp:382:1
	popeq	{r4, r5, r6, r7, r11, pc}
.Ltmp423:
	.loc	10 656 50               @ /usr/bin/../lib/gcc/arm-linux-gnueabihf/6.3.0/../../../../include/c++/6.3.0/bits/stl_vector.h:656:50
	movw	r6, #39961
	mov	r5, #0
	movt	r6, #49551
	mov	r7, #0
.Ltmp424:
.LBB7_1:                                @ %.lr.ph
                                        @ =>This Inner Loop Header: Depth=1
	@DEBUG_VALUE: operator[]:__n <- %R7
	.loc	13 374 15 discriminator 1 @ /root/Bela/projects/SOFAlizer-for-Bela/render.cpp:374:15
	add	r0, r0, r5
	bl	_ZN8HRTFData11unload_sofaEv
.Ltmp425:
	.loc	10 781 32               @ /usr/bin/../lib/gcc/arm-linux-gnueabihf/6.3.0/../../../../include/c++/6.3.0/bits/stl_vector.h:781:32
	ldr	r0, [r4, #40]
.Ltmp426:
	.loc	13 379 16 discriminator 1 @ /root/Bela/projects/SOFAlizer-for-Bela/render.cpp:379:16
	add	r0, r0, r5
	bl	_ZN8HRTFData16deallocateFDdataEv
.Ltmp427:
	.loc	10 656 66               @ /usr/bin/../lib/gcc/arm-linux-gnueabihf/6.3.0/../../../../include/c++/6.3.0/bits/stl_vector.h:656:66
	ldrd	r0, r1, [r4, #40]
.Ltmp428:
	.loc	13 373 29 discriminator 1 @ /root/Bela/projects/SOFAlizer-for-Bela/render.cpp:373:29
	add	r5, r5, #164
	.loc	13 373 49 is_stmt 0 discriminator 3 @ /root/Bela/projects/SOFAlizer-for-Bela/render.cpp:373:49
	add	r7, r7, #1
.Ltmp429:
	@DEBUG_VALUE: i <- %R7
	.loc	10 656 50 is_stmt 1     @ /usr/bin/../lib/gcc/arm-linux-gnueabihf/6.3.0/../../../../include/c++/6.3.0/bits/stl_vector.h:656:50
	sub	r1, r1, r0
	asr	r1, r1, #2
	mul	r1, r1, r6
.Ltmp430:
	.loc	13 373 2 discriminator 1 @ /root/Bela/projects/SOFAlizer-for-Bela/render.cpp:373:2
	cmp	r7, r1
	blo	.LBB7_1
.Ltmp431:
@ BB#2:                                 @ %._crit_edge
	@DEBUG_VALUE: i <- %R7
	.loc	13 382 1                @ /root/Bela/projects/SOFAlizer-for-Bela/render.cpp:382:1
	pop	{r4, r5, r6, r7, r11, pc}
.Ltmp432:
.Lfunc_end7:
	.size	cleanup, .Lfunc_end7-cleanup
	.cfi_endproc
	.fnend

	.section	.text.__clang_call_terminate,"axG",%progbits,__clang_call_terminate,comdat
	.hidden	__clang_call_terminate
	.weak	__clang_call_terminate
	.p2align	2
	.type	__clang_call_terminate,%function
__clang_call_terminate:                 @ @__clang_call_terminate
.Lfunc_begin8:
	.fnstart
	.cfi_startproc
@ BB#0:
	.save	{r11, lr}
	push	{r11, lr}
.Ltmp433:
	.cfi_def_cfa_offset 8
.Ltmp434:
	.cfi_offset lr, -4
.Ltmp435:
	.cfi_offset r11, -8
	bl	__cxa_begin_catch
	mov	lr, pc
	b	_ZSt9terminatev
.Lfunc_end8:
	.size	__clang_call_terminate, .Lfunc_end8-__clang_call_terminate
	.cfi_endproc
	.cantunwind
	.fnend

	.section	.text._ZNSt6vectorIfSaIfEE17_M_default_appendEj,"axG",%progbits,_ZNSt6vectorIfSaIfEE17_M_default_appendEj,comdat
	.weak	_ZNSt6vectorIfSaIfEE17_M_default_appendEj
	.p2align	2
	.type	_ZNSt6vectorIfSaIfEE17_M_default_appendEj,%function
_ZNSt6vectorIfSaIfEE17_M_default_appendEj: @ @_ZNSt6vectorIfSaIfEE17_M_default_appendEj
.Lfunc_begin9:
	.file	58 "/usr/bin/../lib/gcc/arm-linux-gnueabihf/6.3.0/../../../../include/c++/6.3.0/bits" "vector.tcc"
	.loc	58 542 0                @ /usr/bin/../lib/gcc/arm-linux-gnueabihf/6.3.0/../../../../include/c++/6.3.0/bits/vector.tcc:542:0
	.fnstart
	.cfi_startproc
@ BB#0:
	.save	{r4, r5, r6, r7, r8, r10, r11, lr}
	push	{r4, r5, r6, r7, r8, r10, r11, lr}
.Ltmp436:
	.cfi_def_cfa_offset 32
.Ltmp437:
	.cfi_offset lr, -4
.Ltmp438:
	.cfi_offset r11, -8
.Ltmp439:
	.cfi_offset r10, -12
.Ltmp440:
	.cfi_offset r8, -16
.Ltmp441:
	.cfi_offset r7, -20
.Ltmp442:
	.cfi_offset r6, -24
.Ltmp443:
	.cfi_offset r5, -28
.Ltmp444:
	.cfi_offset r4, -32
	.setfp	r11, sp, #24
	add	r11, sp, #24
.Ltmp445:
	.cfi_def_cfa r11, 8
	@DEBUG_VALUE: _M_default_append:this <- %R0
	@DEBUG_VALUE: _M_default_append:__n <- %R1
	mov	r5, r1
.Ltmp446:
	@DEBUG_VALUE: _M_default_append:__n <- %R5
	mov	r4, r0
.Ltmp447:
	@DEBUG_VALUE: _M_default_append:this <- %R4
	.loc	58 543 11 prologue_end  @ /usr/bin/../lib/gcc/arm-linux-gnueabihf/6.3.0/../../../../include/c++/6.3.0/bits/vector.tcc:543:11
	cmp	r5, #0
	beq	.LBB9_11
.Ltmp448:
@ BB#1:
	@DEBUG_VALUE: _M_default_append:this <- %R4
	@DEBUG_VALUE: _M_default_append:__n <- %R5
	@DEBUG_VALUE: __fill_n_a<float *, unsigned int, float>:__first <- %R7
	@DEBUG_VALUE: fill_n<float *, unsigned int, float>:__first <- %R7
	@DEBUG_VALUE: __uninit_default_n<float *, unsigned int>:__first <- %R7
	@DEBUG_VALUE: __uninitialized_default_n<float *, unsigned int>:__first <- %R7
	@DEBUG_VALUE: __uninitialized_default_n_a<float *, unsigned int, float>:__first <- %R7
	.loc	58 546 20               @ /usr/bin/../lib/gcc/arm-linux-gnueabihf/6.3.0/../../../../include/c++/6.3.0/bits/vector.tcc:546:20
	ldr	r7, [r4, #4]
.Ltmp449:
	.loc	58 545 32               @ /usr/bin/../lib/gcc/arm-linux-gnueabihf/6.3.0/../../../../include/c++/6.3.0/bits/vector.tcc:545:32
	ldr	r0, [r4, #8]
	.loc	58 546 4                @ /usr/bin/../lib/gcc/arm-linux-gnueabihf/6.3.0/../../../../include/c++/6.3.0/bits/vector.tcc:546:4
	sub	r0, r0, r7
	asr	r0, r0, #2
.Ltmp450:
	.loc	58 545 8                @ /usr/bin/../lib/gcc/arm-linux-gnueabihf/6.3.0/../../../../include/c++/6.3.0/bits/vector.tcc:545:8
	cmp	r0, r5
	bhs	.LBB9_12
.Ltmp451:
@ BB#2:
	@DEBUG_VALUE: _M_default_append:this <- %R4
	@DEBUG_VALUE: _M_default_append:__n <- %R5
	@DEBUG_VALUE: size:this <- %R4
	.loc	10 656 66               @ /usr/bin/../lib/gcc/arm-linux-gnueabihf/6.3.0/../../../../include/c++/6.3.0/bits/stl_vector.h:656:66
	ldr	r1, [r4]
.Ltmp452:
	.loc	10 1422 17              @ /usr/bin/../lib/gcc/arm-linux-gnueabihf/6.3.0/../../../../include/c++/6.3.0/bits/stl_vector.h:1422:17
	mvn	r8, #-1073741824
.Ltmp453:
	.loc	10 656 50               @ /usr/bin/../lib/gcc/arm-linux-gnueabihf/6.3.0/../../../../include/c++/6.3.0/bits/stl_vector.h:656:50
	sub	r0, r7, r1
.Ltmp454:
	.loc	10 1422 17              @ /usr/bin/../lib/gcc/arm-linux-gnueabihf/6.3.0/../../../../include/c++/6.3.0/bits/stl_vector.h:1422:17
	sub	r2, r8, r0, asr #2
.Ltmp455:
	@DEBUG_VALUE: _M_check_len:__n <- %R5
	.loc	10 1422 6 is_stmt 0     @ /usr/bin/../lib/gcc/arm-linux-gnueabihf/6.3.0/../../../../include/c++/6.3.0/bits/stl_vector.h:1422:6
	cmp	r2, r5
	blo	.LBB9_13
.Ltmp456:
@ BB#3:                                 @ %_ZNKSt6vectorIfSaIfEE12_M_check_lenEjPKc.exit
	@DEBUG_VALUE: _M_check_len:__n <- %R5
	@DEBUG_VALUE: size:this <- %R4
	@DEBUG_VALUE: _M_default_append:this <- %R4
	@DEBUG_VALUE: _M_default_append:__n <- %R5
	.loc	10 656 50 is_stmt 1     @ /usr/bin/../lib/gcc/arm-linux-gnueabihf/6.3.0/../../../../include/c++/6.3.0/bits/stl_vector.h:656:50
	asr	r0, r0, #2
.Ltmp457:
	.loc	10 1425 35              @ /usr/bin/../lib/gcc/arm-linux-gnueabihf/6.3.0/../../../../include/c++/6.3.0/bits/stl_vector.h:1425:35
	cmp	r0, r5
	mov	r2, r0
	mov	r6, #0
	movlo	r2, r5
	add	r0, r2, r0
	.loc	10 1426 25              @ /usr/bin/../lib/gcc/arm-linux-gnueabihf/6.3.0/../../../../include/c++/6.3.0/bits/stl_vector.h:1426:25
	cmp	r6, r0, lsr #30
	mov	r3, r0
	mvnne	r3, #-1073741824
	cmp	r0, r2
	movhs	r8, r3
.Ltmp458:
	@DEBUG_VALUE: _M_allocate:__n <- %R8
	@DEBUG_VALUE: __len <- %R8
	@DEBUG_VALUE: allocate:__n <- %R8
	@DEBUG_VALUE: allocate:__n <- %R8
	.loc	10 170 9                @ /usr/bin/../lib/gcc/arm-linux-gnueabihf/6.3.0/../../../../include/c++/6.3.0/bits/stl_vector.h:170:9
	cmp	r8, #0
.Ltmp459:
	@DEBUG_VALUE: _M_check_len:__len <- %R0
	beq	.LBB9_6
.Ltmp460:
@ BB#4:
	@DEBUG_VALUE: _M_check_len:__len <- %R0
	@DEBUG_VALUE: allocate:__n <- %R8
	@DEBUG_VALUE: allocate:__n <- %R8
	@DEBUG_VALUE: __len <- %R8
	@DEBUG_VALUE: _M_allocate:__n <- %R8
	@DEBUG_VALUE: _M_check_len:__n <- %R5
	@DEBUG_VALUE: size:this <- %R4
	@DEBUG_VALUE: _M_default_append:this <- %R4
	@DEBUG_VALUE: _M_default_append:__n <- %R5
	.loc	6 101 6                 @ /usr/bin/../lib/gcc/arm-linux-gnueabihf/6.3.0/../../../../include/c++/6.3.0/ext/new_allocator.h:101:6
	cmp	r8, #1073741824
	bhs	.LBB9_14
.Ltmp461:
@ BB#5:                                 @ %_ZNSt16allocator_traitsISaIfEE8allocateERS0_j.exit.i
	@DEBUG_VALUE: _M_check_len:__len <- %R0
	@DEBUG_VALUE: allocate:__n <- %R8
	@DEBUG_VALUE: allocate:__n <- %R8
	@DEBUG_VALUE: __len <- %R8
	@DEBUG_VALUE: _M_allocate:__n <- %R8
	@DEBUG_VALUE: _M_check_len:__n <- %R5
	@DEBUG_VALUE: size:this <- %R4
	@DEBUG_VALUE: _M_default_append:this <- %R4
	@DEBUG_VALUE: _M_default_append:__n <- %R5
	.loc	6 104 46                @ /usr/bin/../lib/gcc/arm-linux-gnueabihf/6.3.0/../../../../include/c++/6.3.0/ext/new_allocator.h:104:46
	lsl	r0, r8, #2
.Ltmp462:
	.loc	6 104 27 is_stmt 0      @ /usr/bin/../lib/gcc/arm-linux-gnueabihf/6.3.0/../../../../include/c++/6.3.0/ext/new_allocator.h:104:27
	bl	_Znwj
.Ltmp463:
	.loc	58 563 22 is_stmt 1     @ /usr/bin/../lib/gcc/arm-linux-gnueabihf/6.3.0/../../../../include/c++/6.3.0/bits/vector.tcc:563:22
	ldm	r4, {r1, r7}
.Ltmp464:
	@DEBUG_VALUE: size:this <- %R4
	.loc	6 104 27                @ /usr/bin/../lib/gcc/arm-linux-gnueabihf/6.3.0/../../../../include/c++/6.3.0/ext/new_allocator.h:104:27
	mov	r6, r0
.Ltmp465:
.LBB9_6:                                @ %_ZNSt12_Vector_baseIfSaIfEE11_M_allocateEj.exit
	@DEBUG_VALUE: allocate:__n <- %R8
	@DEBUG_VALUE: allocate:__n <- %R8
	@DEBUG_VALUE: __len <- %R8
	@DEBUG_VALUE: _M_allocate:__n <- %R8
	@DEBUG_VALUE: _M_check_len:__n <- %R5
	@DEBUG_VALUE: size:this <- %R4
	@DEBUG_VALUE: _M_default_append:this <- %R4
	@DEBUG_VALUE: _M_default_append:__n <- %R5
	@DEBUG_VALUE: __uninitialized_move_if_noexcept_a<float *, float *, std::allocator<float> >:__first <- %R1
	@DEBUG_VALUE: uninitialized_copy<std::move_iterator<float *>, float *>:__assignable <- 1
	@DEBUG_VALUE: __copy_move_a<true, float *, float *>:__simple <- 1
	.file	59 "/usr/bin/../lib/gcc/arm-linux-gnueabihf/6.3.0/../../../../include/c++/6.3.0/bits" "stl_algobase.h"
	.loc	59 366 34               @ /usr/bin/../lib/gcc/arm-linux-gnueabihf/6.3.0/../../../../include/c++/6.3.0/bits/stl_algobase.h:366:34
	sub	r2, r7, r1
	mov	r0, #0
	asr	r7, r2, #2
.Ltmp466:
	@DEBUG_VALUE: __copy_m<float>:_Num <- %R7
	.loc	59 367 8                @ /usr/bin/../lib/gcc/arm-linux-gnueabihf/6.3.0/../../../../include/c++/6.3.0/bits/stl_algobase.h:367:8
	cmp	r0, r2, asr #2
	beq	.LBB9_8
.Ltmp467:
@ BB#7:
	@DEBUG_VALUE: __copy_m<float>:_Num <- %R7
	@DEBUG_VALUE: __uninitialized_move_if_noexcept_a<float *, float *, std::allocator<float> >:__first <- %R1
	@DEBUG_VALUE: allocate:__n <- %R8
	@DEBUG_VALUE: allocate:__n <- %R8
	@DEBUG_VALUE: __len <- %R8
	@DEBUG_VALUE: _M_allocate:__n <- %R8
	@DEBUG_VALUE: _M_check_len:__n <- %R5
	@DEBUG_VALUE: size:this <- %R4
	@DEBUG_VALUE: _M_default_append:this <- %R4
	@DEBUG_VALUE: _M_default_append:__n <- %R5
	.loc	59 368 6                @ /usr/bin/../lib/gcc/arm-linux-gnueabihf/6.3.0/../../../../include/c++/6.3.0/bits/stl_algobase.h:368:6
	mov	r0, r6
	bl	memmove
.Ltmp468:
	@DEBUG_VALUE: __uninitialized_move_if_noexcept_a<float *, float *, std::allocator<float> >:__result <- %R6
.LBB9_8:
	@DEBUG_VALUE: __copy_m<float>:_Num <- %R7
	@DEBUG_VALUE: allocate:__n <- %R8
	@DEBUG_VALUE: allocate:__n <- %R8
	@DEBUG_VALUE: __len <- %R8
	@DEBUG_VALUE: _M_allocate:__n <- %R8
	@DEBUG_VALUE: _M_check_len:__n <- %R5
	@DEBUG_VALUE: size:this <- %R4
	@DEBUG_VALUE: _M_default_append:this <- %R4
	@DEBUG_VALUE: _M_default_append:__n <- %R5
	.loc	59 369 20               @ /usr/bin/../lib/gcc/arm-linux-gnueabihf/6.3.0/../../../../include/c++/6.3.0/bits/stl_algobase.h:369:20
	add	r7, r6, r7, lsl #2
.Ltmp469:
	@DEBUG_VALUE: __niter <- %R5
	@DEBUG_VALUE: __fill_n_a<float *, unsigned int, float>:__first <- %R7
	@DEBUG_VALUE: fill_n<float *, unsigned int, float>:__first <- %R7
	@DEBUG_VALUE: __uninit_default_n<float *, unsigned int>:__first <- %R7
	@DEBUG_VALUE: __uninitialized_default_n<float *, unsigned int>:__assignable <- 1
	@DEBUG_VALUE: __uninitialized_default_n<float *, unsigned int>:__first <- %R7
	@DEBUG_VALUE: __uninitialized_default_n_a<float *, unsigned int, float>:__first <- %R7
	@DEBUG_VALUE: __new_finish <- %R7
	.loc	59 754 11               @ /usr/bin/../lib/gcc/arm-linux-gnueabihf/6.3.0/../../../../include/c++/6.3.0/bits/stl_algobase.h:754:11
	lsl	r2, r5, #2
	mov	r1, #0
	mov	r0, r7
	bl	memset
.Ltmp470:
	.loc	58 578 36               @ /usr/bin/../lib/gcc/arm-linux-gnueabihf/6.3.0/../../../../include/c++/6.3.0/bits/vector.tcc:578:36
	ldr	r0, [r4]
.Ltmp471:
	@DEBUG_VALUE: _M_deallocate:__p <- %R0
	@DEBUG_VALUE: deallocate:__p <- %R0
	@DEBUG_VALUE: deallocate:__p <- %R0
	.loc	59 754 11               @ /usr/bin/../lib/gcc/arm-linux-gnueabihf/6.3.0/../../../../include/c++/6.3.0/bits/stl_algobase.h:754:11
	add	r5, r7, r5, lsl #2
.Ltmp472:
	@DEBUG_VALUE: __new_finish <- %R5
	.loc	10 177 6                @ /usr/bin/../lib/gcc/arm-linux-gnueabihf/6.3.0/../../../../include/c++/6.3.0/bits/stl_vector.h:177:6
	cmp	r0, #0
	beq	.LBB9_10
.Ltmp473:
@ BB#9:
	@DEBUG_VALUE: __new_finish <- %R5
	@DEBUG_VALUE: deallocate:__p <- %R0
	@DEBUG_VALUE: deallocate:__p <- %R0
	@DEBUG_VALUE: _M_deallocate:__p <- %R0
	@DEBUG_VALUE: __uninitialized_default_n_a<float *, unsigned int, float>:__first <- %R7
	@DEBUG_VALUE: __uninitialized_default_n<float *, unsigned int>:__first <- %R7
	@DEBUG_VALUE: __uninit_default_n<float *, unsigned int>:__first <- %R7
	@DEBUG_VALUE: fill_n<float *, unsigned int, float>:__first <- %R7
	@DEBUG_VALUE: __fill_n_a<float *, unsigned int, float>:__first <- %R7
	@DEBUG_VALUE: allocate:__n <- %R8
	@DEBUG_VALUE: allocate:__n <- %R8
	@DEBUG_VALUE: __len <- %R8
	@DEBUG_VALUE: _M_allocate:__n <- %R8
	@DEBUG_VALUE: size:this <- %R4
	@DEBUG_VALUE: _M_default_append:this <- %R4
	.loc	6 110 9                 @ /usr/bin/../lib/gcc/arm-linux-gnueabihf/6.3.0/../../../../include/c++/6.3.0/ext/new_allocator.h:110:9
	bl	_ZdlPv
.Ltmp474:
.LBB9_10:                               @ %_ZNSt12_Vector_baseIfSaIfEE13_M_deallocateEPfj.exit31
	@DEBUG_VALUE: __new_finish <- %R5
	@DEBUG_VALUE: __uninitialized_default_n_a<float *, unsigned int, float>:__first <- %R7
	@DEBUG_VALUE: __uninitialized_default_n<float *, unsigned int>:__first <- %R7
	@DEBUG_VALUE: __uninit_default_n<float *, unsigned int>:__first <- %R7
	@DEBUG_VALUE: fill_n<float *, unsigned int, float>:__first <- %R7
	@DEBUG_VALUE: __fill_n_a<float *, unsigned int, float>:__first <- %R7
	@DEBUG_VALUE: allocate:__n <- %R8
	@DEBUG_VALUE: allocate:__n <- %R8
	@DEBUG_VALUE: __len <- %R8
	@DEBUG_VALUE: _M_allocate:__n <- %R8
	@DEBUG_VALUE: size:this <- %R4
	@DEBUG_VALUE: _M_default_append:this <- %R4
	.loc	58 581 31               @ /usr/bin/../lib/gcc/arm-linux-gnueabihf/6.3.0/../../../../include/c++/6.3.0/bits/vector.tcc:581:31
	str	r6, [r4]
	.loc	58 583 54               @ /usr/bin/../lib/gcc/arm-linux-gnueabihf/6.3.0/../../../../include/c++/6.3.0/bits/vector.tcc:583:54
	add	r0, r6, r8, lsl #2
	.loc	58 582 32               @ /usr/bin/../lib/gcc/arm-linux-gnueabihf/6.3.0/../../../../include/c++/6.3.0/bits/vector.tcc:582:32
	str	r5, [r4, #4]
	.loc	58 583 40               @ /usr/bin/../lib/gcc/arm-linux-gnueabihf/6.3.0/../../../../include/c++/6.3.0/bits/vector.tcc:583:40
	str	r0, [r4, #8]
.Ltmp475:
.LBB9_11:
	@DEBUG_VALUE: _M_default_append:this <- %R4
	.loc	58 586 5 discriminator 2 @ /usr/bin/../lib/gcc/arm-linux-gnueabihf/6.3.0/../../../../include/c++/6.3.0/bits/vector.tcc:586:5
	pop	{r4, r5, r6, r7, r8, r10, r11, pc}
.Ltmp476:
.LBB9_12:                               @ %_ZSt27__uninitialized_default_n_aIPfjfET_S1_T0_RSaIT1_E.exit
	@DEBUG_VALUE: _M_default_append:this <- %R4
	@DEBUG_VALUE: _M_default_append:__n <- %R5
	@DEBUG_VALUE: __uninitialized_default_n<float *, unsigned int>:__assignable <- 1
	@DEBUG_VALUE: __niter <- %R5
	.loc	59 754 11               @ /usr/bin/../lib/gcc/arm-linux-gnueabihf/6.3.0/../../../../include/c++/6.3.0/bits/stl_algobase.h:754:11
	lsl	r2, r5, #2
	mov	r0, r7
	mov	r1, #0
	bl	memset
	add	r0, r7, r5, lsl #2
.Ltmp477:
	.loc	58 548 32               @ /usr/bin/../lib/gcc/arm-linux-gnueabihf/6.3.0/../../../../include/c++/6.3.0/bits/vector.tcc:548:32
	str	r0, [r4, #4]
.Ltmp478:
	.loc	58 586 5 discriminator 2 @ /usr/bin/../lib/gcc/arm-linux-gnueabihf/6.3.0/../../../../include/c++/6.3.0/bits/vector.tcc:586:5
	pop	{r4, r5, r6, r7, r8, r10, r11, pc}
.Ltmp479:
.LBB9_13:
	@DEBUG_VALUE: _M_check_len:__n <- %R5
	@DEBUG_VALUE: size:this <- %R4
	@DEBUG_VALUE: _M_default_append:this <- %R4
	@DEBUG_VALUE: _M_default_append:__n <- %R5
	.loc	10 1423 4               @ /usr/bin/../lib/gcc/arm-linux-gnueabihf/6.3.0/../../../../include/c++/6.3.0/bits/stl_vector.h:1423:4
	movw	r0, :lower16:.L.str.22
	movt	r0, :upper16:.L.str.22
.Ltmp480:
	@DEBUG_VALUE: _M_check_len:__s <- %R0
	mov	lr, pc
	b	_ZSt20__throw_length_errorPKc
.Ltmp481:
.LBB9_14:
	@DEBUG_VALUE: _M_check_len:__len <- %R0
	@DEBUG_VALUE: allocate:__n <- %R8
	@DEBUG_VALUE: allocate:__n <- %R8
	@DEBUG_VALUE: __len <- %R8
	@DEBUG_VALUE: _M_allocate:__n <- %R8
	@DEBUG_VALUE: _M_check_len:__n <- %R5
	@DEBUG_VALUE: size:this <- %R4
	@DEBUG_VALUE: _M_default_append:this <- %R4
	@DEBUG_VALUE: _M_default_append:__n <- %R5
	.loc	6 102 4                 @ /usr/bin/../lib/gcc/arm-linux-gnueabihf/6.3.0/../../../../include/c++/6.3.0/ext/new_allocator.h:102:4
	mov	lr, pc
	b	_ZSt17__throw_bad_allocv
.Ltmp482:
.Lfunc_end9:
	.size	_ZNSt6vectorIfSaIfEE17_M_default_appendEj, .Lfunc_end9-_ZNSt6vectorIfSaIfEE17_M_default_appendEj
	.cfi_endproc
	.file	60 "/usr/bin/../lib/gcc/arm-linux-gnueabihf/6.3.0/../../../../include/c++/6.3.0/bits" "stl_uninitialized.h"
	.file	61 "/usr/bin/../lib/gcc/arm-linux-gnueabihf/6.3.0/../../../../include/c++/6.3.0/ext" "type_traits.h"
	.fnend

	.section	.text._ZNSt17_Function_handlerIFvPN6oscpkt7MessageEPKcPvEPS6_E9_M_invokeERKSt9_Any_dataOS2_OS4_OS5_,"axG",%progbits,_ZNSt17_Function_handlerIFvPN6oscpkt7MessageEPKcPvEPS6_E9_M_invokeERKSt9_Any_dataOS2_OS4_OS5_,comdat
	.weak	_ZNSt17_Function_handlerIFvPN6oscpkt7MessageEPKcPvEPS6_E9_M_invokeERKSt9_Any_dataOS2_OS4_OS5_
	.p2align	2
	.type	_ZNSt17_Function_handlerIFvPN6oscpkt7MessageEPKcPvEPS6_E9_M_invokeERKSt9_Any_dataOS2_OS4_OS5_,%function
_ZNSt17_Function_handlerIFvPN6oscpkt7MessageEPKcPvEPS6_E9_M_invokeERKSt9_Any_dataOS2_OS4_OS5_: @ @_ZNSt17_Function_handlerIFvPN6oscpkt7MessageEPKcPvEPS6_E9_M_invokeERKSt9_Any_dataOS2_OS4_OS5_
.Lfunc_begin10:
	.loc	28 1730 0               @ /usr/bin/../lib/gcc/arm-linux-gnueabihf/6.3.0/../../../../include/c++/6.3.0/functional:1730:0
	.fnstart
	.cfi_startproc
@ BB#0:
	@DEBUG_VALUE: _M_invoke:__functor <- %R0
	@DEBUG_VALUE: _M_invoke:__args <- %R1
	@DEBUG_VALUE: _M_invoke:__args <- %R2
	@DEBUG_VALUE: _M_invoke:__args <- %R3
	@DEBUG_VALUE: _M_get_pointer:__source <- %R0
	@DEBUG_VALUE: _M_access<void (*)(oscpkt::Message *, const char *, void *)>:this <- %R0
	@DEBUG_VALUE: _M_get_pointer:__ptr <- %R0
	.loc	28 1732 6 prologue_end  @ /usr/bin/../lib/gcc/arm-linux-gnueabihf/6.3.0/../../../../include/c++/6.3.0/functional:1732:6
	ldr	r3, [r3]
.Ltmp483:
	ldr	r2, [r2]
.Ltmp484:
	.loc	28 1731 3               @ /usr/bin/../lib/gcc/arm-linux-gnueabihf/6.3.0/../../../../include/c++/6.3.0/functional:1731:3
	ldr	r12, [r0]
	.loc	28 1732 6               @ /usr/bin/../lib/gcc/arm-linux-gnueabihf/6.3.0/../../../../include/c++/6.3.0/functional:1732:6
	ldr	r0, [r1]
.Ltmp485:
	.loc	28 1731 2 discriminator 1 @ /usr/bin/../lib/gcc/arm-linux-gnueabihf/6.3.0/../../../../include/c++/6.3.0/functional:1731:2
	mov	r1, r2
	mov	r2, r3
	bx	r12
.Ltmp486:
.Lfunc_end10:
	.size	_ZNSt17_Function_handlerIFvPN6oscpkt7MessageEPKcPvEPS6_E9_M_invokeERKSt9_Any_dataOS2_OS4_OS5_, .Lfunc_end10-_ZNSt17_Function_handlerIFvPN6oscpkt7MessageEPKcPvEPS6_E9_M_invokeERKSt9_Any_dataOS2_OS4_OS5_
	.cfi_endproc
	.fnend

	.section	.text._ZNSt14_Function_base13_Base_managerIPFvPN6oscpkt7MessageEPKcPvEE10_M_managerERSt9_Any_dataRKSA_St18_Manager_operation,"axG",%progbits,_ZNSt14_Function_base13_Base_managerIPFvPN6oscpkt7MessageEPKcPvEE10_M_managerERSt9_Any_dataRKSA_St18_Manager_operation,comdat
	.weak	_ZNSt14_Function_base13_Base_managerIPFvPN6oscpkt7MessageEPKcPvEE10_M_managerERSt9_Any_dataRKSA_St18_Manager_operation
	.p2align	2
	.type	_ZNSt14_Function_base13_Base_managerIPFvPN6oscpkt7MessageEPKcPvEE10_M_managerERSt9_Any_dataRKSA_St18_Manager_operation,%function
_ZNSt14_Function_base13_Base_managerIPFvPN6oscpkt7MessageEPKcPvEE10_M_managerERSt9_Any_dataRKSA_St18_Manager_operation: @ @_ZNSt14_Function_base13_Base_managerIPFvPN6oscpkt7MessageEPKcPvEE10_M_managerERSt9_Any_dataRKSA_St18_Manager_operation
.Lfunc_begin11:
	.loc	28 1593 0               @ /usr/bin/../lib/gcc/arm-linux-gnueabihf/6.3.0/../../../../include/c++/6.3.0/functional:1593:0
	.fnstart
	.cfi_startproc
@ BB#0:
	@DEBUG_VALUE: _M_manager:__dest <- %R0
	@DEBUG_VALUE: _M_manager:__source <- %R1
	@DEBUG_VALUE: _M_manager:__op <- %R2
	.loc	28 1594 4 prologue_end  @ /usr/bin/../lib/gcc/arm-linux-gnueabihf/6.3.0/../../../../include/c++/6.3.0/functional:1594:4
	cmp	r2, #2
	beq	.LBB11_4
.Ltmp487:
@ BB#1:
	@DEBUG_VALUE: _M_manager:__op <- %R2
	@DEBUG_VALUE: _M_manager:__source <- %R1
	@DEBUG_VALUE: _M_manager:__dest <- %R0
	cmp	r2, #1
	beq	.LBB11_5
.Ltmp488:
@ BB#2:
	@DEBUG_VALUE: _M_manager:__op <- %R2
	@DEBUG_VALUE: _M_manager:__source <- %R1
	@DEBUG_VALUE: _M_manager:__dest <- %R0
	cmp	r2, #0
	bne	.LBB11_6
.Ltmp489:
@ BB#3:
	@DEBUG_VALUE: _M_manager:__op <- %R2
	@DEBUG_VALUE: _M_manager:__source <- %R1
	@DEBUG_VALUE: _M_manager:__dest <- %R0
	@DEBUG_VALUE: _M_access<const std::type_info *>:this <- %R0
	.loc	28 1598 45              @ /usr/bin/../lib/gcc/arm-linux-gnueabihf/6.3.0/../../../../include/c++/6.3.0/functional:1598:45
	movw	r1, :lower16:_ZTIPFvPN6oscpkt7MessageEPKcPvE
.Ltmp490:
	movt	r1, :upper16:_ZTIPFvPN6oscpkt7MessageEPKcPvE
	b	.LBB11_5
.LBB11_4:
	@DEBUG_VALUE: _M_manager:__op <- %R2
.Ltmp491:
	@DEBUG_VALUE: _M_manager:__source <- %R1
	@DEBUG_VALUE: _M_manager:__dest <- %R0
	@DEBUG_VALUE: _M_clone:__source <- %R1
	@DEBUG_VALUE: _M_clone:__dest <- %R0
	.loc	28 1562 49              @ /usr/bin/../lib/gcc/arm-linux-gnueabihf/6.3.0/../../../../include/c++/6.3.0/functional:1562:49
	ldr	r1, [r1]
.Ltmp492:
.LBB11_5:
	@DEBUG_VALUE: _M_manager:__op <- %R2
	@DEBUG_VALUE: _M_manager:__dest <- %R0
	.loc	28 1562 4 is_stmt 0     @ /usr/bin/../lib/gcc/arm-linux-gnueabihf/6.3.0/../../../../include/c++/6.3.0/functional:1562:4
	str	r1, [r0]
.Ltmp493:
.LBB11_6:
	@DEBUG_VALUE: _M_manager:__op <- %R2
	@DEBUG_VALUE: _M_manager:__dest <- %R0
	.loc	28 1613 4 is_stmt 1     @ /usr/bin/../lib/gcc/arm-linux-gnueabihf/6.3.0/../../../../include/c++/6.3.0/functional:1613:4
	mov	r0, #0
	bx	lr
.Ltmp494:
.Lfunc_end11:
	.size	_ZNSt14_Function_base13_Base_managerIPFvPN6oscpkt7MessageEPKcPvEE10_M_managerERSt9_Any_dataRKSA_St18_Manager_operation, .Lfunc_end11-_ZNSt14_Function_base13_Base_managerIPFvPN6oscpkt7MessageEPKcPvEE10_M_managerERSt9_Any_dataRKSA_St18_Manager_operation
	.cfi_endproc
	.fnend

	.section	.text.startup,"ax",%progbits
	.p2align	2
	.type	_GLOBAL__sub_I_render.ii,%function
_GLOBAL__sub_I_render.ii:               @ @_GLOBAL__sub_I_render.ii
.Lfunc_begin12:
	.loc	45 0 0                  @ /root/Bela/projects/SOFAlizer-for-Bela/build/render.cpp:0:0
	.fnstart
	.cfi_startproc
@ BB#0:
	.save	{r4, r5, r6, r7, r8, r10, r11, lr}
	push	{r4, r5, r6, r7, r8, r10, r11, lr}
.Ltmp495:
	.cfi_def_cfa_offset 32
.Ltmp496:
	.cfi_offset lr, -4
.Ltmp497:
	.cfi_offset r11, -8
.Ltmp498:
	.cfi_offset r10, -12
.Ltmp499:
	.cfi_offset r8, -16
.Ltmp500:
	.cfi_offset r7, -20
.Ltmp501:
	.cfi_offset r6, -24
.Ltmp502:
	.cfi_offset r5, -28
.Ltmp503:
	.cfi_offset r4, -32
	.setfp	r11, sp, #24
	add	r11, sp, #24
.Ltmp504:
	.cfi_def_cfa r11, 8
	.vsave	{d8, d9}
	vpush	{d8, d9}
.Ltmp505:
	.cfi_offset d9, -40
.Ltmp506:
	.cfi_offset d8, -48
.Ltmp507:
	.loc	10 87 22 prologue_end   @ /usr/bin/../lib/gcc/arm-linux-gnueabihf/6.3.0/../../../../include/c++/6.3.0/bits/stl_vector.h:87:22
	movw	r5, :lower16:.L_MergedGlobals
.Ltmp508:
	.loc	13 22 23 discriminator 1 @ /root/Bela/projects/SOFAlizer-for-Bela/render.cpp:22:23
	movw	r8, :lower16:__dso_handle
.Ltmp509:
	.loc	10 87 22                @ /usr/bin/../lib/gcc/arm-linux-gnueabihf/6.3.0/../../../../include/c++/6.3.0/bits/stl_vector.h:87:22
	movt	r5, :upper16:.L_MergedGlobals
	mov	r4, #0
	mov	r1, r5
.Ltmp510:
	.loc	13 22 23 discriminator 1 @ /root/Bela/projects/SOFAlizer-for-Bela/render.cpp:22:23
	movw	r0, :lower16:_ZNSt6vectorI8HRTFDataSaIS0_EED2Ev
.Ltmp511:
	.loc	10 87 22                @ /usr/bin/../lib/gcc/arm-linux-gnueabihf/6.3.0/../../../../include/c++/6.3.0/bits/stl_vector.h:87:22
	str	r4, [r1, #40]!
.Ltmp512:
	@DEBUG_VALUE: vector:this <- %R1
	.loc	13 22 23 discriminator 1 @ /root/Bela/projects/SOFAlizer-for-Bela/render.cpp:22:23
	movt	r8, :upper16:__dso_handle
	movt	r0, :upper16:_ZNSt6vectorI8HRTFDataSaIS0_EED2Ev
	mov	r2, r8
.Ltmp513:
	.loc	10 87 34                @ /usr/bin/../lib/gcc/arm-linux-gnueabihf/6.3.0/../../../../include/c++/6.3.0/bits/stl_vector.h:87:34
	str	r4, [r5, #44]
	.loc	10 87 47 is_stmt 0      @ /usr/bin/../lib/gcc/arm-linux-gnueabihf/6.3.0/../../../../include/c++/6.3.0/bits/stl_vector.h:87:47
	str	r4, [r5, #48]
.Ltmp514:
	.loc	13 22 23 is_stmt 1 discriminator 1 @ /root/Bela/projects/SOFAlizer-for-Bela/render.cpp:22:23
	bl	__cxa_atexit
.Ltmp515:
	.loc	13 25 10                @ /root/Bela/projects/SOFAlizer-for-Bela/render.cpp:25:10
	movw	r6, :lower16:.L_MergedGlobals.3
	movt	r6, :upper16:.L_MergedGlobals.3
	add	r0, r6, #48
	bl	_ZN8PositionC1Ev
.Ltmp516:
	.loc	13 26 10                @ /root/Bela/projects/SOFAlizer-for-Bela/render.cpp:26:10
	add	r0, r6, #76
	bl	_ZN8PositionC1Ev
.Ltmp517:
	.loc	10 87 34                @ /usr/bin/../lib/gcc/arm-linux-gnueabihf/6.3.0/../../../../include/c++/6.3.0/bits/stl_vector.h:87:34
	vmov.i32	q4, #0x0
	mov	r0, r6
.Ltmp518:
	.loc	13 33 10 discriminator 1 @ /root/Bela/projects/SOFAlizer-for-Bela/render.cpp:33:10
	movw	r7, :lower16:_ZN8CircBuffD2Ev
.Ltmp519:
	.loc	10 87 34                @ /usr/bin/../lib/gcc/arm-linux-gnueabihf/6.3.0/../../../../include/c++/6.3.0/bits/stl_vector.h:87:34
	str	r4, [r6, #20]
.Ltmp520:
	.loc	13 33 10 discriminator 1 @ /root/Bela/projects/SOFAlizer-for-Bela/render.cpp:33:10
	movt	r7, :upper16:_ZN8CircBuffD2Ev
	mov	r1, r6
.Ltmp521:
	.loc	10 87 34                @ /usr/bin/../lib/gcc/arm-linux-gnueabihf/6.3.0/../../../../include/c++/6.3.0/bits/stl_vector.h:87:34
	vst1.64	{d8, d9}, [r0:128]!
.Ltmp522:
	.loc	13 33 10 discriminator 1 @ /root/Bela/projects/SOFAlizer-for-Bela/render.cpp:33:10
	mov	r2, r8
.Ltmp523:
	.loc	10 87 34                @ /usr/bin/../lib/gcc/arm-linux-gnueabihf/6.3.0/../../../../include/c++/6.3.0/bits/stl_vector.h:87:34
	str	r4, [r0]
.Ltmp524:
	.loc	13 33 10 discriminator 1 @ /root/Bela/projects/SOFAlizer-for-Bela/render.cpp:33:10
	mov	r0, r7
	bl	__cxa_atexit
.Ltmp525:
	@DEBUG_VALUE: CircBuff:this <- %R1
	.loc	10 87 34                @ /usr/bin/../lib/gcc/arm-linux-gnueabihf/6.3.0/../../../../include/c++/6.3.0/bits/stl_vector.h:87:34
	add	r1, r6, #24
.Ltmp526:
	.loc	13 34 10 discriminator 1 @ /root/Bela/projects/SOFAlizer-for-Bela/render.cpp:34:10
	mov	r0, r7
	mov	r2, r8
.Ltmp527:
	.loc	10 87 34                @ /usr/bin/../lib/gcc/arm-linux-gnueabihf/6.3.0/../../../../include/c++/6.3.0/bits/stl_vector.h:87:34
	vst1.64	{d8, d9}, [r1]
	str	r4, [r6, #40]
	str	r4, [r6, #44]
.Ltmp528:
	.loc	13 34 10 discriminator 1 @ /root/Bela/projects/SOFAlizer-for-Bela/render.cpp:34:10
	bl	__cxa_atexit
.Ltmp529:
	.loc	5 68 18                 @ /root/Bela/projects/SOFAlizer-for-Bela/fft.h:68:18
	mov	r1, r5
.Ltmp530:
	.loc	13 46 5 discriminator 1 @ /root/Bela/projects/SOFAlizer-for-Bela/render.cpp:46:5
	movw	r6, :lower16:_ZN3FftD2Ev
.Ltmp531:
	.loc	5 68 18                 @ /root/Bela/projects/SOFAlizer-for-Bela/fft.h:68:18
	str	r4, [r1, #52]!
.Ltmp532:
	.loc	13 46 5 discriminator 1 @ /root/Bela/projects/SOFAlizer-for-Bela/render.cpp:46:5
	movt	r6, :upper16:_ZN3FftD2Ev
	mov	r0, r6
	mov	r2, r8
.Ltmp533:
	.loc	5 69 26                 @ /root/Bela/projects/SOFAlizer-for-Bela/fft.h:69:26
	str	r4, [r5, #56]
	.loc	5 70 29                 @ /root/Bela/projects/SOFAlizer-for-Bela/fft.h:70:29
	str	r4, [r5, #60]
.Ltmp534:
	.loc	13 46 5 discriminator 1 @ /root/Bela/projects/SOFAlizer-for-Bela/render.cpp:46:5
	bl	__cxa_atexit
.Ltmp535:
	.loc	5 68 18                 @ /root/Bela/projects/SOFAlizer-for-Bela/fft.h:68:18
	mov	r1, r5
.Ltmp536:
	.loc	13 47 5 discriminator 1 @ /root/Bela/projects/SOFAlizer-for-Bela/render.cpp:47:5
	mov	r0, r6
.Ltmp537:
	.loc	5 68 18                 @ /root/Bela/projects/SOFAlizer-for-Bela/fft.h:68:18
	str	r4, [r1, #68]!
.Ltmp538:
	.loc	13 47 5 discriminator 1 @ /root/Bela/projects/SOFAlizer-for-Bela/render.cpp:47:5
	mov	r2, r8
.Ltmp539:
	.loc	5 69 26                 @ /root/Bela/projects/SOFAlizer-for-Bela/fft.h:69:26
	str	r4, [r5, #72]
	.loc	5 70 29                 @ /root/Bela/projects/SOFAlizer-for-Bela/fft.h:70:29
	str	r4, [r5, #76]
.Ltmp540:
	.loc	13 47 5 discriminator 1 @ /root/Bela/projects/SOFAlizer-for-Bela/render.cpp:47:5
	bl	__cxa_atexit
.Ltmp541:
	.loc	5 68 18                 @ /root/Bela/projects/SOFAlizer-for-Bela/fft.h:68:18
	mov	r1, r5
.Ltmp542:
	.loc	13 50 5 discriminator 1 @ /root/Bela/projects/SOFAlizer-for-Bela/render.cpp:50:5
	mov	r0, r6
.Ltmp543:
	.loc	5 68 18                 @ /root/Bela/projects/SOFAlizer-for-Bela/fft.h:68:18
	str	r4, [r1, #84]!
.Ltmp544:
	.loc	13 50 5 discriminator 1 @ /root/Bela/projects/SOFAlizer-for-Bela/render.cpp:50:5
	mov	r2, r8
.Ltmp545:
	.loc	5 69 26                 @ /root/Bela/projects/SOFAlizer-for-Bela/fft.h:69:26
	str	r4, [r5, #88]
	.loc	5 70 29                 @ /root/Bela/projects/SOFAlizer-for-Bela/fft.h:70:29
	str	r4, [r5, #92]
.Ltmp546:
	.loc	13 50 5 discriminator 1 @ /root/Bela/projects/SOFAlizer-for-Bela/render.cpp:50:5
	bl	__cxa_atexit
.Ltmp547:
	@DEBUG_VALUE: Fft:this <- %R5
	.loc	5 68 18                 @ /root/Bela/projects/SOFAlizer-for-Bela/fft.h:68:18
	str	r4, [r5, #100]!
.Ltmp548:
	.loc	13 51 5 discriminator 1 @ /root/Bela/projects/SOFAlizer-for-Bela/render.cpp:51:5
	mov	r0, r6
	mov	r2, r8
	mov	r1, r5
.Ltmp549:
	.loc	5 69 26                 @ /root/Bela/projects/SOFAlizer-for-Bela/fft.h:69:26
	str	r4, [r5, #4]
	.loc	5 70 29                 @ /root/Bela/projects/SOFAlizer-for-Bela/fft.h:70:29
	str	r4, [r5, #8]
.Ltmp550:
	.loc	13 51 5 discriminator 1 @ /root/Bela/projects/SOFAlizer-for-Bela/render.cpp:51:5
	bl	__cxa_atexit
.Ltmp551:
	.loc	13 58 15                @ /root/Bela/projects/SOFAlizer-for-Bela/render.cpp:58:15
	movw	r5, :lower16:.L_MergedGlobals.4
	movt	r5, :upper16:.L_MergedGlobals.4
	mov	r0, r5
	bl	_ZN12OSCinterfaceC1Ev
	.loc	13 58 15 is_stmt 0 discriminator 1 @ /root/Bela/projects/SOFAlizer-for-Bela/render.cpp:58:15
	movw	r0, :lower16:_ZN12OSCinterfaceD2Ev
	mov	r1, r5
	movt	r0, :upper16:_ZN12OSCinterfaceD2Ev
	mov	r2, r8
.Ltmp552:
	@DEBUG_VALUE: Fft:this <- %R1
	@DEBUG_VALUE: Fft:this <- %R1
	@DEBUG_VALUE: Fft:this <- %R1
	vpop	{d8, d9}
	pop	{r4, r5, r6, r7, r8, r10, r11, lr}
	b	__cxa_atexit
.Ltmp553:
.Lfunc_end12:
	.size	_GLOBAL__sub_I_render.ii, .Lfunc_end12-_GLOBAL__sub_I_render.ii
	.cfi_endproc
	.file	62 "<stdin>"
	.fnend

	.type	bypass,%object          @ @bypass
	.bss
	.globl	bypass
bypass:
	.byte	0                       @ 0x0
	.size	bypass, 1

	.type	.L.str,%object          @ @.str
	.section	.rodata.str1.8,"aMS",%progbits,1
	.p2align	3
.L.str:
	.asciz	"Started.."
	.size	.L.str, 10

	.type	.L.str.10,%object       @ @.str.10
	.section	.rodata.str1.1,"aMS",%progbits,1
.L.str.10:
	.asciz	"HW Sample Rate: %5.0f Hz\n"
	.size	.L.str.10, 26

	.type	.L.str.11,%object       @ @.str.11
	.section	.rodata,"a",%progbits
.L.str.11:
	.asciz	"./HRTFs/\000"
	.size	.L.str.11, 10

	.type	.L.str.12,%object       @ @.str.12
	.section	.rodata.str1.1,"aMS",%progbits,1
.L.str.12:
	.asciz	"Could not find %s\n"
	.size	.L.str.12, 19

	.type	.L.str.13,%object       @ @.str.13
	.section	.rodata.str1.8,"aMS",%progbits,1
	.p2align	3
.L.str.13:
	.asciz	"Loaded all HRTFs"
	.size	.L.str.13, 17

	.type	.L.str.14,%object       @ @.str.14
	.section	.rodata.str1.1,"aMS",%progbits,1
.L.str.14:
	.asciz	"Wrong normalization percentage (change \"NORMALIZATION_PERCENT\" in settings.h to a value between 0 and 1)\n"
	.size	.L.str.14, 106

	.type	.L.str.15,%object       @ @.str.15
.L.str.15:
	.asciz	"Did not perform normalization on %s\n"
	.size	.L.str.15, 37

	.type	.L.str.16,%object       @ @.str.16
.L.str.16:
	.asciz	"Performed normalization on %s\n"
	.size	.L.str.16, 31

	.type	.L.str.17,%object       @ @.str.17
.L.str.17:
	.asciz	"Err: %d, Could not load %s\n"
	.size	.L.str.17, 28

	.type	.L.str.18,%object       @ @.str.18
	.section	.rodata.str1.8,"aMS",%progbits,1
	.p2align	3
.L.str.18:
	.asciz	"Performed FFT on all HRTFs"
	.size	.L.str.18, 27

	.type	.L.str.19,%object       @ @.str.19
	.section	.rodata.str1.1,"aMS",%progbits,1
.L.str.19:
	.asciz	"SOFAlizer-filtering-task"
	.size	.L.str.19, 25

	.type	.L.str.20,%object       @ @.str.20
	.section	.rodata.str1.8,"aMS",%progbits,1
	.p2align	3
.L.str.20:
	.asciz	"Running.."
	.size	.L.str.20, 10

	.type	.L.str.21,%object       @ @.str.21
	.section	.rodata.str1.1,"aMS",%progbits,1
.L.str.21:
	.asciz	"basic_string::_M_construct null not valid"
	.size	.L.str.21, 42

	.type	.L.str.22,%object       @ @.str.22
.L.str.22:
	.asciz	"vector::_M_default_append"
	.size	.L.str.22, 26

	.type	_ZTSPFvPN6oscpkt7MessageEPKcPvE,%object @ @_ZTSPFvPN6oscpkt7MessageEPKcPvE
	.section	.rodata._ZTSPFvPN6oscpkt7MessageEPKcPvE,"aG",%progbits,_ZTSPFvPN6oscpkt7MessageEPKcPvE,comdat
	.weak	_ZTSPFvPN6oscpkt7MessageEPKcPvE
	.p2align	4
_ZTSPFvPN6oscpkt7MessageEPKcPvE:
	.asciz	"PFvPN6oscpkt7MessageEPKcPvE"
	.size	_ZTSPFvPN6oscpkt7MessageEPKcPvE, 28

	.type	_ZTSFvPN6oscpkt7MessageEPKcPvE,%object @ @_ZTSFvPN6oscpkt7MessageEPKcPvE
	.section	.rodata._ZTSFvPN6oscpkt7MessageEPKcPvE,"aG",%progbits,_ZTSFvPN6oscpkt7MessageEPKcPvE,comdat
	.weak	_ZTSFvPN6oscpkt7MessageEPKcPvE
	.p2align	4
_ZTSFvPN6oscpkt7MessageEPKcPvE:
	.asciz	"FvPN6oscpkt7MessageEPKcPvE"
	.size	_ZTSFvPN6oscpkt7MessageEPKcPvE, 27

	.type	_ZTIFvPN6oscpkt7MessageEPKcPvE,%object @ @_ZTIFvPN6oscpkt7MessageEPKcPvE
	.section	.rodata._ZTIFvPN6oscpkt7MessageEPKcPvE,"aG",%progbits,_ZTIFvPN6oscpkt7MessageEPKcPvE,comdat
	.weak	_ZTIFvPN6oscpkt7MessageEPKcPvE
	.p2align	2
_ZTIFvPN6oscpkt7MessageEPKcPvE:
	.long	_ZTVN10__cxxabiv120__function_type_infoE+8
	.long	_ZTSFvPN6oscpkt7MessageEPKcPvE
	.size	_ZTIFvPN6oscpkt7MessageEPKcPvE, 8

	.type	_ZTIPFvPN6oscpkt7MessageEPKcPvE,%object @ @_ZTIPFvPN6oscpkt7MessageEPKcPvE
	.section	.rodata._ZTIPFvPN6oscpkt7MessageEPKcPvE,"aG",%progbits,_ZTIPFvPN6oscpkt7MessageEPKcPvE,comdat
	.weak	_ZTIPFvPN6oscpkt7MessageEPKcPvE
	.p2align	2
_ZTIPFvPN6oscpkt7MessageEPKcPvE:
	.long	_ZTVN10__cxxabiv119__pointer_type_infoE+8
	.long	_ZTSPFvPN6oscpkt7MessageEPKcPvE
	.long	0                       @ 0x0
	.long	_ZTIFvPN6oscpkt7MessageEPKcPvE
	.size	_ZTIPFvPN6oscpkt7MessageEPKcPvE, 16

	.section	.init_array,"aw",%init_array
	.p2align	2
	.long	_GLOBAL__sub_I_render.ii(target1)
	.type	.L_MergedGlobals,%object @ @_MergedGlobals
	.data
	.p2align	4
.L_MergedGlobals:
	.byte	0                       @ 0x0
	.byte	0                       @ 0x0
	.zero	2
	.long	0                       @ 0x0
	.long	256                     @ 0x100
	.long	0                       @ 0x0
	.long	0                       @ 0x0
	.long	0                       @ 0x0
	.long	0                       @ 0x0
	.long	0                       @ 0x0
	.long	1                       @ 0x1
	.long	0
	.zero	12
	.zero	16
	.zero	16
	.zero	16
	.zero	16
	.size	.L_MergedGlobals, 116

	.type	.L_MergedGlobals.3,%object @ @_MergedGlobals.3
	.local	.L_MergedGlobals.3
	.comm	.L_MergedGlobals.3,104,16
	.type	.L_MergedGlobals.4,%object @ @_MergedGlobals.4
	.local	.L_MergedGlobals.4
	.comm	.L_MergedGlobals.4,76,16